(dp1
S'layout'
p2
(ilayout
Layout
p3
(dp4
S'capsules'
p5
(lp6
sS'numGhosts'
p7
I4
sS'food'
p8
(igame
Grid
p9
(dp10
S'CELLS_PER_INT'
p11
I30
sS'width'
p12
I38
sS'data'
p13
(lp14
(lp15
I00
aI00
aI00
aI00
aI00
aI00
aI00
aI00
aI00
aI00
aI00
aI00
aI00
aa(lp16
I00
aI00
aI00
aI00
aI00
aI00
aI00
aI00
aI00
aI00
aI00
aI00
aI00
aa(lp17
I00
aI00
aI00
aI00
aI00
aI00
aI00
aI00
aI00
aI00
aI00
aI00
aI00
aa(lp18
I00
aI00
aI00
aI00
aI00
aI00
aI00
aI00
aI00
aI00
aI00
aI00
aI00
aa(lp19
I00
aI00
aI00
aI00
aI00
aI00
aI00
aI00
aI00
aI00
aI00
aI00
aI00
aa(lp20
I00
aI00
aI00
aI01
aI01
aI00
aI00
aI00
aI00
aI00
aI01
aI01
aI00
aa(lp21
I00
aI00
aI00
aI00
aI00
aI00
aI00
aI00
aI00
aI00
aI00
aI00
aI00
aa(lp22
I00
aI00
aI00
aI00
aI00
aI00
aI00
aI00
aI00
aI00
aI00
aI01
aI00
aa(lp23
I00
aI00
aI00
aI00
aI00
aI00
aI00
aI00
aI00
aI00
aI00
aI00
aI00
aa(lp24
I00
aI00
aI00
aI00
aI00
aI00
aI01
aI00
aI00
aI00
aI00
aI01
aI00
aa(lp25
I00
aI00
aI00
aI00
aI00
aI00
aI00
aI00
aI00
aI00
aI00
aI00
aI00
aa(lp26
I00
aI00
aI00
aI00
aI00
aI00
aI00
aI00
aI01
aI00
aI00
aI00
aI00
aa(lp27
I00
aI00
aI00
aI00
aI00
aI00
aI00
aI00
aI00
aI00
aI00
aI00
aI00
aa(lp28
I00
aI01
aI00
aI00
aI00
aI00
aI00
aI00
aI00
aI00
aI00
aI00
aI00
aa(lp29
I00
aI00
aI00
aI00
aI00
aI00
aI00
aI00
aI00
aI00
aI00
aI00
aI00
aa(lp30
I00
aI00
aI00
aI00
aI00
aI01
aI00
aI00
aI01
aI00
aI00
aI01
aI00
aa(lp31
I00
aI00
aI00
aI00
aI00
aI00
aI00
aI00
aI00
aI00
aI00
aI00
aI00
aa(lp32
I00
aI00
aI00
aI00
aI00
aI00
aI00
aI00
aI01
aI00
aI00
aI00
aI00
aa(lp33
I00
aI00
aI00
aI00
aI00
aI00
aI00
aI00
aI00
aI00
aI00
aI00
aI00
aa(lp34
I00
aI00
aI00
aI00
aI00
aI00
aI00
aI00
aI00
aI00
aI00
aI00
aI00
aa(lp35
I00
aI00
aI00
aI00
aI01
aI00
aI00
aI00
aI00
aI00
aI00
aI00
aI00
aa(lp36
I00
aI00
aI00
aI00
aI00
aI00
aI00
aI00
aI00
aI00
aI00
aI00
aI00
aa(lp37
I00
aI01
aI00
aI00
aI01
aI00
aI00
aI01
aI00
aI00
aI00
aI00
aI00
aa(lp38
I00
aI00
aI00
aI00
aI00
aI00
aI00
aI00
aI00
aI00
aI00
aI00
aI00
aa(lp39
I00
aI00
aI00
aI00
aI00
aI00
aI00
aI00
aI00
aI00
aI00
aI01
aI00
aa(lp40
I00
aI00
aI00
aI00
aI00
aI00
aI00
aI00
aI00
aI00
aI00
aI00
aI00
aa(lp41
I00
aI00
aI00
aI00
aI01
aI00
aI00
aI00
aI00
aI00
aI00
aI00
aI00
aa(lp42
I00
aI00
aI00
aI00
aI00
aI00
aI00
aI00
aI00
aI00
aI00
aI00
aI00
aa(lp43
I00
aI01
aI00
aI00
aI00
aI00
aI01
aI00
aI00
aI00
aI00
aI00
aI00
aa(lp44
I00
aI00
aI00
aI00
aI00
aI00
aI00
aI00
aI00
aI00
aI00
aI00
aI00
aa(lp45
I00
aI01
aI00
aI00
aI00
aI00
aI00
aI00
aI00
aI00
aI00
aI00
aI00
aa(lp46
I00
aI00
aI00
aI00
aI00
aI00
aI00
aI00
aI00
aI00
aI00
aI00
aI00
aa(lp47
I00
aI01
aI01
aI00
aI00
aI00
aI00
aI00
aI01
aI01
aI00
aI00
aI00
aa(lp48
I00
aI00
aI00
aI00
aI00
aI00
aI00
aI00
aI00
aI00
aI00
aI00
aI00
aa(lp49
I00
aI00
aI00
aI00
aI00
aI00
aI00
aI00
aI00
aI00
aI00
aI00
aI00
aa(lp50
I00
aI00
aI00
aI00
aI00
aI00
aI00
aI00
aI00
aI00
aI00
aI00
aI00
aa(lp51
I00
aI00
aI00
aI00
aI00
aI00
aI00
aI00
aI00
aI00
aI00
aI00
aI00
aa(lp52
I00
aI00
aI00
aI00
aI00
aI00
aI00
aI00
aI00
aI00
aI00
aI00
aI00
aasS'height'
p53
I13
sbsS'agentPositions'
p54
(lp55
(I00
(I1
I11
tp56
tp57
a(I00
(I36
I1
tp58
tp59
a(I00
(I1
I10
tp60
tp61
a(I00
(I36
I2
tp62
tp63
asg53
I13
sg12
I38
sS'walls'
p64
(igame
Grid
p65
(dp66
g11
I30
sg12
I38
sg13
(lp67
(lp68
I01
aI01
aI01
aI01
aI01
aI01
aI01
aI01
aI01
aI01
aI01
aI01
aI01
aa(lp69
I01
aI00
aI00
aI00
aI00
aI00
aI00
aI00
aI00
aI00
aI00
aI00
aI01
aa(lp70
I01
aI00
aI01
aI01
aI01
aI01
aI01
aI01
aI01
aI01
aI01
aI01
aI01
aa(lp71
I01
aI00
aI00
aI00
aI00
aI00
aI00
aI00
aI00
aI00
aI00
aI00
aI01
aa(lp72
I01
aI01
aI01
aI01
aI01
aI01
aI01
aI01
aI01
aI01
aI01
aI00
aI01
aa(lp73
I01
aI00
aI00
aI00
aI00
aI01
aI00
aI00
aI00
aI00
aI00
aI00
aI01
aa(lp74
I01
aI00
aI01
aI01
aI01
aI01
aI00
aI01
aI01
aI01
aI01
aI01
aI01
aa(lp75
I01
aI00
aI00
aI00
aI00
aI00
aI00
aI00
aI00
aI00
aI00
aI00
aI01
aa(lp76
I01
aI00
aI01
aI01
aI00
aI01
aI01
aI01
aI01
aI00
aI01
aI01
aI01
aa(lp77
I01
aI00
aI00
aI01
aI00
aI01
aI00
aI00
aI00
aI00
aI00
aI00
aI01
aa(lp78
I01
aI01
aI00
aI01
aI00
aI01
aI01
aI01
aI01
aI01
aI00
aI01
aI01
aa(lp79
I01
aI01
aI00
aI01
aI00
aI00
aI00
aI00
aI00
aI01
aI00
aI00
aI01
aa(lp80
I01
aI01
aI00
aI01
aI01
aI00
aI01
aI01
aI01
aI01
aI00
aI00
aI01
aa(lp81
I01
aI00
aI00
aI00
aI00
aI00
aI00
aI00
aI00
aI00
aI00
aI00
aI01
aa(lp82
I01
aI01
aI01
aI00
aI01
aI01
aI01
aI01
aI00
aI01
aI00
aI01
aI01
aa(lp83
I01
aI00
aI00
aI00
aI01
aI00
aI00
aI01
aI00
aI01
aI00
aI00
aI01
aa(lp84
I01
aI00
aI01
aI00
aI01
aI01
aI00
aI01
aI01
aI01
aI00
aI01
aI01
aa(lp85
I01
aI00
aI01
aI00
aI00
aI00
aI00
aI01
aI00
aI00
aI00
aI00
aI01
aa(lp86
I01
aI00
aI01
aI01
aI00
aI00
aI00
aI01
aI01
aI01
aI00
aI00
aI01
aa(lp87
I01
aI00
aI00
aI01
aI01
aI01
aI00
aI00
aI00
aI01
aI01
aI00
aI01
aa(lp88
I01
aI00
aI00
aI00
aI00
aI01
aI00
aI00
aI00
aI00
aI01
aI00
aI01
aa(lp89
I01
aI01
aI00
aI01
aI01
aI01
aI00
aI01
aI01
aI00
aI01
aI00
aI01
aa(lp90
I01
aI00
aI00
aI01
aI00
aI01
aI00
aI00
aI01
aI00
aI00
aI00
aI01
aa(lp91
I01
aI01
aI00
aI01
aI00
aI01
aI01
aI01
aI01
aI00
aI01
aI01
aI01
aa(lp92
I01
aI00
aI00
aI00
aI00
aI00
aI00
aI00
aI00
aI00
aI00
aI00
aI01
aa(lp93
I01
aI00
aI00
aI01
aI01
aI01
aI01
aI00
aI01
aI01
aI00
aI01
aI01
aa(lp94
I01
aI00
aI00
aI01
aI00
aI00
aI00
aI00
aI00
aI01
aI00
aI01
aI01
aa(lp95
I01
aI01
aI00
aI01
aI01
aI01
aI01
aI01
aI00
aI01
aI00
aI01
aI01
aa(lp96
I01
aI00
aI00
aI00
aI00
aI00
aI00
aI01
aI00
aI01
aI00
aI00
aI01
aa(lp97
I01
aI01
aI01
aI00
aI01
aI01
aI01
aI01
aI00
aI01
aI01
aI00
aI01
aa(lp98
I01
aI00
aI00
aI00
aI00
aI00
aI00
aI00
aI00
aI00
aI00
aI00
aI01
aa(lp99
I01
aI01
aI01
aI01
aI01
aI01
aI00
aI01
aI01
aI01
aI01
aI00
aI01
aa(lp100
I01
aI00
aI00
aI00
aI00
aI00
aI00
aI01
aI00
aI00
aI00
aI00
aI01
aa(lp101
I01
aI00
aI01
aI01
aI01
aI01
aI01
aI01
aI01
aI01
aI01
aI01
aI01
aa(lp102
I01
aI00
aI00
aI00
aI00
aI00
aI00
aI00
aI00
aI00
aI00
aI00
aI01
aa(lp103
I01
aI01
aI01
aI01
aI01
aI01
aI01
aI01
aI01
aI01
aI01
aI00
aI01
aa(lp104
I01
aI00
aI00
aI00
aI00
aI00
aI00
aI00
aI00
aI00
aI00
aI00
aI01
aa(lp105
I01
aI01
aI01
aI01
aI01
aI01
aI01
aI01
aI01
aI01
aI01
aI01
aI01
aasg53
I13
sbsS'totalFood'
p106
I26
sS'layoutText'
p107
(lp108
S'%%%%%%%%%%%%%%%%%%%%%%%%%%%%%%%%%%%%%%'
p109
aS'%1%  .%.%.%   %.%      %.%%%     %   %'
p110
aS'%3% %.% %          %%% %     % % % % %'
p111
aS'% % % %   %%% %%% %%     %%%%% %.% % %'
p112
aS'% % % % % %.%  .%.%  %%% %     %.% % %'
p113
aS'% % % % % % % %%%%%  %.%   %%% %%% % %'
p114
aS'% % %   %.% % %        % % %.%   % % %'
p115
aS'% % %%% %%%   %.%  %%%%% % % % % % % %'
p116
aS'% % %.%     % %%%  %.%.  %.% % % % % %'
p117
aS'% % %.% %%%%%     %% %%% %%%   % % % %'
p118
aS'% % % % %     % %%%          % %.% %4%'
p119
aS'%   %     %%%.%      %.%   %.%.%.  %2%'
p120
aS'%%%%%%%%%%%%%%%%%%%%%%%%%%%%%%%%%%%%%%'
p121
asbsS'blueTeamName'
p122
S'Blue'
p123
sS'actions'
p124
(lp125
(I0
S'South'
p126
tp127
a(I1
S'North'
p128
tp129
a(I2
g126
tp130
a(I3
g128
tp131
a(I0
g126
tp132
a(I1
g128
tp133
a(I2
g126
tp134
a(I3
g128
tp135
a(I0
g126
tp136
a(I1
g128
tp137
a(I2
g126
tp138
a(I3
g128
tp139
a(I0
g126
tp140
a(I1
g128
tp141
a(I2
g126
tp142
a(I3
g128
tp143
a(I0
g126
tp144
a(I1
g128
tp145
a(I2
g126
tp146
a(I3
g128
tp147
a(I0
g126
tp148
a(I1
g128
tp149
a(I2
g126
tp150
a(I3
g128
tp151
a(I0
g126
tp152
a(I1
g128
tp153
a(I2
g126
tp154
a(I3
g128
tp155
a(I0
g126
tp156
a(I1
g128
tp157
a(I2
g126
tp158
a(I3
g128
tp159
a(I0
g126
tp160
a(I1
g128
tp161
a(I2
g126
tp162
a(I3
g128
tp163
a(I0
g126
tp164
a(I1
g128
tp165
a(I2
S'East'
p166
tp167
a(I3
S'West'
p168
tp169
a(I0
g166
tp170
a(I1
g168
tp171
a(I2
g166
tp172
a(I3
g168
tp173
a(I0
g166
tp174
a(I1
g168
tp175
a(I2
g128
tp176
a(I3
g126
tp177
a(I0
g128
tp178
a(I1
g126
tp179
a(I2
g128
tp180
a(I3
g126
tp181
a(I0
g128
tp182
a(I1
g126
tp183
a(I2
g128
tp184
a(I3
g126
tp185
a(I0
g128
tp186
a(I1
g126
tp187
a(I2
g128
tp188
a(I3
g126
tp189
a(I0
g128
tp190
a(I1
g126
tp191
a(I2
g128
tp192
a(I3
g126
tp193
a(I0
g128
tp194
a(I1
g126
tp195
a(I2
g128
tp196
a(I3
g126
tp197
a(I0
g128
tp198
a(I1
g126
tp199
a(I2
g128
tp200
a(I3
g126
tp201
a(I0
g128
tp202
a(I1
g126
tp203
a(I2
g128
tp204
a(I3
g126
tp205
a(I0
g128
tp206
a(I1
g126
tp207
a(I2
g128
tp208
a(I3
g126
tp209
a(I0
g128
tp210
a(I1
g126
tp211
a(I2
g128
tp212
a(I3
g126
tp213
a(I0
g128
tp214
a(I1
g126
tp215
a(I2
g166
tp216
a(I3
g168
tp217
a(I0
g166
tp218
a(I1
g168
tp219
a(I2
g166
tp220
a(I3
g168
tp221
a(I0
g166
tp222
a(I1
g168
tp223
a(I2
g126
tp224
a(I3
g128
tp225
a(I0
g126
tp226
a(I1
g128
tp227
a(I2
g126
tp228
a(I3
g128
tp229
a(I0
g126
tp230
a(I1
g128
tp231
a(I2
g126
tp232
a(I3
g128
tp233
a(I0
g126
tp234
a(I1
g128
tp235
a(I2
g126
tp236
a(I3
g128
tp237
a(I0
g126
tp238
a(I1
g128
tp239
a(I2
g126
tp240
a(I3
g128
tp241
a(I0
g126
tp242
a(I1
g128
tp243
a(I2
g166
tp244
a(I3
g168
tp245
a(I0
g166
tp246
a(I1
g168
tp247
a(I2
g166
tp248
a(I3
g168
tp249
a(I0
g166
tp250
a(I1
g168
tp251
a(I2
g126
tp252
a(I3
g126
tp253
a(I0
g128
tp254
a(I1
g128
tp255
a(I2
g126
tp256
a(I3
g126
tp257
a(I0
g128
tp258
a(I1
g128
tp259
a(I2
g166
tp260
a(I3
g126
tp261
a(I0
g128
tp262
a(I1
g168
tp263
a(I2
g166
tp264
a(I3
g168
tp265
a(I0
g166
tp266
a(I1
g168
tp267
a(I2
g166
tp268
a(I3
g168
tp269
a(I0
g166
tp270
a(I1
g168
tp271
a(I2
g166
tp272
a(I3
g126
tp273
a(I0
g128
tp274
a(I1
g168
tp275
a(I2
g128
tp276
a(I3
g168
tp277
a(I0
g166
tp278
a(I1
g126
tp279
a(I2
g166
tp280
a(I3
g168
tp281
a(I0
g166
tp282
a(I1
g168
tp283
a(I2
g166
tp284
a(I3
g168
tp285
a(I0
g166
tp286
a(I1
g168
tp287
a(I2
g126
tp288
a(I3
g168
tp289
a(I0
g166
tp290
a(I1
g128
tp291
a(I2
g126
tp292
a(I3
g168
tp293
a(I0
g166
tp294
a(I1
g128
tp295
a(I2
g166
tp296
a(I3
g168
tp297
a(I0
g166
tp298
a(I1
g168
tp299
a(I2
g166
tp300
a(I3
g168
tp301
a(I0
g166
tp302
a(I1
g168
tp303
a(I2
g166
tp304
a(I3
g168
tp305
a(I0
g166
tp306
a(I1
g128
tp307
a(I2
g166
tp308
a(I3
g128
tp309
a(I0
g166
tp310
a(I1
g128
tp311
a(I2
g128
tp312
a(I3
g128
tp313
a(I0
g168
tp314
a(I1
g168
tp315
a(I2
g166
tp316
a(I3
g126
tp317
a(I0
g126
tp318
a(I1
g168
tp319
a(I2
g128
tp320
a(I3
g126
tp321
a(I0
g126
tp322
a(I1
g168
tp323
a(I2
g128
tp324
a(I3
g166
tp325
a(I0
g128
tp326
a(I1
g166
tp327
a(I2
g166
tp328
a(I3
g166
tp329
a(I0
g126
tp330
a(I1
g166
tp331
a(I2
g166
tp332
a(I3
g126
tp333
a(I0
g128
tp334
a(I1
g166
tp335
a(I2
g166
tp336
a(I3
g128
tp337
a(I0
g128
tp338
a(I1
g126
tp339
a(I2
g166
tp340
a(I3
g166
tp341
a(I0
g128
tp342
a(I1
g126
tp343
a(I2
g128
tp344
a(I3
g166
tp345
a(I0
g166
tp346
a(I1
g168
tp347
a(I2
g126
tp348
a(I3
g128
tp349
a(I0
g166
tp350
a(I1
g166
tp351
a(I2
g168
tp352
a(I3
g128
tp353
a(I0
g168
tp354
a(I1
g168
tp355
a(I2
g166
tp356
a(I3
g128
tp357
a(I0
g166
tp358
a(I1
g166
tp359
a(I2
g168
tp360
a(I3
g128
tp361
a(I0
g168
tp362
a(I1
g168
tp363
a(I2
g166
tp364
a(I3
g128
tp365
a(I0
g166
tp366
a(I1
g166
tp367
a(I2
g168
tp368
a(I3
g128
tp369
a(I0
g168
tp370
a(I1
g168
tp371
a(I2
g166
tp372
a(I3
g128
tp373
a(I0
g166
tp374
a(I1
g166
tp375
a(I2
g168
tp376
a(I3
g168
tp377
a(I0
g168
tp378
a(I1
g168
tp379
a(I2
g166
tp380
a(I3
g168
tp381
a(I0
g166
tp382
a(I1
g166
tp383
a(I2
g168
tp384
a(I3
g128
tp385
a(I0
g168
tp386
a(I1
g168
tp387
a(I2
g166
tp388
a(I3
g126
tp389
a(I0
g166
tp390
a(I1
g166
tp391
a(I2
g168
tp392
a(I3
g128
tp393
a(I0
g168
tp394
a(I1
g168
tp395
a(I2
g166
tp396
a(I3
g126
tp397
a(I0
g166
tp398
a(I1
g166
tp399
a(I2
g168
tp400
a(I3
g128
tp401
a(I0
g168
tp402
a(I1
g168
tp403
a(I2
g166
tp404
a(I3
g126
tp405
a(I0
g166
tp406
a(I1
g166
tp407
a(I2
g168
tp408
a(I3
g128
tp409
a(I0
g168
tp410
a(I1
g168
tp411
a(I2
g166
tp412
a(I3
g126
tp413
a(I0
g166
tp414
a(I1
g166
tp415
a(I2
g168
tp416
a(I3
g128
tp417
a(I0
g168
tp418
a(I1
g168
tp419
a(I2
g166
tp420
a(I3
g126
tp421
a(I0
g166
tp422
a(I1
g166
tp423
a(I2
g168
tp424
a(I3
g128
tp425
a(I0
g168
tp426
a(I1
g168
tp427
a(I2
g166
tp428
a(I3
g126
tp429
a(I0
g166
tp430
a(I1
g166
tp431
a(I2
g168
tp432
a(I3
g128
tp433
a(I0
g168
tp434
a(I1
g168
tp435
a(I2
g166
tp436
a(I3
g126
tp437
a(I0
g166
tp438
a(I1
g166
tp439
a(I2
g168
tp440
a(I3
g128
tp441
a(I0
g168
tp442
a(I1
g168
tp443
a(I2
g166
tp444
a(I3
g126
tp445
a(I0
g166
tp446
a(I1
g166
tp447
a(I2
g168
tp448
a(I3
g128
tp449
a(I0
g168
tp450
a(I1
g168
tp451
a(I2
g166
tp452
a(I3
g126
tp453
a(I0
g166
tp454
a(I1
g166
tp455
a(I2
g168
tp456
a(I3
g128
tp457
a(I0
g168
tp458
a(I1
g168
tp459
a(I2
g166
tp460
a(I3
g126
tp461
a(I0
g166
tp462
a(I1
g166
tp463
a(I2
g168
tp464
a(I3
g128
tp465
a(I0
g168
tp466
a(I1
g168
tp467
a(I2
g166
tp468
a(I3
g126
tp469
a(I0
g166
tp470
a(I1
g166
tp471
a(I2
g168
tp472
a(I3
g128
tp473
a(I0
g168
tp474
a(I1
g168
tp475
a(I2
g166
tp476
a(I3
g126
tp477
a(I0
g166
tp478
a(I1
g166
tp479
a(I2
g168
tp480
a(I3
g128
tp481
a(I0
g168
tp482
a(I1
g168
tp483
a(I2
g166
tp484
a(I3
g126
tp485
a(I0
g166
tp486
a(I1
g166
tp487
a(I2
g168
tp488
a(I3
g128
tp489
a(I0
g168
tp490
a(I1
g168
tp491
a(I2
g166
tp492
a(I3
g126
tp493
a(I0
g166
tp494
a(I1
g166
tp495
a(I2
g168
tp496
a(I3
g128
tp497
a(I0
g168
tp498
a(I1
g168
tp499
a(I2
g166
tp500
a(I3
g126
tp501
a(I0
g166
tp502
a(I1
g166
tp503
a(I2
g168
tp504
a(I3
g128
tp505
a(I0
g168
tp506
a(I1
g168
tp507
a(I2
g166
tp508
a(I3
g126
tp509
a(I0
g166
tp510
a(I1
g166
tp511
a(I2
g168
tp512
a(I3
g128
tp513
a(I0
g168
tp514
a(I1
g168
tp515
a(I2
g166
tp516
a(I3
g126
tp517
a(I0
g166
tp518
a(I1
g166
tp519
a(I2
g168
tp520
a(I3
g128
tp521
a(I0
g168
tp522
a(I1
g168
tp523
a(I2
g166
tp524
a(I3
g126
tp525
a(I0
g166
tp526
a(I1
g166
tp527
a(I2
g168
tp528
a(I3
g128
tp529
a(I0
g168
tp530
a(I1
g168
tp531
a(I2
g166
tp532
a(I3
g126
tp533
a(I0
g166
tp534
a(I1
g166
tp535
a(I2
g168
tp536
a(I3
g128
tp537
a(I0
g168
tp538
a(I1
g168
tp539
a(I2
g166
tp540
a(I3
g126
tp541
a(I0
g166
tp542
a(I1
g166
tp543
a(I2
g168
tp544
a(I3
g128
tp545
a(I0
g168
tp546
a(I1
g168
tp547
a(I2
g166
tp548
a(I3
g126
tp549
a(I0
g166
tp550
a(I1
g166
tp551
a(I2
g168
tp552
a(I3
g128
tp553
a(I0
g168
tp554
a(I1
g168
tp555
a(I2
g166
tp556
a(I3
g126
tp557
a(I0
g166
tp558
a(I1
g166
tp559
a(I2
g168
tp560
a(I3
g128
tp561
a(I0
g168
tp562
a(I1
g168
tp563
a(I2
g166
tp564
a(I3
g126
tp565
a(I0
g166
tp566
a(I1
g166
tp567
a(I2
g168
tp568
a(I3
g128
tp569
a(I0
g168
tp570
a(I1
g168
tp571
a(I2
g166
tp572
a(I3
g126
tp573
a(I0
g166
tp574
a(I1
g166
tp575
a(I2
g168
tp576
a(I3
g128
tp577
a(I0
g168
tp578
a(I1
g168
tp579
a(I2
g166
tp580
a(I3
g126
tp581
a(I0
g166
tp582
a(I1
g166
tp583
a(I2
g168
tp584
a(I3
g128
tp585
a(I0
g168
tp586
a(I1
g168
tp587
a(I2
g166
tp588
a(I3
g126
tp589
a(I0
g166
tp590
a(I1
g166
tp591
a(I2
g168
tp592
a(I3
g128
tp593
a(I0
g168
tp594
a(I1
g168
tp595
a(I2
g166
tp596
a(I3
g126
tp597
a(I0
g166
tp598
a(I1
g166
tp599
a(I2
g168
tp600
a(I3
g128
tp601
a(I0
g168
tp602
a(I1
g168
tp603
a(I2
g166
tp604
a(I3
g126
tp605
a(I0
g166
tp606
a(I1
g166
tp607
a(I2
g168
tp608
a(I3
g128
tp609
a(I0
g168
tp610
a(I1
g168
tp611
a(I2
g166
tp612
a(I3
g126
tp613
a(I0
g166
tp614
a(I1
g166
tp615
a(I2
g168
tp616
a(I3
g128
tp617
a(I0
g168
tp618
a(I1
g168
tp619
a(I2
g166
tp620
a(I3
g126
tp621
a(I0
g166
tp622
a(I1
g166
tp623
a(I2
g168
tp624
a(I3
g128
tp625
a(I0
g168
tp626
a(I1
g168
tp627
a(I2
g166
tp628
a(I3
g126
tp629
a(I0
g166
tp630
a(I1
g166
tp631
a(I2
g168
tp632
a(I3
g128
tp633
a(I0
g168
tp634
a(I1
g168
tp635
a(I2
g166
tp636
a(I3
g126
tp637
a(I0
g166
tp638
a(I1
g166
tp639
a(I2
g168
tp640
a(I3
g128
tp641
a(I0
g168
tp642
a(I1
g168
tp643
a(I2
g166
tp644
a(I3
g126
tp645
a(I0
g166
tp646
a(I1
g166
tp647
a(I2
g168
tp648
a(I3
g128
tp649
a(I0
g168
tp650
a(I1
g168
tp651
a(I2
g166
tp652
a(I3
g126
tp653
a(I0
g166
tp654
a(I1
g166
tp655
a(I2
g168
tp656
a(I3
g128
tp657
a(I0
g168
tp658
a(I1
g168
tp659
a(I2
g166
tp660
a(I3
g126
tp661
a(I0
g166
tp662
a(I1
g166
tp663
a(I2
g168
tp664
a(I3
g128
tp665
a(I0
g168
tp666
a(I1
g168
tp667
a(I2
g166
tp668
a(I3
g126
tp669
a(I0
g166
tp670
a(I1
g166
tp671
a(I2
g168
tp672
a(I3
g128
tp673
a(I0
g168
tp674
a(I1
g168
tp675
a(I2
g166
tp676
a(I3
g126
tp677
a(I0
g166
tp678
a(I1
g166
tp679
a(I2
g168
tp680
a(I3
g128
tp681
a(I0
g168
tp682
a(I1
g168
tp683
a(I2
g166
tp684
a(I3
g126
tp685
a(I0
g166
tp686
a(I1
g166
tp687
a(I2
g168
tp688
a(I3
g128
tp689
a(I0
g168
tp690
a(I1
g168
tp691
a(I2
g166
tp692
a(I3
g126
tp693
a(I0
g166
tp694
a(I1
g166
tp695
a(I2
g168
tp696
a(I3
g128
tp697
a(I0
g168
tp698
a(I1
g168
tp699
a(I2
g166
tp700
a(I3
g126
tp701
a(I0
g166
tp702
a(I1
g166
tp703
a(I2
g168
tp704
a(I3
g128
tp705
a(I0
g168
tp706
a(I1
g168
tp707
a(I2
g166
tp708
a(I3
g126
tp709
a(I0
g166
tp710
a(I1
g166
tp711
a(I2
g168
tp712
a(I3
g128
tp713
a(I0
g168
tp714
a(I1
g168
tp715
a(I2
g166
tp716
a(I3
g126
tp717
a(I0
g166
tp718
a(I1
g166
tp719
a(I2
g168
tp720
a(I3
g128
tp721
a(I0
g168
tp722
a(I1
g168
tp723
a(I2
g166
tp724
a(I3
g126
tp725
a(I0
g166
tp726
a(I1
g166
tp727
a(I2
g168
tp728
a(I3
g128
tp729
a(I0
g168
tp730
a(I1
g168
tp731
a(I2
g166
tp732
a(I3
g126
tp733
a(I0
g166
tp734
a(I1
g166
tp735
a(I2
g168
tp736
a(I3
g128
tp737
a(I0
g168
tp738
a(I1
g168
tp739
a(I2
g166
tp740
a(I3
g126
tp741
a(I0
g166
tp742
a(I1
g166
tp743
a(I2
g168
tp744
a(I3
g128
tp745
a(I0
g168
tp746
a(I1
g168
tp747
a(I2
g166
tp748
a(I3
g126
tp749
a(I0
g166
tp750
a(I1
g166
tp751
a(I2
g168
tp752
a(I3
g128
tp753
a(I0
g168
tp754
a(I1
g168
tp755
a(I2
g166
tp756
a(I3
g126
tp757
a(I0
g166
tp758
a(I1
g166
tp759
a(I2
g168
tp760
a(I3
g128
tp761
a(I0
g168
tp762
a(I1
g168
tp763
a(I2
g166
tp764
a(I3
g126
tp765
a(I0
g166
tp766
a(I1
g166
tp767
a(I2
g168
tp768
a(I3
g128
tp769
a(I0
g168
tp770
a(I1
g168
tp771
a(I2
g166
tp772
a(I3
g126
tp773
a(I0
g166
tp774
a(I1
g166
tp775
a(I2
g168
tp776
a(I3
g128
tp777
a(I0
g168
tp778
a(I1
g168
tp779
a(I2
g166
tp780
a(I3
g126
tp781
a(I0
g166
tp782
a(I1
g166
tp783
a(I2
g168
tp784
a(I3
g128
tp785
a(I0
g168
tp786
a(I1
g168
tp787
a(I2
g166
tp788
a(I3
g126
tp789
a(I0
g166
tp790
a(I1
g166
tp791
a(I2
g168
tp792
a(I3
g128
tp793
a(I0
g168
tp794
a(I1
g168
tp795
a(I2
g166
tp796
a(I3
g126
tp797
a(I0
g166
tp798
a(I1
g166
tp799
a(I2
g168
tp800
a(I3
g128
tp801
a(I0
g168
tp802
a(I1
g168
tp803
a(I2
g166
tp804
a(I3
g126
tp805
a(I0
g166
tp806
a(I1
g166
tp807
a(I2
g168
tp808
a(I3
g128
tp809
a(I0
g168
tp810
a(I1
g168
tp811
a(I2
g166
tp812
a(I3
g126
tp813
a(I0
g166
tp814
a(I1
g166
tp815
a(I2
g168
tp816
a(I3
g128
tp817
a(I0
g168
tp818
a(I1
g168
tp819
a(I2
g166
tp820
a(I3
g126
tp821
a(I0
g166
tp822
a(I1
g166
tp823
a(I2
g168
tp824
a(I3
g128
tp825
a(I0
g168
tp826
a(I1
g168
tp827
a(I2
g166
tp828
a(I3
g126
tp829
a(I0
g166
tp830
a(I1
g166
tp831
a(I2
g168
tp832
a(I3
g128
tp833
a(I0
g168
tp834
a(I1
g168
tp835
a(I2
g166
tp836
a(I3
g126
tp837
a(I0
g166
tp838
a(I1
g166
tp839
a(I2
g168
tp840
a(I3
g128
tp841
a(I0
g168
tp842
a(I1
g168
tp843
a(I2
g166
tp844
a(I3
g126
tp845
a(I0
g166
tp846
a(I1
g166
tp847
a(I2
g168
tp848
a(I3
g128
tp849
a(I0
g168
tp850
a(I1
g168
tp851
a(I2
g166
tp852
a(I3
g126
tp853
a(I0
g166
tp854
a(I1
g166
tp855
a(I2
g168
tp856
a(I3
g128
tp857
a(I0
g168
tp858
a(I1
g168
tp859
a(I2
g166
tp860
a(I3
g126
tp861
a(I0
g166
tp862
a(I1
g166
tp863
a(I2
g168
tp864
a(I3
g128
tp865
a(I0
g168
tp866
a(I1
g168
tp867
a(I2
g166
tp868
a(I3
g126
tp869
a(I0
g166
tp870
a(I1
g166
tp871
a(I2
g168
tp872
a(I3
g128
tp873
a(I0
g168
tp874
a(I1
g168
tp875
a(I2
g166
tp876
a(I3
g126
tp877
a(I0
g166
tp878
a(I1
g166
tp879
a(I2
g168
tp880
a(I3
g128
tp881
a(I0
g168
tp882
a(I1
g168
tp883
a(I2
g166
tp884
a(I3
g126
tp885
a(I0
g166
tp886
a(I1
g166
tp887
a(I2
g168
tp888
a(I3
g128
tp889
a(I0
g168
tp890
a(I1
g168
tp891
a(I2
g166
tp892
a(I3
g126
tp893
a(I0
g166
tp894
a(I1
g166
tp895
a(I2
g168
tp896
a(I3
g128
tp897
a(I0
g168
tp898
a(I1
g168
tp899
a(I2
g166
tp900
a(I3
g126
tp901
a(I0
g166
tp902
a(I1
g166
tp903
a(I2
g168
tp904
a(I3
g128
tp905
a(I0
g168
tp906
a(I1
g168
tp907
a(I2
g166
tp908
a(I3
g126
tp909
a(I0
g166
tp910
a(I1
g166
tp911
a(I2
g168
tp912
a(I3
g128
tp913
a(I0
g168
tp914
a(I1
g168
tp915
a(I2
g166
tp916
a(I3
g126
tp917
a(I0
g166
tp918
a(I1
g166
tp919
a(I2
g168
tp920
a(I3
g128
tp921
a(I0
g168
tp922
a(I1
g168
tp923
a(I2
g166
tp924
a(I3
g126
tp925
a(I0
g166
tp926
a(I1
g166
tp927
a(I2
g168
tp928
a(I3
g128
tp929
a(I0
g168
tp930
a(I1
g168
tp931
a(I2
g166
tp932
a(I3
g126
tp933
a(I0
g166
tp934
a(I1
g166
tp935
a(I2
g168
tp936
a(I3
g128
tp937
a(I0
g168
tp938
a(I1
g168
tp939
a(I2
g166
tp940
a(I3
g126
tp941
a(I0
g166
tp942
a(I1
g166
tp943
a(I2
g168
tp944
a(I3
g128
tp945
a(I0
g168
tp946
a(I1
g168
tp947
a(I2
g166
tp948
a(I3
g126
tp949
a(I0
g166
tp950
a(I1
g166
tp951
a(I2
g168
tp952
a(I3
g128
tp953
a(I0
g168
tp954
a(I1
g168
tp955
a(I2
g166
tp956
a(I3
g126
tp957
a(I0
g166
tp958
a(I1
g166
tp959
a(I2
g168
tp960
a(I3
g128
tp961
a(I0
g168
tp962
a(I1
g168
tp963
a(I2
g166
tp964
a(I3
g126
tp965
a(I0
g166
tp966
a(I1
g166
tp967
a(I2
g168
tp968
a(I3
g128
tp969
a(I0
g168
tp970
a(I1
g168
tp971
a(I2
g166
tp972
a(I3
g126
tp973
a(I0
g166
tp974
a(I1
g166
tp975
a(I2
g168
tp976
a(I3
g128
tp977
a(I0
g168
tp978
a(I1
g168
tp979
a(I2
g166
tp980
a(I3
g126
tp981
a(I0
g166
tp982
a(I1
g166
tp983
a(I2
g168
tp984
a(I3
g128
tp985
a(I0
g168
tp986
a(I1
g168
tp987
a(I2
g166
tp988
a(I3
g126
tp989
a(I0
g166
tp990
a(I1
g166
tp991
a(I2
g168
tp992
a(I3
g128
tp993
a(I0
g168
tp994
a(I1
g168
tp995
a(I2
g166
tp996
a(I3
g126
tp997
a(I0
g166
tp998
a(I1
g166
tp999
a(I2
g168
tp1000
a(I3
g128
tp1001
a(I0
g168
tp1002
a(I1
g168
tp1003
a(I2
g166
tp1004
a(I3
g126
tp1005
a(I0
g166
tp1006
a(I1
g166
tp1007
a(I2
g168
tp1008
a(I3
g128
tp1009
a(I0
g168
tp1010
a(I1
g168
tp1011
a(I2
g166
tp1012
a(I3
g126
tp1013
a(I0
g166
tp1014
a(I1
g166
tp1015
a(I2
g168
tp1016
a(I3
g128
tp1017
a(I0
g168
tp1018
a(I1
g168
tp1019
a(I2
g166
tp1020
a(I3
g126
tp1021
a(I0
g166
tp1022
a(I1
g166
tp1023
a(I2
g168
tp1024
a(I3
g128
tp1025
a(I0
g168
tp1026
a(I1
g168
tp1027
a(I2
g166
tp1028
a(I3
g126
tp1029
a(I0
g166
tp1030
a(I1
g166
tp1031
a(I2
g168
tp1032
a(I3
g128
tp1033
a(I0
g168
tp1034
a(I1
g168
tp1035
a(I2
g166
tp1036
a(I3
g126
tp1037
a(I0
g166
tp1038
a(I1
g166
tp1039
a(I2
g168
tp1040
a(I3
g128
tp1041
a(I0
g168
tp1042
a(I1
g168
tp1043
a(I2
g166
tp1044
a(I3
g126
tp1045
a(I0
g166
tp1046
a(I1
g166
tp1047
a(I2
g168
tp1048
a(I3
g128
tp1049
a(I0
g168
tp1050
a(I1
g168
tp1051
a(I2
g166
tp1052
a(I3
g126
tp1053
a(I0
g166
tp1054
a(I1
g166
tp1055
a(I2
g168
tp1056
a(I3
g128
tp1057
a(I0
g168
tp1058
a(I1
g168
tp1059
a(I2
g166
tp1060
a(I3
g126
tp1061
a(I0
g166
tp1062
a(I1
g166
tp1063
a(I2
g168
tp1064
a(I3
g128
tp1065
a(I0
g168
tp1066
a(I1
g168
tp1067
a(I2
g166
tp1068
a(I3
g126
tp1069
a(I0
g166
tp1070
a(I1
g166
tp1071
a(I2
g168
tp1072
a(I3
g128
tp1073
a(I0
g168
tp1074
a(I1
g168
tp1075
a(I2
g166
tp1076
a(I3
g126
tp1077
a(I0
g166
tp1078
a(I1
g166
tp1079
a(I2
g168
tp1080
a(I3
g128
tp1081
a(I0
g168
tp1082
a(I1
g168
tp1083
a(I2
g166
tp1084
a(I3
g126
tp1085
a(I0
g166
tp1086
a(I1
g166
tp1087
a(I2
g168
tp1088
a(I3
g128
tp1089
a(I0
g168
tp1090
a(I1
g168
tp1091
a(I2
g166
tp1092
a(I3
g126
tp1093
a(I0
g166
tp1094
a(I1
g166
tp1095
a(I2
g168
tp1096
a(I3
g128
tp1097
a(I0
g168
tp1098
a(I1
g168
tp1099
a(I2
g166
tp1100
a(I3
g126
tp1101
a(I0
g166
tp1102
a(I1
g166
tp1103
a(I2
g168
tp1104
a(I3
g128
tp1105
a(I0
g168
tp1106
a(I1
g168
tp1107
a(I2
g166
tp1108
a(I3
g126
tp1109
a(I0
g166
tp1110
a(I1
g166
tp1111
a(I2
g168
tp1112
a(I3
g128
tp1113
a(I0
g168
tp1114
a(I1
g168
tp1115
a(I2
g166
tp1116
a(I3
g126
tp1117
a(I0
g166
tp1118
a(I1
g166
tp1119
a(I2
g168
tp1120
a(I3
g128
tp1121
a(I0
g168
tp1122
a(I1
g168
tp1123
a(I2
g166
tp1124
a(I3
g126
tp1125
a(I0
g166
tp1126
a(I1
g166
tp1127
a(I2
g168
tp1128
a(I3
g128
tp1129
a(I0
g168
tp1130
a(I1
g168
tp1131
a(I2
g166
tp1132
a(I3
g126
tp1133
a(I0
g166
tp1134
a(I1
g166
tp1135
a(I2
g168
tp1136
a(I3
g128
tp1137
a(I0
g168
tp1138
a(I1
g168
tp1139
a(I2
g166
tp1140
a(I3
g126
tp1141
a(I0
g166
tp1142
a(I1
g166
tp1143
a(I2
g168
tp1144
a(I3
g128
tp1145
a(I0
g168
tp1146
a(I1
g168
tp1147
a(I2
g166
tp1148
a(I3
g126
tp1149
a(I0
g166
tp1150
a(I1
g166
tp1151
a(I2
g168
tp1152
a(I3
g128
tp1153
a(I0
g168
tp1154
a(I1
g168
tp1155
a(I2
g166
tp1156
a(I3
g126
tp1157
a(I0
g166
tp1158
a(I1
g166
tp1159
a(I2
g168
tp1160
a(I3
g128
tp1161
a(I0
g168
tp1162
a(I1
g168
tp1163
a(I2
g166
tp1164
a(I3
g126
tp1165
a(I0
g166
tp1166
a(I1
g166
tp1167
a(I2
g168
tp1168
a(I3
g128
tp1169
a(I0
g168
tp1170
a(I1
g168
tp1171
a(I2
g166
tp1172
a(I3
g126
tp1173
a(I0
g166
tp1174
a(I1
g166
tp1175
a(I2
g168
tp1176
a(I3
g128
tp1177
a(I0
g168
tp1178
a(I1
g168
tp1179
a(I2
g166
tp1180
a(I3
g126
tp1181
a(I0
g166
tp1182
a(I1
g166
tp1183
a(I2
g168
tp1184
a(I3
g128
tp1185
a(I0
g168
tp1186
a(I1
g168
tp1187
a(I2
g166
tp1188
a(I3
g126
tp1189
a(I0
g166
tp1190
a(I1
g166
tp1191
a(I2
g168
tp1192
a(I3
g128
tp1193
a(I0
g168
tp1194
a(I1
g168
tp1195
a(I2
g166
tp1196
a(I3
g126
tp1197
a(I0
g166
tp1198
a(I1
g166
tp1199
a(I2
g168
tp1200
a(I3
g128
tp1201
a(I0
g168
tp1202
a(I1
g168
tp1203
a(I2
g166
tp1204
a(I3
g126
tp1205
a(I0
g166
tp1206
a(I1
g166
tp1207
a(I2
g168
tp1208
a(I3
g128
tp1209
a(I0
g168
tp1210
a(I1
g168
tp1211
a(I2
g166
tp1212
a(I3
g126
tp1213
a(I0
g166
tp1214
a(I1
g166
tp1215
a(I2
g168
tp1216
a(I3
g128
tp1217
a(I0
g168
tp1218
a(I1
g168
tp1219
a(I2
g166
tp1220
a(I3
g126
tp1221
a(I0
g166
tp1222
a(I1
g166
tp1223
a(I2
g168
tp1224
a(I3
g128
tp1225
a(I0
g168
tp1226
a(I1
g168
tp1227
a(I2
g166
tp1228
a(I3
g126
tp1229
a(I0
g166
tp1230
a(I1
g166
tp1231
a(I2
g168
tp1232
a(I3
g128
tp1233
a(I0
g168
tp1234
a(I1
g168
tp1235
a(I2
g166
tp1236
a(I3
g126
tp1237
a(I0
g166
tp1238
a(I1
g166
tp1239
a(I2
g168
tp1240
a(I3
g128
tp1241
a(I0
g168
tp1242
a(I1
g168
tp1243
a(I2
g166
tp1244
a(I3
g126
tp1245
a(I0
g166
tp1246
a(I1
g166
tp1247
a(I2
g168
tp1248
a(I3
g128
tp1249
a(I0
g168
tp1250
a(I1
g168
tp1251
a(I2
g166
tp1252
a(I3
g126
tp1253
a(I0
g166
tp1254
a(I1
g166
tp1255
a(I2
g168
tp1256
a(I3
g128
tp1257
a(I0
g168
tp1258
a(I1
g168
tp1259
a(I2
g166
tp1260
a(I3
g126
tp1261
a(I0
g166
tp1262
a(I1
g166
tp1263
a(I2
g168
tp1264
a(I3
g128
tp1265
a(I0
g168
tp1266
a(I1
g168
tp1267
a(I2
g166
tp1268
a(I3
g126
tp1269
a(I0
g166
tp1270
a(I1
g166
tp1271
a(I2
g168
tp1272
a(I3
g128
tp1273
a(I0
g168
tp1274
a(I1
g168
tp1275
a(I2
g166
tp1276
a(I3
g126
tp1277
a(I0
g166
tp1278
a(I1
g166
tp1279
a(I2
g168
tp1280
a(I3
g128
tp1281
a(I0
g168
tp1282
a(I1
g168
tp1283
a(I2
g166
tp1284
a(I3
g126
tp1285
a(I0
g166
tp1286
a(I1
g166
tp1287
a(I2
g168
tp1288
a(I3
g128
tp1289
a(I0
g168
tp1290
a(I1
g168
tp1291
a(I2
g166
tp1292
a(I3
g126
tp1293
a(I0
g166
tp1294
a(I1
g166
tp1295
a(I2
g168
tp1296
a(I3
g128
tp1297
a(I0
g168
tp1298
a(I1
g168
tp1299
a(I2
g166
tp1300
a(I3
g126
tp1301
a(I0
g166
tp1302
a(I1
g166
tp1303
a(I2
g168
tp1304
a(I3
g128
tp1305
a(I0
g168
tp1306
a(I1
g168
tp1307
a(I2
g166
tp1308
a(I3
g126
tp1309
a(I0
g166
tp1310
a(I1
g166
tp1311
a(I2
g168
tp1312
a(I3
g128
tp1313
a(I0
g168
tp1314
a(I1
g168
tp1315
a(I2
g166
tp1316
a(I3
g126
tp1317
a(I0
g166
tp1318
a(I1
g166
tp1319
a(I2
g168
tp1320
a(I3
g128
tp1321
a(I0
g168
tp1322
a(I1
g168
tp1323
a(I2
g166
tp1324
a(I3
g126
tp1325
a(I0
g166
tp1326
a(I1
g166
tp1327
a(I2
g168
tp1328
a(I3
g128
tp1329
asS'length'
p1330
I1200
sS'agents'
p1331
(lp1332
(igame
Agent
p1333
(dp1334
S'index'
p1335
I0
sba(igame
Agent
p1336
(dp1337
g1335
I0
sba(igame
Agent
p1338
(dp1339
g1335
I0
sba(igame
Agent
p1340
(dp1341
g1335
I0
sbasS'redTeamName'
p1342
S'Red'
p1343
s.