(dp1
S'layout'
p2
(ilayout
Layout
p3
(dp4
S'capsules'
p5
(lp6
sS'numGhosts'
p7
I4
sS'food'
p8
(igame
Grid
p9
(dp10
S'CELLS_PER_INT'
p11
I30
sS'width'
p12
I38
sS'data'
p13
(lp14
(lp15
I00
aI00
aI00
aI00
aI00
aI00
aI00
aI00
aI00
aI00
aI00
aI00
aI00
aa(lp16
I00
aI00
aI00
aI00
aI00
aI00
aI00
aI00
aI00
aI00
aI00
aI00
aI00
aa(lp17
I00
aI00
aI00
aI00
aI00
aI00
aI00
aI00
aI00
aI00
aI00
aI00
aI00
aa(lp18
I00
aI00
aI00
aI00
aI00
aI00
aI00
aI00
aI00
aI00
aI00
aI00
aI00
aa(lp19
I00
aI00
aI00
aI00
aI00
aI00
aI00
aI00
aI00
aI00
aI00
aI00
aI00
aa(lp20
I00
aI00
aI00
aI01
aI01
aI00
aI00
aI00
aI00
aI00
aI01
aI01
aI00
aa(lp21
I00
aI00
aI00
aI00
aI00
aI00
aI00
aI00
aI00
aI00
aI00
aI00
aI00
aa(lp22
I00
aI00
aI00
aI00
aI00
aI00
aI00
aI00
aI00
aI00
aI00
aI01
aI00
aa(lp23
I00
aI00
aI00
aI00
aI00
aI00
aI00
aI00
aI00
aI00
aI00
aI00
aI00
aa(lp24
I00
aI00
aI00
aI00
aI00
aI00
aI01
aI00
aI00
aI00
aI00
aI01
aI00
aa(lp25
I00
aI00
aI00
aI00
aI00
aI00
aI00
aI00
aI00
aI00
aI00
aI00
aI00
aa(lp26
I00
aI00
aI00
aI00
aI00
aI00
aI00
aI00
aI01
aI00
aI00
aI00
aI00
aa(lp27
I00
aI00
aI00
aI00
aI00
aI00
aI00
aI00
aI00
aI00
aI00
aI00
aI00
aa(lp28
I00
aI01
aI00
aI00
aI00
aI00
aI00
aI00
aI00
aI00
aI00
aI00
aI00
aa(lp29
I00
aI00
aI00
aI00
aI00
aI00
aI00
aI00
aI00
aI00
aI00
aI00
aI00
aa(lp30
I00
aI00
aI00
aI00
aI00
aI01
aI00
aI00
aI01
aI00
aI00
aI01
aI00
aa(lp31
I00
aI00
aI00
aI00
aI00
aI00
aI00
aI00
aI00
aI00
aI00
aI00
aI00
aa(lp32
I00
aI00
aI00
aI00
aI00
aI00
aI00
aI00
aI01
aI00
aI00
aI00
aI00
aa(lp33
I00
aI00
aI00
aI00
aI00
aI00
aI00
aI00
aI00
aI00
aI00
aI00
aI00
aa(lp34
I00
aI00
aI00
aI00
aI00
aI00
aI00
aI00
aI00
aI00
aI00
aI00
aI00
aa(lp35
I00
aI00
aI00
aI00
aI01
aI00
aI00
aI00
aI00
aI00
aI00
aI00
aI00
aa(lp36
I00
aI00
aI00
aI00
aI00
aI00
aI00
aI00
aI00
aI00
aI00
aI00
aI00
aa(lp37
I00
aI01
aI00
aI00
aI01
aI00
aI00
aI01
aI00
aI00
aI00
aI00
aI00
aa(lp38
I00
aI00
aI00
aI00
aI00
aI00
aI00
aI00
aI00
aI00
aI00
aI00
aI00
aa(lp39
I00
aI00
aI00
aI00
aI00
aI00
aI00
aI00
aI00
aI00
aI00
aI01
aI00
aa(lp40
I00
aI00
aI00
aI00
aI00
aI00
aI00
aI00
aI00
aI00
aI00
aI00
aI00
aa(lp41
I00
aI00
aI00
aI00
aI01
aI00
aI00
aI00
aI00
aI00
aI00
aI00
aI00
aa(lp42
I00
aI00
aI00
aI00
aI00
aI00
aI00
aI00
aI00
aI00
aI00
aI00
aI00
aa(lp43
I00
aI01
aI00
aI00
aI00
aI00
aI01
aI00
aI00
aI00
aI00
aI00
aI00
aa(lp44
I00
aI00
aI00
aI00
aI00
aI00
aI00
aI00
aI00
aI00
aI00
aI00
aI00
aa(lp45
I00
aI01
aI00
aI00
aI00
aI00
aI00
aI00
aI00
aI00
aI00
aI00
aI00
aa(lp46
I00
aI00
aI00
aI00
aI00
aI00
aI00
aI00
aI00
aI00
aI00
aI00
aI00
aa(lp47
I00
aI01
aI01
aI00
aI00
aI00
aI00
aI00
aI01
aI01
aI00
aI00
aI00
aa(lp48
I00
aI00
aI00
aI00
aI00
aI00
aI00
aI00
aI00
aI00
aI00
aI00
aI00
aa(lp49
I00
aI00
aI00
aI00
aI00
aI00
aI00
aI00
aI00
aI00
aI00
aI00
aI00
aa(lp50
I00
aI00
aI00
aI00
aI00
aI00
aI00
aI00
aI00
aI00
aI00
aI00
aI00
aa(lp51
I00
aI00
aI00
aI00
aI00
aI00
aI00
aI00
aI00
aI00
aI00
aI00
aI00
aa(lp52
I00
aI00
aI00
aI00
aI00
aI00
aI00
aI00
aI00
aI00
aI00
aI00
aI00
aasS'height'
p53
I13
sbsS'agentPositions'
p54
(lp55
(I00
(I1
I11
tp56
tp57
a(I00
(I36
I1
tp58
tp59
a(I00
(I1
I10
tp60
tp61
a(I00
(I36
I2
tp62
tp63
asg53
I13
sg12
I38
sS'walls'
p64
(igame
Grid
p65
(dp66
g11
I30
sg12
I38
sg13
(lp67
(lp68
I01
aI01
aI01
aI01
aI01
aI01
aI01
aI01
aI01
aI01
aI01
aI01
aI01
aa(lp69
I01
aI00
aI00
aI00
aI00
aI00
aI00
aI00
aI00
aI00
aI00
aI00
aI01
aa(lp70
I01
aI00
aI01
aI01
aI01
aI01
aI01
aI01
aI01
aI01
aI01
aI01
aI01
aa(lp71
I01
aI00
aI00
aI00
aI00
aI00
aI00
aI00
aI00
aI00
aI00
aI00
aI01
aa(lp72
I01
aI01
aI01
aI01
aI01
aI01
aI01
aI01
aI01
aI01
aI01
aI00
aI01
aa(lp73
I01
aI00
aI00
aI00
aI00
aI01
aI00
aI00
aI00
aI00
aI00
aI00
aI01
aa(lp74
I01
aI00
aI01
aI01
aI01
aI01
aI00
aI01
aI01
aI01
aI01
aI01
aI01
aa(lp75
I01
aI00
aI00
aI00
aI00
aI00
aI00
aI00
aI00
aI00
aI00
aI00
aI01
aa(lp76
I01
aI00
aI01
aI01
aI00
aI01
aI01
aI01
aI01
aI00
aI01
aI01
aI01
aa(lp77
I01
aI00
aI00
aI01
aI00
aI01
aI00
aI00
aI00
aI00
aI00
aI00
aI01
aa(lp78
I01
aI01
aI00
aI01
aI00
aI01
aI01
aI01
aI01
aI01
aI00
aI01
aI01
aa(lp79
I01
aI01
aI00
aI01
aI00
aI00
aI00
aI00
aI00
aI01
aI00
aI00
aI01
aa(lp80
I01
aI01
aI00
aI01
aI01
aI00
aI01
aI01
aI01
aI01
aI00
aI00
aI01
aa(lp81
I01
aI00
aI00
aI00
aI00
aI00
aI00
aI00
aI00
aI00
aI00
aI00
aI01
aa(lp82
I01
aI01
aI01
aI00
aI01
aI01
aI01
aI01
aI00
aI01
aI00
aI01
aI01
aa(lp83
I01
aI00
aI00
aI00
aI01
aI00
aI00
aI01
aI00
aI01
aI00
aI00
aI01
aa(lp84
I01
aI00
aI01
aI00
aI01
aI01
aI00
aI01
aI01
aI01
aI00
aI01
aI01
aa(lp85
I01
aI00
aI01
aI00
aI00
aI00
aI00
aI01
aI00
aI00
aI00
aI00
aI01
aa(lp86
I01
aI00
aI01
aI01
aI00
aI00
aI00
aI01
aI01
aI01
aI00
aI00
aI01
aa(lp87
I01
aI00
aI00
aI01
aI01
aI01
aI00
aI00
aI00
aI01
aI01
aI00
aI01
aa(lp88
I01
aI00
aI00
aI00
aI00
aI01
aI00
aI00
aI00
aI00
aI01
aI00
aI01
aa(lp89
I01
aI01
aI00
aI01
aI01
aI01
aI00
aI01
aI01
aI00
aI01
aI00
aI01
aa(lp90
I01
aI00
aI00
aI01
aI00
aI01
aI00
aI00
aI01
aI00
aI00
aI00
aI01
aa(lp91
I01
aI01
aI00
aI01
aI00
aI01
aI01
aI01
aI01
aI00
aI01
aI01
aI01
aa(lp92
I01
aI00
aI00
aI00
aI00
aI00
aI00
aI00
aI00
aI00
aI00
aI00
aI01
aa(lp93
I01
aI00
aI00
aI01
aI01
aI01
aI01
aI00
aI01
aI01
aI00
aI01
aI01
aa(lp94
I01
aI00
aI00
aI01
aI00
aI00
aI00
aI00
aI00
aI01
aI00
aI01
aI01
aa(lp95
I01
aI01
aI00
aI01
aI01
aI01
aI01
aI01
aI00
aI01
aI00
aI01
aI01
aa(lp96
I01
aI00
aI00
aI00
aI00
aI00
aI00
aI01
aI00
aI01
aI00
aI00
aI01
aa(lp97
I01
aI01
aI01
aI00
aI01
aI01
aI01
aI01
aI00
aI01
aI01
aI00
aI01
aa(lp98
I01
aI00
aI00
aI00
aI00
aI00
aI00
aI00
aI00
aI00
aI00
aI00
aI01
aa(lp99
I01
aI01
aI01
aI01
aI01
aI01
aI00
aI01
aI01
aI01
aI01
aI00
aI01
aa(lp100
I01
aI00
aI00
aI00
aI00
aI00
aI00
aI01
aI00
aI00
aI00
aI00
aI01
aa(lp101
I01
aI00
aI01
aI01
aI01
aI01
aI01
aI01
aI01
aI01
aI01
aI01
aI01
aa(lp102
I01
aI00
aI00
aI00
aI00
aI00
aI00
aI00
aI00
aI00
aI00
aI00
aI01
aa(lp103
I01
aI01
aI01
aI01
aI01
aI01
aI01
aI01
aI01
aI01
aI01
aI00
aI01
aa(lp104
I01
aI00
aI00
aI00
aI00
aI00
aI00
aI00
aI00
aI00
aI00
aI00
aI01
aa(lp105
I01
aI01
aI01
aI01
aI01
aI01
aI01
aI01
aI01
aI01
aI01
aI01
aI01
aasg53
I13
sbsS'totalFood'
p106
I26
sS'layoutText'
p107
(lp108
S'%%%%%%%%%%%%%%%%%%%%%%%%%%%%%%%%%%%%%%'
p109
aS'%1%  .%.%.%   %.%      %.%%%     %   %'
p110
aS'%3% %.% %          %%% %     % % % % %'
p111
aS'% % % %   %%% %%% %%     %%%%% %.% % %'
p112
aS'% % % % % %.%  .%.%  %%% %     %.% % %'
p113
aS'% % % % % % % %%%%%  %.%   %%% %%% % %'
p114
aS'% % %   %.% % %        % % %.%   % % %'
p115
aS'% % %%% %%%   %.%  %%%%% % % % % % % %'
p116
aS'% % %.%     % %%%  %.%.  %.% % % % % %'
p117
aS'% % %.% %%%%%     %% %%% %%%   % % % %'
p118
aS'% % % % %     % %%%          % %.% %4%'
p119
aS'%   %     %%%.%      %.%   %.%.%.  %2%'
p120
aS'%%%%%%%%%%%%%%%%%%%%%%%%%%%%%%%%%%%%%%'
p121
asbsS'blueTeamName'
p122
S'Blue'
p123
sS'actions'
p124
(lp125
(I0
S'South'
p126
tp127
a(I1
S'North'
p128
tp129
a(I2
g126
tp130
a(I3
g126
tp131
a(I0
g126
tp132
a(I1
g128
tp133
a(I2
g126
tp134
a(I3
g128
tp135
a(I0
g126
tp136
a(I1
g128
tp137
a(I2
g126
tp138
a(I3
g128
tp139
a(I0
g126
tp140
a(I1
g128
tp141
a(I2
g126
tp142
a(I3
g128
tp143
a(I0
g126
tp144
a(I1
g128
tp145
a(I2
g126
tp146
a(I3
g128
tp147
a(I0
g126
tp148
a(I1
g128
tp149
a(I2
g126
tp150
a(I3
g128
tp151
a(I0
g126
tp152
a(I1
g128
tp153
a(I2
g126
tp154
a(I3
g128
tp155
a(I0
g126
tp156
a(I1
g128
tp157
a(I2
g126
tp158
a(I3
g128
tp159
a(I0
g126
tp160
a(I1
g128
tp161
a(I2
g126
tp162
a(I3
g128
tp163
a(I0
g126
tp164
a(I1
g128
tp165
a(I2
S'East'
p166
tp167
a(I3
g128
tp168
a(I0
g166
tp169
a(I1
S'West'
p170
tp171
a(I2
g166
tp172
a(I3
g128
tp173
a(I0
g166
tp174
a(I1
g170
tp175
a(I2
g128
tp176
a(I3
g170
tp177
a(I0
g128
tp178
a(I1
g126
tp179
a(I2
g128
tp180
a(I3
g170
tp181
a(I0
g128
tp182
a(I1
g126
tp183
a(I2
g128
tp184
a(I3
g126
tp185
a(I0
g128
tp186
a(I1
g126
tp187
a(I2
g128
tp188
a(I3
g126
tp189
a(I0
g128
tp190
a(I1
g126
tp191
a(I2
g128
tp192
a(I3
g126
tp193
a(I0
g128
tp194
a(I1
g126
tp195
a(I2
g128
tp196
a(I3
g126
tp197
a(I0
g128
tp198
a(I1
g126
tp199
a(I2
g128
tp200
a(I3
g126
tp201
a(I0
g128
tp202
a(I1
g126
tp203
a(I2
g128
tp204
a(I3
g126
tp205
a(I0
g128
tp206
a(I1
g126
tp207
a(I2
g128
tp208
a(I3
g126
tp209
a(I0
g128
tp210
a(I1
g126
tp211
a(I2
g128
tp212
a(I3
g126
tp213
a(I0
g128
tp214
a(I1
g126
tp215
a(I2
g166
tp216
a(I3
g126
tp217
a(I0
g166
tp218
a(I1
g170
tp219
a(I2
g166
tp220
a(I3
g126
tp221
a(I0
g166
tp222
a(I1
g170
tp223
a(I2
g126
tp224
a(I3
g170
tp225
a(I0
g126
tp226
a(I1
g128
tp227
a(I2
g126
tp228
a(I3
g170
tp229
a(I0
g126
tp230
a(I1
g128
tp231
a(I2
g126
tp232
a(I3
g128
tp233
a(I0
g126
tp234
a(I1
g128
tp235
a(I2
g126
tp236
a(I3
g128
tp237
a(I0
g126
tp238
a(I1
g128
tp239
a(I2
g126
tp240
a(I3
g128
tp241
a(I0
g126
tp242
a(I1
g128
tp243
a(I2
g166
tp244
a(I3
g128
tp245
a(I0
g166
tp246
a(I1
g170
tp247
a(I2
g166
tp248
a(I3
g128
tp249
a(I0
g166
tp250
a(I1
g170
tp251
a(I2
g126
tp252
a(I3
g170
tp253
a(I0
g128
tp254
a(I1
g128
tp255
a(I2
g126
tp256
a(I3
g170
tp257
a(I0
g128
tp258
a(I1
g128
tp259
a(I2
g166
tp260
a(I3
g128
tp261
a(I0
g128
tp262
a(I1
g170
tp263
a(I2
g166
tp264
a(I3
g128
tp265
a(I0
g166
tp266
a(I1
g170
tp267
a(I2
g166
tp268
a(I3
g170
tp269
a(I0
g166
tp270
a(I1
g170
tp271
a(I2
g166
tp272
a(I3
g170
tp273
a(I0
g128
tp274
a(I1
g170
tp275
a(I2
g128
tp276
a(I3
g170
tp277
a(I0
g166
tp278
a(I1
g126
tp279
a(I2
g166
tp280
a(I3
g170
tp281
a(I0
g166
tp282
a(I1
g170
tp283
a(I2
g166
tp284
a(I3
g126
tp285
a(I0
g166
tp286
a(I1
g170
tp287
a(I2
g126
tp288
a(I3
g170
tp289
a(I0
g166
tp290
a(I1
g128
tp291
a(I2
g126
tp292
a(I3
g170
tp293
a(I0
g166
tp294
a(I1
g128
tp295
a(I2
g166
tp296
a(I3
g126
tp297
a(I0
g166
tp298
a(I1
g170
tp299
a(I2
g166
tp300
a(I3
g126
tp301
a(I0
g166
tp302
a(I1
g170
tp303
a(I2
g166
tp304
a(I3
g126
tp305
a(I0
g166
tp306
a(I1
g128
tp307
a(I2
g166
tp308
a(I3
g170
tp309
a(I0
g166
tp310
a(I1
g126
tp311
a(I2
g128
tp312
a(I3
g170
tp313
a(I0
g128
tp314
a(I1
g128
tp315
a(I2
g166
tp316
a(I3
g166
tp317
a(I0
g170
tp318
a(I1
g128
tp319
a(I2
g128
tp320
a(I3
g166
tp321
a(I0
g126
tp322
a(I1
g170
tp323
a(I2
g128
tp324
a(I3
g128
tp325
a(I0
g126
tp326
a(I1
g170
tp327
a(I2
g166
tp328
a(I3
g128
tp329
a(I0
g126
tp330
a(I1
g170
tp331
a(I2
g166
tp332
a(I3
g128
tp333
a(I0
g128
tp334
a(I1
g166
tp335
a(I2
g166
tp336
a(I3
g128
tp337
a(I0
g126
tp338
a(I1
g170
tp339
a(I2
g166
tp340
a(I3
g128
tp341
a(I0
g128
tp342
a(I1
S'Stop'
p343
tp344
a(I2
g128
tp345
a(I3
g170
tp346
a(I0
g128
tp347
a(I1
g166
tp348
a(I2
g126
tp349
a(I3
g170
tp350
a(I0
g170
tp351
a(I1
g170
tp352
a(I2
g170
tp353
a(I3
g170
tp354
a(I0
g170
tp355
a(I1
g170
tp356
a(I2
g170
tp357
a(I3
g170
tp358
a(I0
g166
tp359
a(I1
g343
tp360
a(I2
g170
tp361
a(I3
g126
tp362
a(I0
g166
tp363
a(I1
g166
tp364
a(I2
g170
tp365
a(I3
g126
tp366
a(I0
g126
tp367
a(I1
g170
tp368
a(I2
g166
tp369
a(I3
g126
tp370
a(I0
g128
tp371
a(I1
g166
tp372
a(I2
g166
tp373
a(I3
g170
tp374
a(I0
g128
tp375
a(I1
g166
tp376
a(I2
g126
tp377
a(I3
g128
tp378
a(I0
g166
tp379
a(I1
g166
tp380
a(I2
g126
tp381
a(I3
g166
tp382
a(I0
g166
tp383
a(I1
g170
tp384
a(I2
g126
tp385
a(I3
g128
tp386
a(I0
g166
tp387
a(I1
g170
tp388
a(I2
g126
tp389
a(I3
g170
tp390
a(I0
g126
tp391
a(I1
g170
tp392
a(I2
g126
tp393
a(I3
g126
tp394
a(I0
g126
tp395
a(I1
g126
tp396
a(I2
g126
tp397
a(I3
g126
tp398
a(I0
g126
tp399
a(I1
g170
tp400
a(I2
g126
tp401
a(I3
g166
tp402
a(I0
g126
tp403
a(I1
g126
tp404
a(I2
g126
tp405
a(I3
g128
tp406
a(I0
g126
tp407
a(I1
g126
tp408
a(I2
g126
tp409
a(I3
g128
tp410
a(I0
g126
tp411
a(I1
g128
tp412
a(I2
g166
tp413
a(I3
g128
tp414
a(I0
g126
tp415
a(I1
g128
tp416
a(I2
g166
tp417
a(I3
g166
tp418
a(I0
g126
tp419
a(I1
g170
tp420
a(I2
g128
tp421
a(I3
g166
tp422
a(I0
g126
tp423
a(I1
g170
tp424
a(I2
g128
tp425
a(I3
g128
tp426
a(I0
g126
tp427
a(I1
g128
tp428
a(I2
g128
tp429
a(I3
g128
tp430
a(I0
g166
tp431
a(I1
g126
tp432
a(I2
g128
tp433
a(I3
g170
tp434
a(I0
g166
tp435
a(I1
g170
tp436
a(I2
g128
tp437
a(I3
g170
tp438
a(I0
g128
tp439
a(I1
g170
tp440
a(I2
g128
tp441
a(I3
g170
tp442
a(I0
g128
tp443
a(I1
g126
tp444
a(I2
g128
tp445
a(I3
g166
tp446
a(I0
g128
tp447
a(I1
g126
tp448
a(I2
g128
tp449
a(I3
g166
tp450
a(I0
g128
tp451
a(I1
g166
tp452
a(I2
g128
tp453
a(I3
g166
tp454
a(I0
g128
tp455
a(I1
g166
tp456
a(I2
g128
tp457
a(I3
g126
tp458
a(I0
g128
tp459
a(I1
g170
tp460
a(I2
g166
tp461
a(I3
g126
tp462
a(I0
g128
tp463
a(I1
g170
tp464
a(I2
g166
tp465
a(I3
g170
tp466
a(I0
g128
tp467
a(I1
g128
tp468
a(I2
g126
tp469
a(I3
g170
tp470
a(I0
g128
tp471
a(I1
g128
tp472
a(I2
g126
tp473
a(I3
g126
tp474
a(I0
g128
tp475
a(I1
g170
tp476
a(I2
g126
tp477
a(I3
g170
tp478
a(I0
g166
tp479
a(I1
g170
tp480
a(I2
g126
tp481
a(I3
g126
tp482
a(I0
g166
tp483
a(I1
g170
tp484
a(I2
g126
tp485
a(I3
g166
tp486
a(I0
g126
tp487
a(I1
g170
tp488
a(I2
g166
tp489
a(I3
g128
tp490
a(I0
g126
tp491
a(I1
g128
tp492
a(I2
g166
tp493
a(I3
g128
tp494
a(I0
g126
tp495
a(I1
g126
tp496
a(I2
g128
tp497
a(I3
g166
tp498
a(I0
g126
tp499
a(I1
g126
tp500
a(I2
g128
tp501
a(I3
g166
tp502
a(I0
g126
tp503
a(I1
g126
tp504
a(I2
g128
tp505
a(I3
g166
tp506
a(I0
g166
tp507
a(I1
g126
tp508
a(I2
g166
tp509
a(I3
g166
tp510
a(I0
g166
tp511
a(I1
g126
tp512
a(I2
g166
tp513
a(I3
g128
tp514
a(I0
g128
tp515
a(I1
g128
tp516
a(I2
g126
tp517
a(I3
g128
tp518
a(I0
g128
tp519
a(I1
g126
tp520
a(I2
g126
tp521
a(I3
g126
tp522
a(I0
g128
tp523
a(I1
g343
tp524
a(I2
g126
tp525
a(I3
g166
tp526
a(I0
g166
tp527
a(I1
g128
tp528
a(I2
g128
tp529
a(I3
g166
tp530
a(I0
g166
tp531
a(I1
g128
tp532
a(I2
g128
tp533
a(I3
g166
tp534
a(I0
g128
tp535
a(I1
g128
tp536
a(I2
g128
tp537
a(I3
g166
tp538
a(I0
g166
tp539
a(I1
g128
tp540
a(I2
g128
tp541
a(I3
g128
tp542
a(I0
g166
tp543
a(I1
g128
tp544
a(I2
g166
tp545
a(I3
g166
tp546
a(I0
g166
tp547
a(I1
g128
tp548
a(I2
g166
tp549
a(I3
g166
tp550
a(I0
g166
tp551
a(I1
g128
tp552
a(I2
g166
tp553
a(I3
g166
tp554
a(I0
g166
tp555
a(I1
g128
tp556
a(I2
g166
tp557
a(I3
g166
tp558
a(I0
g166
tp559
a(I1
g128
tp560
a(I2
g166
tp561
a(I3
g126
tp562
a(I0
g166
tp563
a(I1
g128
tp564
a(I2
g166
tp565
a(I3
g126
tp566
a(I0
g166
tp567
a(I1
g170
tp568
a(I2
g166
tp569
a(I3
g126
tp570
a(I0
g128
tp571
a(I1
g170
tp572
a(I2
g166
tp573
a(I3
g128
tp574
a(I0
g166
tp575
a(I1
g126
tp576
a(I2
g128
tp577
a(I3
g128
tp578
a(I0
g166
tp579
a(I1
g126
tp580
a(I2
g166
tp581
a(I3
g128
tp582
a(I0
g166
tp583
a(I1
g126
tp584
a(I2
g166
tp585
a(I3
g170
tp586
a(I0
g166
tp587
a(I1
g126
tp588
a(I2
g166
tp589
a(I3
g170
tp590
a(I0
g166
tp591
a(I1
g126
tp592
a(I2
g166
tp593
a(I3
g170
tp594
a(I0
g126
tp595
a(I1
g126
tp596
a(I2
g166
tp597
a(I3
g170
tp598
a(I0
g126
tp599
a(I1
g126
tp600
a(I2
g126
tp601
a(I3
g126
tp602
a(I0
g166
tp603
a(I1
g126
tp604
a(I2
g126
tp605
a(I3
g170
tp606
a(I0
g170
tp607
a(I1
g126
tp608
a(I2
g166
tp609
a(I3
g170
tp610
a(I0
g170
tp611
a(I1
g126
tp612
a(I2
g170
tp613
a(I3
g170
tp614
a(I0
g170
tp615
a(I1
g170
tp616
a(I2
g128
tp617
a(I3
g170
tp618
a(I0
g126
tp619
a(I1
g170
tp620
a(I2
g128
tp621
a(I3
g126
tp622
a(I0
g170
tp623
a(I1
g128
tp624
a(I2
g170
tp625
a(I3
g170
tp626
a(I0
g126
tp627
a(I1
g128
tp628
a(I2
g170
tp629
a(I3
g170
tp630
a(I0
g126
tp631
a(I1
g128
tp632
a(I2
g170
tp633
a(I3
g128
tp634
a(I0
g128
tp635
a(I1
g128
tp636
a(I2
g170
tp637
a(I3
g128
tp638
a(I0
g128
tp639
a(I1
g126
tp640
a(I2
g126
tp641
a(I3
g170
tp642
a(I0
g166
tp643
a(I1
g126
tp644
a(I2
g170
tp645
a(I3
g166
tp646
a(I0
g170
tp647
a(I1
g128
tp648
a(I2
g166
tp649
a(I3
g126
tp650
a(I0
g126
tp651
a(I1
g126
tp652
a(I2
g128
tp653
a(I3
g126
tp654
a(I0
g126
tp655
a(I1
g128
tp656
a(I2
g166
tp657
a(I3
g128
tp658
a(I0
g128
tp659
a(I1
g128
tp660
a(I2
g170
tp661
a(I3
g128
tp662
a(I0
g128
tp663
a(I1
g126
tp664
a(I2
g170
tp665
a(I3
g170
tp666
a(I0
g166
tp667
a(I1
g126
tp668
a(I2
g126
tp669
a(I3
g166
tp670
a(I0
g126
tp671
a(I1
g128
tp672
a(I2
g166
tp673
a(I3
g126
tp674
a(I0
g170
tp675
a(I1
g126
tp676
a(I2
g128
tp677
a(I3
g126
tp678
a(I0
g126
tp679
a(I1
g128
tp680
a(I2
g166
tp681
a(I3
g128
tp682
a(I0
g128
tp683
a(I1
g128
tp684
a(I2
g170
tp685
a(I3
g128
tp686
a(I0
g128
tp687
a(I1
g126
tp688
a(I2
g126
tp689
a(I3
g170
tp690
a(I0
g166
tp691
a(I1
g126
tp692
a(I2
g170
tp693
a(I3
g166
tp694
a(I0
g126
tp695
a(I1
g128
tp696
a(I2
g166
tp697
a(I3
g126
tp698
a(I0
g126
tp699
a(I1
g126
tp700
a(I2
g128
tp701
a(I3
g126
tp702
a(I0
g170
tp703
a(I1
g128
tp704
a(I2
g166
tp705
a(I3
g128
tp706
a(I0
g128
tp707
a(I1
g128
tp708
a(I2
g170
tp709
a(I3
g128
tp710
a(I0
g128
tp711
a(I1
g126
tp712
a(I2
g126
tp713
a(I3
g170
tp714
a(I0
g166
tp715
a(I1
g126
tp716
a(I2
g170
tp717
a(I3
g166
tp718
a(I0
g170
tp719
a(I1
g128
tp720
a(I2
g166
tp721
a(I3
g126
tp722
a(I0
g126
tp723
a(I1
g126
tp724
a(I2
g128
tp725
a(I3
g126
tp726
a(I0
g126
tp727
a(I1
g128
tp728
a(I2
g166
tp729
a(I3
g128
tp730
a(I0
g166
tp731
a(I1
g128
tp732
a(I2
g170
tp733
a(I3
g128
tp734
a(I0
g128
tp735
a(I1
g126
tp736
a(I2
g170
tp737
a(I3
g170
tp738
a(I0
g128
tp739
a(I1
g126
tp740
a(I2
g126
tp741
a(I3
g166
tp742
a(I0
g170
tp743
a(I1
g128
tp744
a(I2
g128
tp745
a(I3
g126
tp746
a(I0
g126
tp747
a(I1
g128
tp748
a(I2
g166
tp749
a(I3
g126
tp750
a(I0
g126
tp751
a(I1
g128
tp752
a(I2
g166
tp753
a(I3
g128
tp754
a(I0
g166
tp755
a(I1
g170
tp756
a(I2
g170
tp757
a(I3
g128
tp758
a(I0
g128
tp759
a(I1
g166
tp760
a(I2
g126
tp761
a(I3
g170
tp762
a(I0
g128
tp763
a(I1
g126
tp764
a(I2
g170
tp765
a(I3
g166
tp766
a(I0
g126
tp767
a(I1
g128
tp768
a(I2
g166
tp769
a(I3
g126
tp770
a(I0
g170
tp771
a(I1
g126
tp772
a(I2
g128
tp773
a(I3
g126
tp774
a(I0
g126
tp775
a(I1
g128
tp776
a(I2
g166
tp777
a(I3
g128
tp778
a(I0
g128
tp779
a(I1
g170
tp780
a(I2
g170
tp781
a(I3
g128
tp782
a(I0
g128
tp783
a(I1
g166
tp784
a(I2
g170
tp785
a(I3
g170
tp786
a(I0
g166
tp787
a(I1
g126
tp788
a(I2
g126
tp789
a(I3
g166
tp790
a(I0
g126
tp791
a(I1
g128
tp792
a(I2
g166
tp793
a(I3
g126
tp794
a(I0
g126
tp795
a(I1
g126
tp796
a(I2
g128
tp797
a(I3
g126
tp798
a(I0
g170
tp799
a(I1
g128
tp800
a(I2
g166
tp801
a(I3
g128
tp802
a(I0
g166
tp803
a(I1
g170
tp804
a(I2
g170
tp805
a(I3
g128
tp806
a(I0
g128
tp807
a(I1
g166
tp808
a(I2
g126
tp809
a(I3
g170
tp810
a(I0
g128
tp811
a(I1
g126
tp812
a(I2
g170
tp813
a(I3
g166
tp814
a(I0
g126
tp815
a(I1
g128
tp816
a(I2
g166
tp817
a(I3
g126
tp818
a(I0
g170
tp819
a(I1
g126
tp820
a(I2
g128
tp821
a(I3
g126
tp822
a(I0
g126
tp823
a(I1
g128
tp824
a(I2
g166
tp825
a(I3
g128
tp826
a(I0
g128
tp827
a(I1
g170
tp828
a(I2
g170
tp829
a(I3
g128
tp830
a(I0
g128
tp831
a(I1
g166
tp832
a(I2
g126
tp833
a(I3
g170
tp834
a(I0
g166
tp835
a(I1
g126
tp836
a(I2
g170
tp837
a(I3
g166
tp838
a(I0
g170
tp839
a(I1
g128
tp840
a(I2
g166
tp841
a(I3
g126
tp842
a(I0
g126
tp843
a(I1
g126
tp844
a(I2
g128
tp845
a(I3
g126
tp846
a(I0
g126
tp847
a(I1
g128
tp848
a(I2
g166
tp849
a(I3
g128
tp850
a(I0
g166
tp851
a(I1
g170
tp852
a(I2
g170
tp853
a(I3
g128
tp854
a(I0
g128
tp855
a(I1
g166
tp856
a(I2
g126
tp857
a(I3
g170
tp858
a(I0
g128
tp859
a(I1
g126
tp860
a(I2
g170
tp861
a(I3
g166
tp862
a(I0
g170
tp863
a(I1
g128
tp864
a(I2
g166
tp865
a(I3
g126
tp866
a(I0
g126
tp867
a(I1
g126
tp868
a(I2
g128
tp869
a(I3
g126
tp870
a(I0
g126
tp871
a(I1
g128
tp872
a(I2
g166
tp873
a(I3
g128
tp874
a(I0
g128
tp875
a(I1
g170
tp876
a(I2
g170
tp877
a(I3
g128
tp878
a(I0
g128
tp879
a(I1
g166
tp880
a(I2
g126
tp881
a(I3
g170
tp882
a(I0
g166
tp883
a(I1
g126
tp884
a(I2
g170
tp885
a(I3
g166
tp886
a(I0
g126
tp887
a(I1
g128
tp888
a(I2
g128
tp889
a(I3
g126
tp890
a(I0
g170
tp891
a(I1
g170
tp892
a(I2
g166
tp893
a(I3
g126
tp894
a(I0
g126
tp895
a(I1
g170
tp896
a(I2
g166
tp897
a(I3
g128
tp898
a(I0
g128
tp899
a(I1
g128
tp900
a(I2
g170
tp901
a(I3
g128
tp902
a(I0
g166
tp903
a(I1
g126
tp904
a(I2
g170
tp905
a(I3
g170
tp906
a(I0
g128
tp907
a(I1
g126
tp908
a(I2
g126
tp909
a(I3
g166
tp910
a(I0
g170
tp911
a(I1
g128
tp912
a(I2
g166
tp913
a(I3
g126
tp914
a(I0
g126
tp915
a(I1
g126
tp916
a(I2
g128
tp917
a(I3
g126
tp918
a(I0
g126
tp919
a(I1
g128
tp920
a(I2
g166
tp921
a(I3
g128
tp922
a(I0
g166
tp923
a(I1
g128
tp924
a(I2
g170
tp925
a(I3
g128
tp926
a(I0
g128
tp927
a(I1
g126
tp928
a(I2
g126
tp929
a(I3
g170
tp930
a(I0
g128
tp931
a(I1
g166
tp932
a(I2
g170
tp933
a(I3
g166
tp934
a(I0
g170
tp935
a(I1
g170
tp936
a(I2
g128
tp937
a(I3
g126
tp938
a(I0
g126
tp939
a(I1
g128
tp940
a(I2
g166
tp941
a(I3
g126
tp942
a(I0
g126
tp943
a(I1
g128
tp944
a(I2
g166
tp945
a(I3
g128
tp946
a(I0
g128
tp947
a(I1
g170
tp948
a(I2
g170
tp949
a(I3
g128
tp950
a(I0
g128
tp951
a(I1
g166
tp952
a(I2
g126
tp953
a(I3
g170
tp954
a(I0
g166
tp955
a(I1
g128
tp956
a(I2
g170
tp957
a(I3
g166
tp958
a(I0
g170
tp959
a(I1
g128
tp960
a(I2
g128
tp961
a(I3
g126
tp962
a(I0
g126
tp963
a(I1
g128
tp964
a(I2
g166
tp965
a(I3
g126
tp966
a(I0
g126
tp967
a(I1
g170
tp968
a(I2
g166
tp969
a(I3
g128
tp970
a(I0
g166
tp971
a(I1
g170
tp972
a(I2
g170
tp973
a(I3
g128
tp974
a(I0
g128
tp975
a(I1
g166
tp976
a(I2
g126
tp977
a(I3
g170
tp978
a(I0
g128
tp979
a(I1
g166
tp980
a(I2
g170
tp981
a(I3
g166
tp982
a(I0
g170
tp983
a(I1
g170
tp984
a(I2
g128
tp985
a(I3
g126
tp986
a(I0
g126
tp987
a(I1
g170
tp988
a(I2
g166
tp989
a(I3
g126
tp990
a(I0
g126
tp991
a(I1
g126
tp992
a(I2
g166
tp993
a(I3
g128
tp994
a(I0
g166
tp995
a(I1
g170
tp996
a(I2
g170
tp997
a(I3
g128
tp998
a(I0
g128
tp999
a(I1
g166
tp1000
a(I2
g170
tp1001
a(I3
g170
tp1002
a(I0
g128
tp1003
a(I1
g128
tp1004
a(I2
g126
tp1005
a(I3
g166
tp1006
a(I0
g126
tp1007
a(I1
g126
tp1008
a(I2
g166
tp1009
a(I3
g126
tp1010
a(I0
g126
tp1011
a(I1
g128
tp1012
a(I2
g128
tp1013
a(I3
g126
tp1014
a(I0
g170
tp1015
a(I1
g126
tp1016
a(I2
g166
tp1017
a(I3
g128
tp1018
a(I0
g128
tp1019
a(I1
g170
tp1020
a(I2
g170
tp1021
a(I3
g128
tp1022
a(I0
g128
tp1023
a(I1
g166
tp1024
a(I2
g126
tp1025
a(I3
g170
tp1026
a(I0
g166
tp1027
a(I1
g128
tp1028
a(I2
g170
tp1029
a(I3
g166
tp1030
a(I0
g170
tp1031
a(I1
g126
tp1032
a(I2
g128
tp1033
a(I3
g126
tp1034
a(I0
g126
tp1035
a(I1
g170
tp1036
a(I2
g166
tp1037
a(I3
g126
tp1038
a(I0
g126
tp1039
a(I1
g170
tp1040
a(I2
g166
tp1041
a(I3
g128
tp1042
a(I0
g128
tp1043
a(I1
g170
tp1044
a(I2
g170
tp1045
a(I3
g128
tp1046
a(I0
g166
tp1047
a(I1
g166
tp1048
a(I2
g170
tp1049
a(I3
g170
tp1050
a(I0
g128
tp1051
a(I1
g166
tp1052
a(I2
g126
tp1053
a(I3
g166
tp1054
a(I0
g126
tp1055
a(I1
g170
tp1056
a(I2
g128
tp1057
a(I3
g126
tp1058
a(I0
g126
tp1059
a(I1
g170
tp1060
a(I2
g166
tp1061
a(I3
g126
tp1062
a(I0
g166
tp1063
a(I1
g170
tp1064
a(I2
g166
tp1065
a(I3
g128
tp1066
a(I0
g170
tp1067
a(I1
g126
tp1068
a(I2
g170
tp1069
a(I3
g128
tp1070
a(I0
g128
tp1071
a(I1
g126
tp1072
a(I2
g170
tp1073
a(I3
g126
tp1074
a(I0
g170
tp1075
a(I1
g128
tp1076
a(I2
g166
tp1077
a(I3
g126
tp1078
a(I0
g126
tp1079
a(I1
g170
tp1080
a(I2
g166
tp1081
a(I3
g128
tp1082
a(I0
g166
tp1083
a(I1
g170
tp1084
a(I2
g170
tp1085
a(I3
g126
tp1086
a(I0
g166
tp1087
a(I1
g170
tp1088
a(I2
g166
tp1089
a(I3
g128
tp1090
a(I0
g166
tp1091
a(I1
g170
tp1092
a(I2
g170
tp1093
a(I3
g126
tp1094
a(I0
g128
tp1095
a(I1
g126
tp1096
a(I2
g166
tp1097
a(I3
g128
tp1098
a(I0
g126
tp1099
a(I1
g126
tp1100
a(I2
g170
tp1101
a(I3
g126
tp1102
a(I0
g128
tp1103
a(I1
g170
tp1104
a(I2
g166
tp1105
a(I3
g128
tp1106
a(I0
g126
tp1107
a(I1
g126
tp1108
a(I2
g170
tp1109
a(I3
g126
tp1110
a(I0
g128
tp1111
a(I1
g170
tp1112
a(I2
g126
tp1113
a(I3
g170
tp1114
a(I0
g126
tp1115
a(I1
g170
tp1116
a(I2
g170
tp1117
a(I3
g170
tp1118
a(I0
g170
tp1119
a(I1
g170
tp1120
a(I2
g128
tp1121
a(I3
g126
tp1122
a(I0
g170
tp1123
a(I1
g170
tp1124
a(I2
g166
tp1125
a(I3
g126
tp1126
a(I0
g170
tp1127
a(I1
g126
tp1128
a(I2
g126
tp1129
a(I3
g126
tp1130
a(I0
g170
tp1131
a(I1
g343
tp1132
a(I2
g170
tp1133
a(I3
g166
tp1134
a(I0
g170
tp1135
a(I1
g343
tp1136
a(I2
g128
tp1137
a(I3
g166
tp1138
a(I0
g170
tp1139
a(I1
g343
tp1140
a(I2
g166
tp1141
a(I3
g128
tp1142
a(I0
g170
tp1143
a(I1
g128
tp1144
a(I2
g166
tp1145
a(I3
g126
tp1146
a(I0
g166
tp1147
a(I1
g128
tp1148
a(I2
g166
tp1149
a(I3
g170
tp1150
a(I0
g170
tp1151
a(I1
g128
tp1152
a(I2
g166
tp1153
a(I3
g170
tp1154
a(I0
g126
tp1155
a(I1
g128
tp1156
a(I2
g166
tp1157
a(I3
g128
tp1158
a(I0
g128
tp1159
a(I1
g128
tp1160
a(I2
g126
tp1161
a(I3
g128
tp1162
a(I0
g166
tp1163
a(I1
g128
tp1164
a(I2
g128
tp1165
a(I3
g128
tp1166
a(I0
g166
tp1167
a(I1
g128
tp1168
a(I2
g170
tp1169
a(I3
g166
tp1170
a(I0
g166
tp1171
a(I1
g128
tp1172
a(I2
g170
tp1173
a(I3
g166
tp1174
a(I0
g166
tp1175
a(I1
g128
tp1176
a(I2
g170
tp1177
a(I3
g128
tp1178
a(I0
g128
tp1179
a(I1
g128
tp1180
a(I2
g170
tp1181
a(I3
g128
tp1182
a(I0
g166
tp1183
a(I1
g126
tp1184
a(I2
g126
tp1185
a(I3
g170
tp1186
a(I0
g128
tp1187
a(I1
g126
tp1188
a(I2
g170
tp1189
a(I3
g166
tp1190
a(I0
g126
tp1191
a(I1
g128
tp1192
a(I2
g166
tp1193
a(I3
g126
tp1194
a(I0
g170
tp1195
a(I1
g126
tp1196
a(I2
g128
tp1197
a(I3
g126
tp1198
a(I0
g126
tp1199
a(I1
g128
tp1200
a(I2
g166
tp1201
a(I3
g128
tp1202
a(I0
g128
tp1203
a(I1
g128
tp1204
a(I2
g170
tp1205
a(I3
g128
tp1206
a(I0
g128
tp1207
a(I1
g126
tp1208
a(I2
g170
tp1209
a(I3
g170
tp1210
a(I0
g166
tp1211
a(I1
g126
tp1212
a(I2
g126
tp1213
a(I3
g166
tp1214
a(I0
g126
tp1215
a(I1
g128
tp1216
a(I2
g166
tp1217
a(I3
g126
tp1218
a(I0
g170
tp1219
a(I1
g126
tp1220
a(I2
g128
tp1221
a(I3
g126
tp1222
a(I0
g126
tp1223
a(I1
g128
tp1224
a(I2
g166
tp1225
a(I3
g128
tp1226
a(I0
g128
tp1227
a(I1
g128
tp1228
a(I2
g170
tp1229
a(I3
g128
tp1230
a(I0
g166
tp1231
a(I1
g126
tp1232
a(I2
g170
tp1233
a(I3
g170
tp1234
a(I0
g128
tp1235
a(I1
g126
tp1236
a(I2
g126
tp1237
a(I3
g166
tp1238
a(I0
g170
tp1239
a(I1
g128
tp1240
a(I2
g166
tp1241
a(I3
g126
tp1242
a(I0
g126
tp1243
a(I1
g126
tp1244
a(I2
g128
tp1245
a(I3
g126
tp1246
a(I0
g126
tp1247
a(I1
g128
tp1248
a(I2
g166
tp1249
a(I3
g128
tp1250
a(I0
g128
tp1251
a(I1
g128
tp1252
a(I2
g170
tp1253
a(I3
g128
tp1254
a(I0
g166
tp1255
a(I1
g126
tp1256
a(I2
g126
tp1257
a(I3
g170
tp1258
a(I0
g128
tp1259
a(I1
g126
tp1260
a(I2
g170
tp1261
a(I3
g166
tp1262
a(I0
g126
tp1263
a(I1
g128
tp1264
a(I2
g128
tp1265
a(I3
g126
tp1266
a(I0
g126
tp1267
a(I1
g128
tp1268
a(I2
g166
tp1269
a(I3
g126
tp1270
a(I0
g170
tp1271
a(I1
g128
tp1272
a(I2
g166
tp1273
a(I3
g128
tp1274
a(I0
g166
tp1275
a(I1
g170
tp1276
a(I2
g170
tp1277
a(I3
g128
tp1278
a(I0
g128
tp1279
a(I1
g166
tp1280
a(I2
g126
tp1281
a(I3
g170
tp1282
a(I0
g128
tp1283
a(I1
g126
tp1284
a(I2
g170
tp1285
a(I3
g166
tp1286
a(I0
g126
tp1287
a(I1
g128
tp1288
a(I2
g128
tp1289
a(I3
g126
tp1290
a(I0
g126
tp1291
a(I1
g170
tp1292
a(I2
g166
tp1293
a(I3
g126
tp1294
a(I0
g166
tp1295
a(I1
g170
tp1296
a(I2
g166
tp1297
a(I3
g128
tp1298
a(I0
g170
tp1299
a(I1
g126
tp1300
a(I2
g170
tp1301
a(I3
g128
tp1302
a(I0
g128
tp1303
a(I1
g128
tp1304
a(I2
g126
tp1305
a(I3
g170
tp1306
a(I0
g128
tp1307
a(I1
g166
tp1308
a(I2
g170
tp1309
a(I3
g166
tp1310
a(I0
g126
tp1311
a(I1
g170
tp1312
a(I2
g166
tp1313
a(I3
g126
tp1314
a(I0
g126
tp1315
a(I1
g166
tp1316
a(I2
g128
tp1317
a(I3
g126
tp1318
a(I0
g166
tp1319
a(I1
g170
tp1320
a(I2
g166
tp1321
a(I3
g128
tp1322
a(I0
g170
tp1323
a(I1
g126
tp1324
a(I2
g170
tp1325
a(I3
g128
tp1326
a(I0
g128
tp1327
a(I1
g128
tp1328
a(I2
g126
tp1329
a(I3
g170
tp1330
asS'length'
p1331
I1200
sS'agents'
p1332
(lp1333
(igame
Agent
p1334
(dp1335
S'index'
p1336
I0
sba(igame
Agent
p1337
(dp1338
g1336
I0
sba(igame
Agent
p1339
(dp1340
g1336
I0
sba(igame
Agent
p1341
(dp1342
g1336
I0
sbasS'redTeamName'
p1343
S'Red'
p1344
s.