(dp1
S'layout'
p2
(ilayout
Layout
p3
(dp4
S'capsules'
p5
(lp6
sS'numGhosts'
p7
I4
sS'food'
p8
(igame
Grid
p9
(dp10
S'CELLS_PER_INT'
p11
I30
sS'width'
p12
I38
sS'data'
p13
(lp14
(lp15
I00
aI00
aI00
aI00
aI00
aI00
aI00
aI00
aI00
aI00
aI00
aI00
aI00
aa(lp16
I00
aI00
aI00
aI00
aI00
aI00
aI00
aI00
aI00
aI00
aI00
aI00
aI00
aa(lp17
I00
aI00
aI00
aI00
aI00
aI00
aI00
aI00
aI00
aI00
aI00
aI00
aI00
aa(lp18
I00
aI00
aI00
aI00
aI00
aI00
aI00
aI00
aI00
aI00
aI00
aI00
aI00
aa(lp19
I00
aI00
aI00
aI00
aI00
aI00
aI00
aI00
aI00
aI00
aI00
aI00
aI00
aa(lp20
I00
aI00
aI00
aI01
aI01
aI00
aI00
aI00
aI00
aI00
aI01
aI01
aI00
aa(lp21
I00
aI00
aI00
aI00
aI00
aI00
aI00
aI00
aI00
aI00
aI00
aI00
aI00
aa(lp22
I00
aI00
aI00
aI00
aI00
aI00
aI00
aI00
aI00
aI00
aI00
aI01
aI00
aa(lp23
I00
aI00
aI00
aI00
aI00
aI00
aI00
aI00
aI00
aI00
aI00
aI00
aI00
aa(lp24
I00
aI00
aI00
aI00
aI00
aI00
aI01
aI00
aI00
aI00
aI00
aI01
aI00
aa(lp25
I00
aI00
aI00
aI00
aI00
aI00
aI00
aI00
aI00
aI00
aI00
aI00
aI00
aa(lp26
I00
aI00
aI00
aI00
aI00
aI00
aI00
aI00
aI01
aI00
aI00
aI00
aI00
aa(lp27
I00
aI00
aI00
aI00
aI00
aI00
aI00
aI00
aI00
aI00
aI00
aI00
aI00
aa(lp28
I00
aI01
aI00
aI00
aI00
aI00
aI00
aI00
aI00
aI00
aI00
aI00
aI00
aa(lp29
I00
aI00
aI00
aI00
aI00
aI00
aI00
aI00
aI00
aI00
aI00
aI00
aI00
aa(lp30
I00
aI00
aI00
aI00
aI00
aI01
aI00
aI00
aI01
aI00
aI00
aI01
aI00
aa(lp31
I00
aI00
aI00
aI00
aI00
aI00
aI00
aI00
aI00
aI00
aI00
aI00
aI00
aa(lp32
I00
aI00
aI00
aI00
aI00
aI00
aI00
aI00
aI01
aI00
aI00
aI00
aI00
aa(lp33
I00
aI00
aI00
aI00
aI00
aI00
aI00
aI00
aI00
aI00
aI00
aI00
aI00
aa(lp34
I00
aI00
aI00
aI00
aI00
aI00
aI00
aI00
aI00
aI00
aI00
aI00
aI00
aa(lp35
I00
aI00
aI00
aI00
aI01
aI00
aI00
aI00
aI00
aI00
aI00
aI00
aI00
aa(lp36
I00
aI00
aI00
aI00
aI00
aI00
aI00
aI00
aI00
aI00
aI00
aI00
aI00
aa(lp37
I00
aI01
aI00
aI00
aI01
aI00
aI00
aI01
aI00
aI00
aI00
aI00
aI00
aa(lp38
I00
aI00
aI00
aI00
aI00
aI00
aI00
aI00
aI00
aI00
aI00
aI00
aI00
aa(lp39
I00
aI00
aI00
aI00
aI00
aI00
aI00
aI00
aI00
aI00
aI00
aI01
aI00
aa(lp40
I00
aI00
aI00
aI00
aI00
aI00
aI00
aI00
aI00
aI00
aI00
aI00
aI00
aa(lp41
I00
aI00
aI00
aI00
aI01
aI00
aI00
aI00
aI00
aI00
aI00
aI00
aI00
aa(lp42
I00
aI00
aI00
aI00
aI00
aI00
aI00
aI00
aI00
aI00
aI00
aI00
aI00
aa(lp43
I00
aI01
aI00
aI00
aI00
aI00
aI01
aI00
aI00
aI00
aI00
aI00
aI00
aa(lp44
I00
aI00
aI00
aI00
aI00
aI00
aI00
aI00
aI00
aI00
aI00
aI00
aI00
aa(lp45
I00
aI01
aI00
aI00
aI00
aI00
aI00
aI00
aI00
aI00
aI00
aI00
aI00
aa(lp46
I00
aI00
aI00
aI00
aI00
aI00
aI00
aI00
aI00
aI00
aI00
aI00
aI00
aa(lp47
I00
aI01
aI01
aI00
aI00
aI00
aI00
aI00
aI01
aI01
aI00
aI00
aI00
aa(lp48
I00
aI00
aI00
aI00
aI00
aI00
aI00
aI00
aI00
aI00
aI00
aI00
aI00
aa(lp49
I00
aI00
aI00
aI00
aI00
aI00
aI00
aI00
aI00
aI00
aI00
aI00
aI00
aa(lp50
I00
aI00
aI00
aI00
aI00
aI00
aI00
aI00
aI00
aI00
aI00
aI00
aI00
aa(lp51
I00
aI00
aI00
aI00
aI00
aI00
aI00
aI00
aI00
aI00
aI00
aI00
aI00
aa(lp52
I00
aI00
aI00
aI00
aI00
aI00
aI00
aI00
aI00
aI00
aI00
aI00
aI00
aasS'height'
p53
I13
sbsS'agentPositions'
p54
(lp55
(I00
(I1
I11
tp56
tp57
a(I00
(I36
I1
tp58
tp59
a(I00
(I1
I10
tp60
tp61
a(I00
(I36
I2
tp62
tp63
asg53
I13
sg12
I38
sS'walls'
p64
(igame
Grid
p65
(dp66
g11
I30
sg12
I38
sg13
(lp67
(lp68
I01
aI01
aI01
aI01
aI01
aI01
aI01
aI01
aI01
aI01
aI01
aI01
aI01
aa(lp69
I01
aI00
aI00
aI00
aI00
aI00
aI00
aI00
aI00
aI00
aI00
aI00
aI01
aa(lp70
I01
aI00
aI01
aI01
aI01
aI01
aI01
aI01
aI01
aI01
aI01
aI01
aI01
aa(lp71
I01
aI00
aI00
aI00
aI00
aI00
aI00
aI00
aI00
aI00
aI00
aI00
aI01
aa(lp72
I01
aI01
aI01
aI01
aI01
aI01
aI01
aI01
aI01
aI01
aI01
aI00
aI01
aa(lp73
I01
aI00
aI00
aI00
aI00
aI01
aI00
aI00
aI00
aI00
aI00
aI00
aI01
aa(lp74
I01
aI00
aI01
aI01
aI01
aI01
aI00
aI01
aI01
aI01
aI01
aI01
aI01
aa(lp75
I01
aI00
aI00
aI00
aI00
aI00
aI00
aI00
aI00
aI00
aI00
aI00
aI01
aa(lp76
I01
aI00
aI01
aI01
aI00
aI01
aI01
aI01
aI01
aI00
aI01
aI01
aI01
aa(lp77
I01
aI00
aI00
aI01
aI00
aI01
aI00
aI00
aI00
aI00
aI00
aI00
aI01
aa(lp78
I01
aI01
aI00
aI01
aI00
aI01
aI01
aI01
aI01
aI01
aI00
aI01
aI01
aa(lp79
I01
aI01
aI00
aI01
aI00
aI00
aI00
aI00
aI00
aI01
aI00
aI00
aI01
aa(lp80
I01
aI01
aI00
aI01
aI01
aI00
aI01
aI01
aI01
aI01
aI00
aI00
aI01
aa(lp81
I01
aI00
aI00
aI00
aI00
aI00
aI00
aI00
aI00
aI00
aI00
aI00
aI01
aa(lp82
I01
aI01
aI01
aI00
aI01
aI01
aI01
aI01
aI00
aI01
aI00
aI01
aI01
aa(lp83
I01
aI00
aI00
aI00
aI01
aI00
aI00
aI01
aI00
aI01
aI00
aI00
aI01
aa(lp84
I01
aI00
aI01
aI00
aI01
aI01
aI00
aI01
aI01
aI01
aI00
aI01
aI01
aa(lp85
I01
aI00
aI01
aI00
aI00
aI00
aI00
aI01
aI00
aI00
aI00
aI00
aI01
aa(lp86
I01
aI00
aI01
aI01
aI00
aI00
aI00
aI01
aI01
aI01
aI00
aI00
aI01
aa(lp87
I01
aI00
aI00
aI01
aI01
aI01
aI00
aI00
aI00
aI01
aI01
aI00
aI01
aa(lp88
I01
aI00
aI00
aI00
aI00
aI01
aI00
aI00
aI00
aI00
aI01
aI00
aI01
aa(lp89
I01
aI01
aI00
aI01
aI01
aI01
aI00
aI01
aI01
aI00
aI01
aI00
aI01
aa(lp90
I01
aI00
aI00
aI01
aI00
aI01
aI00
aI00
aI01
aI00
aI00
aI00
aI01
aa(lp91
I01
aI01
aI00
aI01
aI00
aI01
aI01
aI01
aI01
aI00
aI01
aI01
aI01
aa(lp92
I01
aI00
aI00
aI00
aI00
aI00
aI00
aI00
aI00
aI00
aI00
aI00
aI01
aa(lp93
I01
aI00
aI00
aI01
aI01
aI01
aI01
aI00
aI01
aI01
aI00
aI01
aI01
aa(lp94
I01
aI00
aI00
aI01
aI00
aI00
aI00
aI00
aI00
aI01
aI00
aI01
aI01
aa(lp95
I01
aI01
aI00
aI01
aI01
aI01
aI01
aI01
aI00
aI01
aI00
aI01
aI01
aa(lp96
I01
aI00
aI00
aI00
aI00
aI00
aI00
aI01
aI00
aI01
aI00
aI00
aI01
aa(lp97
I01
aI01
aI01
aI00
aI01
aI01
aI01
aI01
aI00
aI01
aI01
aI00
aI01
aa(lp98
I01
aI00
aI00
aI00
aI00
aI00
aI00
aI00
aI00
aI00
aI00
aI00
aI01
aa(lp99
I01
aI01
aI01
aI01
aI01
aI01
aI00
aI01
aI01
aI01
aI01
aI00
aI01
aa(lp100
I01
aI00
aI00
aI00
aI00
aI00
aI00
aI01
aI00
aI00
aI00
aI00
aI01
aa(lp101
I01
aI00
aI01
aI01
aI01
aI01
aI01
aI01
aI01
aI01
aI01
aI01
aI01
aa(lp102
I01
aI00
aI00
aI00
aI00
aI00
aI00
aI00
aI00
aI00
aI00
aI00
aI01
aa(lp103
I01
aI01
aI01
aI01
aI01
aI01
aI01
aI01
aI01
aI01
aI01
aI00
aI01
aa(lp104
I01
aI00
aI00
aI00
aI00
aI00
aI00
aI00
aI00
aI00
aI00
aI00
aI01
aa(lp105
I01
aI01
aI01
aI01
aI01
aI01
aI01
aI01
aI01
aI01
aI01
aI01
aI01
aasg53
I13
sbsS'totalFood'
p106
I26
sS'layoutText'
p107
(lp108
S'%%%%%%%%%%%%%%%%%%%%%%%%%%%%%%%%%%%%%%'
p109
aS'%1%  .%.%.%   %.%      %.%%%     %   %'
p110
aS'%3% %.% %          %%% %     % % % % %'
p111
aS'% % % %   %%% %%% %%     %%%%% %.% % %'
p112
aS'% % % % % %.%  .%.%  %%% %     %.% % %'
p113
aS'% % % % % % % %%%%%  %.%   %%% %%% % %'
p114
aS'% % %   %.% % %        % % %.%   % % %'
p115
aS'% % %%% %%%   %.%  %%%%% % % % % % % %'
p116
aS'% % %.%     % %%%  %.%.  %.% % % % % %'
p117
aS'% % %.% %%%%%     %% %%% %%%   % % % %'
p118
aS'% % % % %     % %%%          % %.% %4%'
p119
aS'%   %     %%%.%      %.%   %.%.%.  %2%'
p120
aS'%%%%%%%%%%%%%%%%%%%%%%%%%%%%%%%%%%%%%%'
p121
asbsS'blueTeamName'
p122
S'Blue'
p123
sS'actions'
p124
(lp125
(I1
S'North'
p126
tp127
a(I2
S'South'
p128
tp129
a(I3
g126
tp130
a(I0
g128
tp131
a(I1
g126
tp132
a(I2
g128
tp133
a(I3
g126
tp134
a(I0
g128
tp135
a(I1
g126
tp136
a(I2
g128
tp137
a(I3
g126
tp138
a(I0
g128
tp139
a(I1
g126
tp140
a(I2
g128
tp141
a(I3
g126
tp142
a(I0
g128
tp143
a(I1
g126
tp144
a(I2
g128
tp145
a(I3
g126
tp146
a(I0
g128
tp147
a(I1
g126
tp148
a(I2
g128
tp149
a(I3
g126
tp150
a(I0
g128
tp151
a(I1
g126
tp152
a(I2
g128
tp153
a(I3
g126
tp154
a(I0
g128
tp155
a(I1
g126
tp156
a(I2
g128
tp157
a(I3
g126
tp158
a(I0
g128
tp159
a(I1
g126
tp160
a(I2
g128
tp161
a(I3
g126
tp162
a(I0
g128
tp163
a(I1
g126
tp164
a(I2
S'East'
p165
tp166
a(I3
S'West'
p167
tp168
a(I0
g128
tp169
a(I1
g167
tp170
a(I2
g165
tp171
a(I3
g167
tp172
a(I0
g165
tp173
a(I1
g167
tp174
a(I2
g126
tp175
a(I3
g128
tp176
a(I0
g165
tp177
a(I1
g128
tp178
a(I2
g126
tp179
a(I3
g128
tp180
a(I0
g126
tp181
a(I1
g128
tp182
a(I2
g126
tp183
a(I3
g128
tp184
a(I0
g126
tp185
a(I1
g128
tp186
a(I2
g126
tp187
a(I3
g128
tp188
a(I0
g126
tp189
a(I1
g128
tp190
a(I2
g126
tp191
a(I3
g128
tp192
a(I0
g126
tp193
a(I1
g128
tp194
a(I2
g126
tp195
a(I3
g128
tp196
a(I0
g126
tp197
a(I1
g128
tp198
a(I2
g126
tp199
a(I3
g128
tp200
a(I0
g126
tp201
a(I1
g128
tp202
a(I2
g126
tp203
a(I3
g128
tp204
a(I0
g126
tp205
a(I1
g128
tp206
a(I2
g126
tp207
a(I3
g128
tp208
a(I0
g126
tp209
a(I1
g128
tp210
a(I2
g126
tp211
a(I3
g128
tp212
a(I0
g126
tp213
a(I1
g128
tp214
a(I2
g165
tp215
a(I3
g167
tp216
a(I0
g126
tp217
a(I1
g167
tp218
a(I2
g165
tp219
a(I3
g167
tp220
a(I0
g165
tp221
a(I1
g167
tp222
a(I2
g128
tp223
a(I3
g126
tp224
a(I0
g165
tp225
a(I1
g126
tp226
a(I2
g128
tp227
a(I3
g126
tp228
a(I0
g128
tp229
a(I1
g126
tp230
a(I2
g128
tp231
a(I3
g126
tp232
a(I0
g128
tp233
a(I1
g126
tp234
a(I2
g128
tp235
a(I3
g126
tp236
a(I0
g128
tp237
a(I1
g126
tp238
a(I2
g128
tp239
a(I3
g126
tp240
a(I0
g128
tp241
a(I1
g126
tp242
a(I2
g165
tp243
a(I3
g167
tp244
a(I0
g128
tp245
a(I1
g167
tp246
a(I2
g165
tp247
a(I3
g167
tp248
a(I0
g165
tp249
a(I1
g167
tp250
a(I2
g128
tp251
a(I3
g128
tp252
a(I0
g165
tp253
a(I1
g126
tp254
a(I2
g128
tp255
a(I3
g128
tp256
a(I0
g128
tp257
a(I1
g126
tp258
a(I2
g165
tp259
a(I3
g128
tp260
a(I0
g128
tp261
a(I1
g167
tp262
a(I2
g165
tp263
a(I3
g167
tp264
a(I0
g165
tp265
a(I1
g167
tp266
a(I2
g165
tp267
a(I3
g167
tp268
a(I0
g165
tp269
a(I1
g167
tp270
a(I2
g165
tp271
a(I3
g128
tp272
a(I0
g165
tp273
a(I1
g167
tp274
a(I2
g126
tp275
a(I3
g167
tp276
a(I0
g165
tp277
a(I1
g128
tp278
a(I2
g165
tp279
a(I3
g167
tp280
a(I0
g126
tp281
a(I1
g167
tp282
a(I2
g165
tp283
a(I3
g167
tp284
a(I0
g165
tp285
a(I1
g167
tp286
a(I2
g128
tp287
a(I3
g167
tp288
a(I0
g165
tp289
a(I1
g126
tp290
a(I2
g128
tp291
a(I3
g167
tp292
a(I0
g128
tp293
a(I1
g126
tp294
a(I2
g165
tp295
a(I3
g167
tp296
a(I0
g128
tp297
a(I1
g167
tp298
a(I2
g165
tp299
a(I3
g167
tp300
a(I0
g165
tp301
a(I1
g167
tp302
a(I2
g165
tp303
a(I3
g167
tp304
a(I0
g165
tp305
a(I1
g167
tp306
a(I2
g165
tp307
a(I3
g167
tp308
a(I0
g165
tp309
a(I1
g167
tp310
a(I2
g126
tp311
a(I3
g128
tp312
a(I0
g165
tp313
a(I1
g128
tp314
a(I2
g165
tp315
a(I3
g167
tp316
a(I0
g167
tp317
a(I1
g167
tp318
a(I2
g167
tp319
a(I3
g167
tp320
a(I0
g167
tp321
a(I1
g128
tp322
a(I2
g128
tp323
a(I3
g165
tp324
a(I0
g128
tp325
a(I1
g128
tp326
a(I2
g167
tp327
a(I3
g165
tp328
a(I0
g128
tp329
a(I1
g167
tp330
a(I2
g165
tp331
a(I3
g165
tp332
a(I0
g126
tp333
a(I1
g165
tp334
a(I2
g126
tp335
a(I3
g167
tp336
a(I0
g126
tp337
a(I1
g126
tp338
a(I2
g126
tp339
a(I3
g167
tp340
a(I0
g128
tp341
a(I1
g126
tp342
a(I2
g128
tp343
a(I3
g165
tp344
a(I0
g128
tp345
a(I1
g128
tp346
a(I2
g165
tp347
a(I3
g165
tp348
a(I0
g165
tp349
a(I1
g128
tp350
a(I2
g126
tp351
a(I3
g126
tp352
a(I0
g165
tp353
a(I1
g167
tp354
a(I2
g126
tp355
a(I3
g167
tp356
a(I0
g167
tp357
a(I1
g126
tp358
a(I2
g128
tp359
a(I3
g128
tp360
a(I0
g167
tp361
a(I1
g126
tp362
a(I2
g128
tp363
a(I3
g165
tp364
a(I0
g126
tp365
a(I1
g126
tp366
a(I2
g126
tp367
a(I3
g167
tp368
a(I0
g126
tp369
a(I1
g126
tp370
a(I2
g126
tp371
a(I3
g167
tp372
a(I0
g128
tp373
a(I1
g126
tp374
a(I2
g167
tp375
a(I3
g165
tp376
a(I0
g128
tp377
a(I1
g126
tp378
a(I2
g165
tp379
a(I3
g165
tp380
a(I0
g165
tp381
a(I1
g126
tp382
a(I2
g128
tp383
a(I3
g126
tp384
a(I0
g165
tp385
a(I1
g126
tp386
a(I2
g128
tp387
a(I3
g126
tp388
a(I0
g165
tp389
a(I1
g126
tp390
a(I2
g126
tp391
a(I3
g126
tp392
a(I0
g165
tp393
a(I1
g126
tp394
a(I2
g126
tp395
a(I3
g128
tp396
a(I0
g167
tp397
a(I1
g167
tp398
a(I2
g167
tp399
a(I3
g128
tp400
a(I0
g167
tp401
a(I1
g167
tp402
a(I2
g128
tp403
a(I3
g128
tp404
a(I0
g167
tp405
a(I1
g128
tp406
a(I2
g165
tp407
a(I3
g167
tp408
a(I0
g167
tp409
a(I1
g128
tp410
a(I2
g128
tp411
a(I3
g126
tp412
a(I0
g126
tp413
a(I1
g128
tp414
a(I2
g126
tp415
a(I3
g128
tp416
a(I0
g126
tp417
a(I1
g128
tp418
a(I2
g126
tp419
a(I3
g167
tp420
a(I0
g128
tp421
a(I1
g128
tp422
a(I2
g167
tp423
a(I3
g165
tp424
a(I0
g128
tp425
a(I1
g128
tp426
a(I2
g165
tp427
a(I3
g126
tp428
a(I0
g165
tp429
a(I1
g128
tp430
a(I2
g128
tp431
a(I3
g165
tp432
a(I0
g165
tp433
a(I1
g128
tp434
a(I2
g128
tp435
a(I3
g126
tp436
a(I0
g165
tp437
a(I1
g128
tp438
a(I2
g126
tp439
a(I3
g126
tp440
a(I0
g165
tp441
a(I1
g128
tp442
a(I2
g126
tp443
a(I3
g128
tp444
a(I0
g167
tp445
a(I1
g167
tp446
a(I2
g167
tp447
a(I3
g128
tp448
a(I0
g167
tp449
a(I1
g167
tp450
a(I2
g128
tp451
a(I3
g167
tp452
a(I0
g167
tp453
a(I1
g126
tp454
a(I2
g165
tp455
a(I3
g128
tp456
a(I0
g167
tp457
a(I1
g126
tp458
a(I2
g128
tp459
a(I3
g165
tp460
a(I0
g126
tp461
a(I1
g126
tp462
a(I2
g126
tp463
a(I3
g167
tp464
a(I0
g126
tp465
a(I1
g126
tp466
a(I2
g126
tp467
a(I3
g167
tp468
a(I0
g128
tp469
a(I1
g126
tp470
a(I2
g167
tp471
a(I3
g165
tp472
a(I0
g128
tp473
a(I1
g167
tp474
a(I2
g165
tp475
a(I3
g165
tp476
a(I0
g165
tp477
a(I1
g167
tp478
a(I2
g128
tp479
a(I3
g126
tp480
a(I0
g165
tp481
a(I1
g126
tp482
a(I2
g128
tp483
a(I3
g165
tp484
a(I0
g165
tp485
a(I1
g126
tp486
a(I2
g126
tp487
a(I3
g165
tp488
a(I0
g165
tp489
a(I1
g167
tp490
a(I2
g126
tp491
a(I3
g167
tp492
a(I0
g167
tp493
a(I1
g167
tp494
a(I2
g167
tp495
a(I3
g167
tp496
a(I0
g167
tp497
a(I1
g167
tp498
a(I2
g128
tp499
a(I3
g128
tp500
a(I0
g167
tp501
a(I1
g167
tp502
a(I2
g165
tp503
a(I3
g167
tp504
a(I0
g167
tp505
a(I1
g128
tp506
a(I2
g128
tp507
a(I3
g126
tp508
a(I0
g126
tp509
a(I1
g167
tp510
a(I2
g126
tp511
a(I3
g128
tp512
a(I0
g126
tp513
a(I1
g167
tp514
a(I2
g126
tp515
a(I3
g167
tp516
a(I0
g128
tp517
a(I1
g126
tp518
a(I2
g167
tp519
a(I3
g165
tp520
a(I0
g128
tp521
a(I1
g126
tp522
a(I2
g165
tp523
a(I3
g165
tp524
a(I0
g165
tp525
a(I1
g167
tp526
a(I2
g128
tp527
a(I3
g126
tp528
a(I0
g165
tp529
a(I1
g167
tp530
a(I2
g128
tp531
a(I3
g167
tp532
a(I0
g167
tp533
a(I1
g126
tp534
a(I2
g126
tp535
a(I3
g128
tp536
a(I0
g167
tp537
a(I1
g126
tp538
a(I2
g126
tp539
a(I3
g165
tp540
a(I0
g126
tp541
a(I1
g167
tp542
a(I2
g167
tp543
a(I3
g167
tp544
a(I0
g126
tp545
a(I1
g167
tp546
a(I2
g128
tp547
a(I3
g167
tp548
a(I0
g128
tp549
a(I1
g167
tp550
a(I2
g128
tp551
a(I3
g165
tp552
a(I0
g128
tp553
a(I1
g167
tp554
a(I2
g165
tp555
a(I3
g165
tp556
a(I0
g165
tp557
a(I1
g128
tp558
a(I2
g126
tp559
a(I3
g126
tp560
a(I0
g167
tp561
a(I1
g167
tp562
a(I2
g167
tp563
a(I3
g167
tp564
a(I0
g126
tp565
a(I1
g128
tp566
a(I2
g126
tp567
a(I3
g128
tp568
a(I0
g126
tp569
a(I1
g128
tp570
a(I2
g165
tp571
a(I3
g167
tp572
a(I0
g128
tp573
a(I1
g126
tp574
a(I2
g128
tp575
a(I3
g165
tp576
a(I0
g126
tp577
a(I1
g126
tp578
a(I2
g128
tp579
a(I3
g167
tp580
a(I0
g128
tp581
a(I1
g126
tp582
a(I2
g167
tp583
a(I3
g165
tp584
a(I0
g128
tp585
a(I1
g165
tp586
a(I2
g128
tp587
a(I3
g165
tp588
a(I0
g165
tp589
a(I1
g165
tp590
a(I2
g126
tp591
a(I3
g126
tp592
a(I0
g167
tp593
a(I1
g167
tp594
a(I2
g126
tp595
a(I3
g167
tp596
a(I0
g126
tp597
a(I1
g167
tp598
a(I2
g165
tp599
a(I3
g128
tp600
a(I0
g126
tp601
a(I1
g128
tp602
a(I2
g126
tp603
a(I3
g167
tp604
a(I0
g128
tp605
a(I1
g167
tp606
a(I2
g167
tp607
a(I3
g165
tp608
a(I0
g126
tp609
a(I1
g167
tp610
a(I2
g167
tp611
a(I3
g167
tp612
a(I0
g128
tp613
a(I1
g126
tp614
a(I2
g165
tp615
a(I3
g165
tp616
a(I0
g126
tp617
a(I1
g128
tp618
a(I2
g165
tp619
a(I3
g167
tp620
a(I0
g128
tp621
a(I1
g165
tp622
a(I2
g128
tp623
a(I3
g165
tp624
a(I0
g126
tp625
a(I1
g165
tp626
a(I2
g167
tp627
a(I3
g167
tp628
a(I0
g128
tp629
a(I1
g165
tp630
a(I2
g128
tp631
a(I3
g165
tp632
a(I0
g126
tp633
a(I1
g126
tp634
a(I2
g165
tp635
a(I3
g167
tp636
a(I0
g128
tp637
a(I1
g165
tp638
a(I2
g167
tp639
a(I3
g165
tp640
a(I0
g126
tp641
a(I1
g167
tp642
a(I2
g126
tp643
a(I3
g167
tp644
a(I0
g128
tp645
a(I1
g167
tp646
a(I2
g128
tp647
a(I3
g165
tp648
a(I0
g126
tp649
a(I1
g128
tp650
a(I2
g128
tp651
a(I3
g167
tp652
a(I0
g128
tp653
a(I1
g167
tp654
a(I2
g167
tp655
a(I3
g165
tp656
a(I0
g126
tp657
a(I1
g167
tp658
a(I2
g167
tp659
a(I3
g167
tp660
a(I0
g128
tp661
a(I1
g167
tp662
a(I2
g128
tp663
a(I3
g165
tp664
a(I0
g126
tp665
a(I1
g167
tp666
a(I2
g128
tp667
a(I3
g165
tp668
a(I0
g165
tp669
a(I1
g128
tp670
a(I2
g165
tp671
a(I3
g126
tp672
a(I0
g165
tp673
a(I1
g128
tp674
a(I2
g165
tp675
a(I3
g126
tp676
a(I0
g126
tp677
a(I1
g165
tp678
a(I2
g165
tp679
a(I3
g126
tp680
a(I0
g126
tp681
a(I1
g165
tp682
a(I2
g167
tp683
a(I3
g128
tp684
a(I0
g128
tp685
a(I1
g167
tp686
a(I2
g167
tp687
a(I3
g128
tp688
a(I0
g165
tp689
a(I1
g167
tp690
a(I2
g167
tp691
a(I3
g128
tp692
a(I0
g126
tp693
a(I1
g126
tp694
a(I2
g126
tp695
a(I3
g167
tp696
a(I0
g126
tp697
a(I1
g126
tp698
a(I2
g126
tp699
a(I3
g167
tp700
a(I0
g128
tp701
a(I1
g165
tp702
a(I2
g128
tp703
a(I3
g165
tp704
a(I0
g167
tp705
a(I1
g165
tp706
a(I2
g128
tp707
a(I3
g165
tp708
a(I0
g126
tp709
a(I1
g165
tp710
a(I2
g126
tp711
a(I3
g167
tp712
a(I0
g165
tp713
a(I1
g165
tp714
a(I2
g126
tp715
a(I3
g167
tp716
a(I0
g128
tp717
a(I1
g165
tp718
a(I2
g128
tp719
a(I3
g165
tp720
a(I0
g126
tp721
a(I1
g126
tp722
a(I2
g126
tp723
a(I3
g167
tp724
a(I0
g128
tp725
a(I1
g165
tp726
a(I2
g128
tp727
a(I3
g165
tp728
a(I0
g167
tp729
a(I1
g167
tp730
a(I2
g128
tp731
a(I3
g165
tp732
a(I0
g126
tp733
a(I1
g128
tp734
a(I2
g126
tp735
a(I3
g167
tp736
a(I0
g165
tp737
a(I1
g167
tp738
a(I2
g126
tp739
a(I3
g167
tp740
a(I0
g128
tp741
a(I1
g167
tp742
a(I2
g128
tp743
a(I3
g165
tp744
a(I0
g167
tp745
a(I1
g167
tp746
a(I2
g128
tp747
a(I3
g165
tp748
a(I0
g126
tp749
a(I1
g167
tp750
a(I2
g165
tp751
a(I3
g126
tp752
a(I0
g165
tp753
a(I1
g167
tp754
a(I2
g165
tp755
a(I3
g165
tp756
a(I0
g165
tp757
a(I1
g128
tp758
a(I2
g165
tp759
a(I3
g165
tp760
a(I0
g165
tp761
a(I1
g128
tp762
a(I2
g167
tp763
a(I3
g128
tp764
a(I0
g165
tp765
a(I1
g128
tp766
a(I2
g167
tp767
a(I3
g126
tp768
a(I0
g165
tp769
a(I1
g128
tp770
a(I2
g167
tp771
a(I3
g165
tp772
a(I0
g167
tp773
a(I1
g128
tp774
a(I2
g126
tp775
a(I3
g165
tp776
a(I0
g167
tp777
a(I1
g128
tp778
a(I2
g126
tp779
a(I3
g165
tp780
a(I0
g167
tp781
a(I1
g128
tp782
a(I2
g167
tp783
a(I3
g165
tp784
a(I0
g167
tp785
a(I1
g165
tp786
a(I2
g165
tp787
a(I3
g167
tp788
a(I0
g128
tp789
a(I1
g126
tp790
a(I2
g165
tp791
a(I3
g167
tp792
a(I0
g128
tp793
a(I1
g126
tp794
a(I2
g165
tp795
a(I3
g167
tp796
a(I0
g167
tp797
a(I1
g126
tp798
a(I2
g126
tp799
a(I3
g167
tp800
a(I0
g126
tp801
a(I1
g126
tp802
a(I2
g165
tp803
a(I3
g167
tp804
a(I0
g126
tp805
a(I1
g126
tp806
a(I2
g126
tp807
a(I3
g167
tp808
a(I0
g165
tp809
a(I1
g126
tp810
a(I2
g126
tp811
a(I3
g167
tp812
a(I0
g165
tp813
a(I1
g126
tp814
a(I2
g167
tp815
a(I3
g128
tp816
a(I0
g126
tp817
a(I1
g126
tp818
a(I2
g128
tp819
a(I3
g165
tp820
a(I0
g165
tp821
a(I1
g126
tp822
a(I2
g165
tp823
a(I3
g126
tp824
a(I0
g128
tp825
a(I1
g126
tp826
a(I2
g128
tp827
a(I3
g167
tp828
a(I0
g167
tp829
a(I1
g167
tp830
a(I2
g126
tp831
a(I3
g128
tp832
a(I0
g126
tp833
a(I1
g167
tp834
a(I2
g126
tp835
a(I3
g165
tp836
a(I0
g165
tp837
a(I1
g128
tp838
a(I2
g167
tp839
a(I3
g126
tp840
a(I0
g128
tp841
a(I1
g128
tp842
a(I2
g128
tp843
a(I3
g167
tp844
a(I0
g167
tp845
a(I1
g128
tp846
a(I2
g165
tp847
a(I3
g128
tp848
a(I0
g126
tp849
a(I1
g128
tp850
a(I2
g128
tp851
a(I3
g165
tp852
a(I0
g165
tp853
a(I1
g128
tp854
a(I2
g126
tp855
a(I3
g126
tp856
a(I0
g128
tp857
a(I1
g128
tp858
a(I2
g126
tp859
a(I3
g167
tp860
a(I0
g167
tp861
a(I1
g128
tp862
a(I2
g167
tp863
a(I3
g128
tp864
a(I0
g126
tp865
a(I1
g128
tp866
a(I2
g128
tp867
a(I3
g165
tp868
a(I0
g165
tp869
a(I1
g128
tp870
a(I2
g165
tp871
a(I3
g126
tp872
a(I0
g128
tp873
a(I1
g128
tp874
a(I2
g128
tp875
a(I3
g167
tp876
a(I0
g167
tp877
a(I1
g167
tp878
a(I2
g126
tp879
a(I3
g128
tp880
a(I0
g126
tp881
a(I1
g167
tp882
a(I2
g126
tp883
a(I3
g165
tp884
a(I0
g165
tp885
a(I1
g126
tp886
a(I2
g167
tp887
a(I3
g126
tp888
a(I0
g128
tp889
a(I1
g126
tp890
a(I2
g128
tp891
a(I3
g167
tp892
a(I0
g167
tp893
a(I1
g126
tp894
a(I2
g165
tp895
a(I3
g128
tp896
a(I0
g126
tp897
a(I1
g126
tp898
a(I2
g128
tp899
a(I3
g165
tp900
a(I0
g165
tp901
a(I1
g126
tp902
a(I2
g126
tp903
a(I3
g126
tp904
a(I0
g128
tp905
a(I1
g167
tp906
a(I2
g126
tp907
a(I3
g167
tp908
a(I0
g167
tp909
a(I1
g167
tp910
a(I2
g167
tp911
a(I3
g128
tp912
a(I0
g126
tp913
a(I1
g126
tp914
a(I2
g128
tp915
a(I3
g165
tp916
a(I0
g165
tp917
a(I1
g126
tp918
a(I2
g165
tp919
a(I3
g126
tp920
a(I0
g128
tp921
a(I1
g167
tp922
a(I2
g128
tp923
a(I3
g167
tp924
a(I0
g167
tp925
a(I1
g167
tp926
a(I2
g126
tp927
a(I3
g128
tp928
a(I0
g126
tp929
a(I1
g167
tp930
a(I2
g126
tp931
a(I3
g165
tp932
a(I0
g165
tp933
a(I1
g167
tp934
a(I2
g167
tp935
a(I3
g126
tp936
a(I0
g128
tp937
a(I1
g128
tp938
a(I2
g128
tp939
a(I3
g167
tp940
a(I0
g167
tp941
a(I1
g167
tp942
a(I2
g165
tp943
a(I3
g128
tp944
a(I0
g126
tp945
a(I1
g167
tp946
a(I2
g128
tp947
a(I3
g165
tp948
a(I0
g165
tp949
a(I1
g126
tp950
a(I2
g126
tp951
a(I3
g126
tp952
a(I0
g128
tp953
a(I1
g126
tp954
a(I2
g126
tp955
a(I3
g167
tp956
a(I0
g167
tp957
a(I1
g167
tp958
a(I2
g167
tp959
a(I3
g128
tp960
a(I0
g126
tp961
a(I1
g167
tp962
a(I2
g128
tp963
a(I3
g165
tp964
a(I0
g165
tp965
a(I1
g167
tp966
a(I2
g165
tp967
a(I3
g126
tp968
a(I0
g128
tp969
a(I1
g167
tp970
a(I2
g128
tp971
a(I3
g167
tp972
a(I0
g167
tp973
a(I1
g128
tp974
a(I2
g126
tp975
a(I3
g128
tp976
a(I0
g167
tp977
a(I1
g167
tp978
a(I2
g126
tp979
a(I3
g167
tp980
a(I0
g128
tp981
a(I1
g128
tp982
a(I2
g167
tp983
a(I3
g167
tp984
a(I0
g167
tp985
a(I1
g165
tp986
a(I2
g128
tp987
a(I3
g167
tp988
a(I0
g128
tp989
a(I1
g126
tp990
a(I2
g128
tp991
a(I3
g167
tp992
a(I0
g128
tp993
a(I1
g128
tp994
a(I2
g128
tp995
a(I3
g165
tp996
a(I0
g167
tp997
a(I1
g167
tp998
a(I2
g167
tp999
a(I3
g165
tp1000
a(I0
g167
tp1001
a(I1
g128
tp1002
a(I2
g167
tp1003
a(I3
g165
tp1004
a(I0
g128
tp1005
a(I1
g167
tp1006
a(I2
g128
tp1007
a(I3
g165
tp1008
a(I0
g126
tp1009
a(I1
g167
tp1010
a(I2
g126
tp1011
a(I3
g167
tp1012
a(I0
g128
tp1013
a(I1
g167
tp1014
a(I2
g128
tp1015
a(I3
g165
tp1016
a(I0
g126
tp1017
a(I1
g167
tp1018
a(I2
g126
tp1019
a(I3
g167
tp1020
a(I0
g128
tp1021
a(I1
g128
tp1022
a(I2
g128
tp1023
a(I3
g165
tp1024
a(I0
g126
tp1025
a(I1
g126
tp1026
a(I2
g126
tp1027
a(I3
g167
tp1028
a(I0
g128
tp1029
a(I1
g165
tp1030
a(I2
g128
tp1031
a(I3
g165
tp1032
a(I0
g126
tp1033
a(I1
g165
tp1034
a(I2
g126
tp1035
a(I3
g167
tp1036
a(I0
g128
tp1037
a(I1
g165
tp1038
a(I2
g128
tp1039
a(I3
g165
tp1040
a(I0
g126
tp1041
a(I1
g165
tp1042
a(I2
g126
tp1043
a(I3
g167
tp1044
a(I0
g128
tp1045
a(I1
g167
tp1046
a(I2
g128
tp1047
a(I3
g165
tp1048
a(I0
g126
tp1049
a(I1
g128
tp1050
a(I2
g126
tp1051
a(I3
g167
tp1052
a(I0
g128
tp1053
a(I1
g126
tp1054
a(I2
g128
tp1055
a(I3
g165
tp1056
a(I0
g126
tp1057
a(I1
g167
tp1058
a(I2
g126
tp1059
a(I3
g167
tp1060
a(I0
g128
tp1061
a(I1
g167
tp1062
a(I2
g128
tp1063
a(I3
g165
tp1064
a(I0
g126
tp1065
a(I1
g165
tp1066
a(I2
g126
tp1067
a(I3
g167
tp1068
a(I0
g128
tp1069
a(I1
g165
tp1070
a(I2
g128
tp1071
a(I3
g165
tp1072
a(I0
g126
tp1073
a(I1
g128
tp1074
a(I2
g126
tp1075
a(I3
g167
tp1076
a(I0
g128
tp1077
a(I1
g126
tp1078
a(I2
g128
tp1079
a(I3
g165
tp1080
a(I0
g126
tp1081
a(I1
g167
tp1082
a(I2
g126
tp1083
a(I3
g167
tp1084
a(I0
g128
tp1085
a(I1
g167
tp1086
a(I2
g128
tp1087
a(I3
g165
tp1088
a(I0
g126
tp1089
a(I1
g165
tp1090
a(I2
g126
tp1091
a(I3
g167
tp1092
a(I0
g128
tp1093
a(I1
g165
tp1094
a(I2
g128
tp1095
a(I3
g165
tp1096
a(I0
g126
tp1097
a(I1
g128
tp1098
a(I2
g126
tp1099
a(I3
g167
tp1100
a(I0
g128
tp1101
a(I1
g126
tp1102
a(I2
g128
tp1103
a(I3
g165
tp1104
a(I0
g126
tp1105
a(I1
g128
tp1106
a(I2
g126
tp1107
a(I3
g167
tp1108
a(I0
g128
tp1109
a(I1
g126
tp1110
a(I2
g128
tp1111
a(I3
g165
tp1112
a(I0
g126
tp1113
a(I1
g128
tp1114
a(I2
g126
tp1115
a(I3
g167
tp1116
a(I0
g128
tp1117
a(I1
g126
tp1118
a(I2
g128
tp1119
a(I3
g165
tp1120
a(I0
g126
tp1121
a(I1
g128
tp1122
a(I2
g126
tp1123
a(I3
g167
tp1124
a(I0
g128
tp1125
a(I1
g126
tp1126
a(I2
g128
tp1127
a(I3
g165
tp1128
a(I0
g126
tp1129
a(I1
g128
tp1130
a(I2
g126
tp1131
a(I3
g167
tp1132
a(I0
g128
tp1133
a(I1
g126
tp1134
a(I2
g128
tp1135
a(I3
g165
tp1136
a(I0
g126
tp1137
a(I1
g167
tp1138
a(I2
g126
tp1139
a(I3
g167
tp1140
a(I0
g128
tp1141
a(I1
g167
tp1142
a(I2
g128
tp1143
a(I3
g165
tp1144
a(I0
g126
tp1145
a(I1
g165
tp1146
a(I2
g126
tp1147
a(I3
g167
tp1148
a(I0
g128
tp1149
a(I1
g167
tp1150
a(I2
g128
tp1151
a(I3
g165
tp1152
a(I0
g126
tp1153
a(I1
g165
tp1154
a(I2
g126
tp1155
a(I3
g167
tp1156
a(I0
g128
tp1157
a(I1
g167
tp1158
a(I2
g128
tp1159
a(I3
g165
tp1160
a(I0
g126
tp1161
a(I1
g165
tp1162
a(I2
g126
tp1163
a(I3
g167
tp1164
a(I0
g128
tp1165
a(I1
g167
tp1166
a(I2
g128
tp1167
a(I3
g165
tp1168
a(I0
g126
tp1169
a(I1
g165
tp1170
a(I2
g126
tp1171
a(I3
g167
tp1172
a(I0
g128
tp1173
a(I1
g165
tp1174
a(I2
g128
tp1175
a(I3
g165
tp1176
a(I0
g126
tp1177
a(I1
g167
tp1178
a(I2
g126
tp1179
a(I3
g167
tp1180
a(I0
g128
tp1181
a(I1
g165
tp1182
a(I2
g128
tp1183
a(I3
g165
tp1184
a(I0
g126
tp1185
a(I1
g167
tp1186
a(I2
g126
tp1187
a(I3
g167
tp1188
a(I0
g128
tp1189
a(I1
g167
tp1190
a(I2
g128
tp1191
a(I3
g165
tp1192
a(I0
g126
tp1193
a(I1
g165
tp1194
a(I2
g126
tp1195
a(I3
g167
tp1196
a(I0
g128
tp1197
a(I1
g165
tp1198
a(I2
g128
tp1199
a(I3
g165
tp1200
a(I0
g126
tp1201
a(I1
g128
tp1202
a(I2
g126
tp1203
a(I3
g167
tp1204
a(I0
g128
tp1205
a(I1
g126
tp1206
a(I2
g128
tp1207
a(I3
g165
tp1208
a(I0
g126
tp1209
a(I1
g167
tp1210
a(I2
g126
tp1211
a(I3
g167
tp1212
a(I0
g128
tp1213
a(I1
g165
tp1214
a(I2
g128
tp1215
a(I3
g165
tp1216
a(I0
g126
tp1217
a(I1
g128
tp1218
a(I2
g126
tp1219
a(I3
g167
tp1220
a(I0
g128
tp1221
a(I1
g126
tp1222
a(I2
g128
tp1223
a(I3
g165
tp1224
a(I0
g126
tp1225
a(I1
g167
tp1226
a(I2
g126
tp1227
a(I3
g167
tp1228
a(I0
g128
tp1229
a(I1
g165
tp1230
a(I2
g128
tp1231
a(I3
g165
tp1232
a(I0
g126
tp1233
a(I1
g167
tp1234
a(I2
g126
tp1235
a(I3
g167
tp1236
a(I0
g128
tp1237
a(I1
g167
tp1238
a(I2
g128
tp1239
a(I3
g165
tp1240
a(I0
g126
tp1241
a(I1
g165
tp1242
a(I2
g126
tp1243
a(I3
g167
tp1244
a(I0
g128
tp1245
a(I1
g167
tp1246
a(I2
g128
tp1247
a(I3
g165
tp1248
a(I0
g126
tp1249
a(I1
g165
tp1250
a(I2
g126
tp1251
a(I3
g167
tp1252
a(I0
g128
tp1253
a(I1
g165
tp1254
a(I2
g128
tp1255
a(I3
g165
tp1256
a(I0
g126
tp1257
a(I1
g128
tp1258
a(I2
g126
tp1259
a(I3
g167
tp1260
a(I0
g128
tp1261
a(I1
g126
tp1262
a(I2
g128
tp1263
a(I3
g165
tp1264
a(I0
g126
tp1265
a(I1
g128
tp1266
a(I2
g126
tp1267
a(I3
g167
tp1268
a(I0
g128
tp1269
a(I1
g126
tp1270
a(I2
g128
tp1271
a(I3
g165
tp1272
a(I0
g126
tp1273
a(I1
g167
tp1274
a(I2
g126
tp1275
a(I3
g167
tp1276
a(I0
g128
tp1277
a(I1
g165
tp1278
a(I2
g128
tp1279
a(I3
g165
tp1280
a(I0
g126
tp1281
a(I1
g167
tp1282
a(I2
g126
tp1283
a(I3
g167
tp1284
a(I0
g128
tp1285
a(I1
g167
tp1286
a(I2
g128
tp1287
a(I3
g165
tp1288
a(I0
g126
tp1289
a(I1
g165
tp1290
a(I2
g126
tp1291
a(I3
g167
tp1292
a(I0
g128
tp1293
a(I1
g167
tp1294
a(I2
g128
tp1295
a(I3
g165
tp1296
a(I0
g126
tp1297
a(I1
g165
tp1298
a(I2
g126
tp1299
a(I3
g167
tp1300
a(I0
g128
tp1301
a(I1
g165
tp1302
a(I2
g128
tp1303
a(I3
g165
tp1304
a(I0
g126
tp1305
a(I1
g167
tp1306
a(I2
g126
tp1307
a(I3
g167
tp1308
a(I0
g128
tp1309
a(I1
g167
tp1310
a(I2
g128
tp1311
a(I3
g165
tp1312
a(I0
g126
tp1313
a(I1
g165
tp1314
a(I2
g126
tp1315
a(I3
g167
tp1316
a(I0
g128
tp1317
a(I1
g165
tp1318
a(I2
g128
tp1319
a(I3
g165
tp1320
a(I0
g126
tp1321
a(I1
g128
tp1322
a(I2
g126
tp1323
a(I3
g167
tp1324
a(I0
g128
tp1325
a(I1
g126
tp1326
a(I2
g128
tp1327
a(I3
g165
tp1328
a(I0
g126
tp1329
asS'length'
p1330
I1200
sS'agents'
p1331
(lp1332
(igame
Agent
p1333
(dp1334
S'index'
p1335
I0
sba(igame
Agent
p1336
(dp1337
g1335
I0
sba(igame
Agent
p1338
(dp1339
g1335
I0
sba(igame
Agent
p1340
(dp1341
g1335
I0
sbasS'redTeamName'
p1342
S'Red'
p1343
s.