(dp1
S'layout'
p2
(ilayout
Layout
p3
(dp4
S'capsules'
p5
(lp6
sS'numGhosts'
p7
I4
sS'food'
p8
(igame
Grid
p9
(dp10
S'CELLS_PER_INT'
p11
I30
sS'width'
p12
I38
sS'data'
p13
(lp14
(lp15
I00
aI00
aI00
aI00
aI00
aI00
aI00
aI00
aI00
aI00
aI00
aI00
aI00
aa(lp16
I00
aI00
aI00
aI00
aI00
aI00
aI00
aI00
aI00
aI00
aI00
aI00
aI00
aa(lp17
I00
aI00
aI00
aI00
aI00
aI00
aI00
aI00
aI00
aI00
aI00
aI00
aI00
aa(lp18
I00
aI00
aI00
aI00
aI00
aI00
aI00
aI00
aI00
aI00
aI00
aI00
aI00
aa(lp19
I00
aI00
aI00
aI00
aI00
aI00
aI00
aI00
aI00
aI00
aI00
aI00
aI00
aa(lp20
I00
aI00
aI00
aI01
aI01
aI00
aI00
aI00
aI00
aI00
aI01
aI01
aI00
aa(lp21
I00
aI00
aI00
aI00
aI00
aI00
aI00
aI00
aI00
aI00
aI00
aI00
aI00
aa(lp22
I00
aI00
aI00
aI00
aI00
aI00
aI00
aI00
aI00
aI00
aI00
aI01
aI00
aa(lp23
I00
aI00
aI00
aI00
aI00
aI00
aI00
aI00
aI00
aI00
aI00
aI00
aI00
aa(lp24
I00
aI00
aI00
aI00
aI00
aI00
aI01
aI00
aI00
aI00
aI00
aI01
aI00
aa(lp25
I00
aI00
aI00
aI00
aI00
aI00
aI00
aI00
aI00
aI00
aI00
aI00
aI00
aa(lp26
I00
aI00
aI00
aI00
aI00
aI00
aI00
aI00
aI01
aI00
aI00
aI00
aI00
aa(lp27
I00
aI00
aI00
aI00
aI00
aI00
aI00
aI00
aI00
aI00
aI00
aI00
aI00
aa(lp28
I00
aI01
aI00
aI00
aI00
aI00
aI00
aI00
aI00
aI00
aI00
aI00
aI00
aa(lp29
I00
aI00
aI00
aI00
aI00
aI00
aI00
aI00
aI00
aI00
aI00
aI00
aI00
aa(lp30
I00
aI00
aI00
aI00
aI00
aI01
aI00
aI00
aI01
aI00
aI00
aI01
aI00
aa(lp31
I00
aI00
aI00
aI00
aI00
aI00
aI00
aI00
aI00
aI00
aI00
aI00
aI00
aa(lp32
I00
aI00
aI00
aI00
aI00
aI00
aI00
aI00
aI01
aI00
aI00
aI00
aI00
aa(lp33
I00
aI00
aI00
aI00
aI00
aI00
aI00
aI00
aI00
aI00
aI00
aI00
aI00
aa(lp34
I00
aI00
aI00
aI00
aI00
aI00
aI00
aI00
aI00
aI00
aI00
aI00
aI00
aa(lp35
I00
aI00
aI00
aI00
aI01
aI00
aI00
aI00
aI00
aI00
aI00
aI00
aI00
aa(lp36
I00
aI00
aI00
aI00
aI00
aI00
aI00
aI00
aI00
aI00
aI00
aI00
aI00
aa(lp37
I00
aI01
aI00
aI00
aI01
aI00
aI00
aI01
aI00
aI00
aI00
aI00
aI00
aa(lp38
I00
aI00
aI00
aI00
aI00
aI00
aI00
aI00
aI00
aI00
aI00
aI00
aI00
aa(lp39
I00
aI00
aI00
aI00
aI00
aI00
aI00
aI00
aI00
aI00
aI00
aI01
aI00
aa(lp40
I00
aI00
aI00
aI00
aI00
aI00
aI00
aI00
aI00
aI00
aI00
aI00
aI00
aa(lp41
I00
aI00
aI00
aI00
aI01
aI00
aI00
aI00
aI00
aI00
aI00
aI00
aI00
aa(lp42
I00
aI00
aI00
aI00
aI00
aI00
aI00
aI00
aI00
aI00
aI00
aI00
aI00
aa(lp43
I00
aI01
aI00
aI00
aI00
aI00
aI01
aI00
aI00
aI00
aI00
aI00
aI00
aa(lp44
I00
aI00
aI00
aI00
aI00
aI00
aI00
aI00
aI00
aI00
aI00
aI00
aI00
aa(lp45
I00
aI01
aI00
aI00
aI00
aI00
aI00
aI00
aI00
aI00
aI00
aI00
aI00
aa(lp46
I00
aI00
aI00
aI00
aI00
aI00
aI00
aI00
aI00
aI00
aI00
aI00
aI00
aa(lp47
I00
aI01
aI01
aI00
aI00
aI00
aI00
aI00
aI01
aI01
aI00
aI00
aI00
aa(lp48
I00
aI00
aI00
aI00
aI00
aI00
aI00
aI00
aI00
aI00
aI00
aI00
aI00
aa(lp49
I00
aI00
aI00
aI00
aI00
aI00
aI00
aI00
aI00
aI00
aI00
aI00
aI00
aa(lp50
I00
aI00
aI00
aI00
aI00
aI00
aI00
aI00
aI00
aI00
aI00
aI00
aI00
aa(lp51
I00
aI00
aI00
aI00
aI00
aI00
aI00
aI00
aI00
aI00
aI00
aI00
aI00
aa(lp52
I00
aI00
aI00
aI00
aI00
aI00
aI00
aI00
aI00
aI00
aI00
aI00
aI00
aasS'height'
p53
I13
sbsS'agentPositions'
p54
(lp55
(I00
(I1
I11
tp56
tp57
a(I00
(I36
I1
tp58
tp59
a(I00
(I1
I10
tp60
tp61
a(I00
(I36
I2
tp62
tp63
asg53
I13
sg12
I38
sS'walls'
p64
(igame
Grid
p65
(dp66
g11
I30
sg12
I38
sg13
(lp67
(lp68
I01
aI01
aI01
aI01
aI01
aI01
aI01
aI01
aI01
aI01
aI01
aI01
aI01
aa(lp69
I01
aI00
aI00
aI00
aI00
aI00
aI00
aI00
aI00
aI00
aI00
aI00
aI01
aa(lp70
I01
aI00
aI01
aI01
aI01
aI01
aI01
aI01
aI01
aI01
aI01
aI01
aI01
aa(lp71
I01
aI00
aI00
aI00
aI00
aI00
aI00
aI00
aI00
aI00
aI00
aI00
aI01
aa(lp72
I01
aI01
aI01
aI01
aI01
aI01
aI01
aI01
aI01
aI01
aI01
aI00
aI01
aa(lp73
I01
aI00
aI00
aI00
aI00
aI01
aI00
aI00
aI00
aI00
aI00
aI00
aI01
aa(lp74
I01
aI00
aI01
aI01
aI01
aI01
aI00
aI01
aI01
aI01
aI01
aI01
aI01
aa(lp75
I01
aI00
aI00
aI00
aI00
aI00
aI00
aI00
aI00
aI00
aI00
aI00
aI01
aa(lp76
I01
aI00
aI01
aI01
aI00
aI01
aI01
aI01
aI01
aI00
aI01
aI01
aI01
aa(lp77
I01
aI00
aI00
aI01
aI00
aI01
aI00
aI00
aI00
aI00
aI00
aI00
aI01
aa(lp78
I01
aI01
aI00
aI01
aI00
aI01
aI01
aI01
aI01
aI01
aI00
aI01
aI01
aa(lp79
I01
aI01
aI00
aI01
aI00
aI00
aI00
aI00
aI00
aI01
aI00
aI00
aI01
aa(lp80
I01
aI01
aI00
aI01
aI01
aI00
aI01
aI01
aI01
aI01
aI00
aI00
aI01
aa(lp81
I01
aI00
aI00
aI00
aI00
aI00
aI00
aI00
aI00
aI00
aI00
aI00
aI01
aa(lp82
I01
aI01
aI01
aI00
aI01
aI01
aI01
aI01
aI00
aI01
aI00
aI01
aI01
aa(lp83
I01
aI00
aI00
aI00
aI01
aI00
aI00
aI01
aI00
aI01
aI00
aI00
aI01
aa(lp84
I01
aI00
aI01
aI00
aI01
aI01
aI00
aI01
aI01
aI01
aI00
aI01
aI01
aa(lp85
I01
aI00
aI01
aI00
aI00
aI00
aI00
aI01
aI00
aI00
aI00
aI00
aI01
aa(lp86
I01
aI00
aI01
aI01
aI00
aI00
aI00
aI01
aI01
aI01
aI00
aI00
aI01
aa(lp87
I01
aI00
aI00
aI01
aI01
aI01
aI00
aI00
aI00
aI01
aI01
aI00
aI01
aa(lp88
I01
aI00
aI00
aI00
aI00
aI01
aI00
aI00
aI00
aI00
aI01
aI00
aI01
aa(lp89
I01
aI01
aI00
aI01
aI01
aI01
aI00
aI01
aI01
aI00
aI01
aI00
aI01
aa(lp90
I01
aI00
aI00
aI01
aI00
aI01
aI00
aI00
aI01
aI00
aI00
aI00
aI01
aa(lp91
I01
aI01
aI00
aI01
aI00
aI01
aI01
aI01
aI01
aI00
aI01
aI01
aI01
aa(lp92
I01
aI00
aI00
aI00
aI00
aI00
aI00
aI00
aI00
aI00
aI00
aI00
aI01
aa(lp93
I01
aI00
aI00
aI01
aI01
aI01
aI01
aI00
aI01
aI01
aI00
aI01
aI01
aa(lp94
I01
aI00
aI00
aI01
aI00
aI00
aI00
aI00
aI00
aI01
aI00
aI01
aI01
aa(lp95
I01
aI01
aI00
aI01
aI01
aI01
aI01
aI01
aI00
aI01
aI00
aI01
aI01
aa(lp96
I01
aI00
aI00
aI00
aI00
aI00
aI00
aI01
aI00
aI01
aI00
aI00
aI01
aa(lp97
I01
aI01
aI01
aI00
aI01
aI01
aI01
aI01
aI00
aI01
aI01
aI00
aI01
aa(lp98
I01
aI00
aI00
aI00
aI00
aI00
aI00
aI00
aI00
aI00
aI00
aI00
aI01
aa(lp99
I01
aI01
aI01
aI01
aI01
aI01
aI00
aI01
aI01
aI01
aI01
aI00
aI01
aa(lp100
I01
aI00
aI00
aI00
aI00
aI00
aI00
aI01
aI00
aI00
aI00
aI00
aI01
aa(lp101
I01
aI00
aI01
aI01
aI01
aI01
aI01
aI01
aI01
aI01
aI01
aI01
aI01
aa(lp102
I01
aI00
aI00
aI00
aI00
aI00
aI00
aI00
aI00
aI00
aI00
aI00
aI01
aa(lp103
I01
aI01
aI01
aI01
aI01
aI01
aI01
aI01
aI01
aI01
aI01
aI00
aI01
aa(lp104
I01
aI00
aI00
aI00
aI00
aI00
aI00
aI00
aI00
aI00
aI00
aI00
aI01
aa(lp105
I01
aI01
aI01
aI01
aI01
aI01
aI01
aI01
aI01
aI01
aI01
aI01
aI01
aasg53
I13
sbsS'totalFood'
p106
I26
sS'layoutText'
p107
(lp108
S'%%%%%%%%%%%%%%%%%%%%%%%%%%%%%%%%%%%%%%'
p109
aS'%1%  .%.%.%   %.%      %.%%%     %   %'
p110
aS'%3% %.% %          %%% %     % % % % %'
p111
aS'% % % %   %%% %%% %%     %%%%% %.% % %'
p112
aS'% % % % % %.%  .%.%  %%% %     %.% % %'
p113
aS'% % % % % % % %%%%%  %.%   %%% %%% % %'
p114
aS'% % %   %.% % %        % % %.%   % % %'
p115
aS'% % %%% %%%   %.%  %%%%% % % % % % % %'
p116
aS'% % %.%     % %%%  %.%.  %.% % % % % %'
p117
aS'% % %.% %%%%%     %% %%% %%%   % % % %'
p118
aS'% % % % %     % %%%          % %.% %4%'
p119
aS'%   %     %%%.%      %.%   %.%.%.  %2%'
p120
aS'%%%%%%%%%%%%%%%%%%%%%%%%%%%%%%%%%%%%%%'
p121
asbsS'blueTeamName'
p122
S'Blue'
p123
sS'actions'
p124
(lp125
(I1
S'North'
p126
tp127
a(I2
S'South'
p128
tp129
a(I3
g126
tp130
a(I0
g128
tp131
a(I1
g126
tp132
a(I2
g128
tp133
a(I3
g126
tp134
a(I0
g128
tp135
a(I1
g126
tp136
a(I2
g128
tp137
a(I3
g126
tp138
a(I0
g128
tp139
a(I1
g126
tp140
a(I2
g128
tp141
a(I3
g126
tp142
a(I0
g128
tp143
a(I1
g126
tp144
a(I2
g128
tp145
a(I3
g126
tp146
a(I0
g128
tp147
a(I1
g126
tp148
a(I2
g128
tp149
a(I3
g126
tp150
a(I0
g128
tp151
a(I1
g126
tp152
a(I2
g128
tp153
a(I3
g126
tp154
a(I0
g128
tp155
a(I1
g126
tp156
a(I2
g128
tp157
a(I3
g126
tp158
a(I0
g128
tp159
a(I1
g126
tp160
a(I2
g128
tp161
a(I3
g126
tp162
a(I0
g128
tp163
a(I1
g126
tp164
a(I2
S'East'
p165
tp166
a(I3
S'West'
p167
tp168
a(I0
g128
tp169
a(I1
g167
tp170
a(I2
g165
tp171
a(I3
g167
tp172
a(I0
g165
tp173
a(I1
g167
tp174
a(I2
g126
tp175
a(I3
g128
tp176
a(I0
g165
tp177
a(I1
g128
tp178
a(I2
g126
tp179
a(I3
g128
tp180
a(I0
g126
tp181
a(I1
g128
tp182
a(I2
g126
tp183
a(I3
g128
tp184
a(I0
g126
tp185
a(I1
g128
tp186
a(I2
g126
tp187
a(I3
g128
tp188
a(I0
g126
tp189
a(I1
g128
tp190
a(I2
g126
tp191
a(I3
g128
tp192
a(I0
g126
tp193
a(I1
g128
tp194
a(I2
g126
tp195
a(I3
g128
tp196
a(I0
g126
tp197
a(I1
g128
tp198
a(I2
g126
tp199
a(I3
g128
tp200
a(I0
g126
tp201
a(I1
g128
tp202
a(I2
g126
tp203
a(I3
g128
tp204
a(I0
g126
tp205
a(I1
g128
tp206
a(I2
g126
tp207
a(I3
g128
tp208
a(I0
g126
tp209
a(I1
g128
tp210
a(I2
g126
tp211
a(I3
g128
tp212
a(I0
g126
tp213
a(I1
g128
tp214
a(I2
g165
tp215
a(I3
g167
tp216
a(I0
g126
tp217
a(I1
g167
tp218
a(I2
g165
tp219
a(I3
g167
tp220
a(I0
g165
tp221
a(I1
g167
tp222
a(I2
g128
tp223
a(I3
g126
tp224
a(I0
g165
tp225
a(I1
g126
tp226
a(I2
g128
tp227
a(I3
g126
tp228
a(I0
g128
tp229
a(I1
g126
tp230
a(I2
g128
tp231
a(I3
g126
tp232
a(I0
g128
tp233
a(I1
g126
tp234
a(I2
g128
tp235
a(I3
g126
tp236
a(I0
g128
tp237
a(I1
g126
tp238
a(I2
g128
tp239
a(I3
g126
tp240
a(I0
g128
tp241
a(I1
g126
tp242
a(I2
g165
tp243
a(I3
g167
tp244
a(I0
g128
tp245
a(I1
g167
tp246
a(I2
g165
tp247
a(I3
g167
tp248
a(I0
g165
tp249
a(I1
g167
tp250
a(I2
g128
tp251
a(I3
g128
tp252
a(I0
g165
tp253
a(I1
g126
tp254
a(I2
g128
tp255
a(I3
g128
tp256
a(I0
g128
tp257
a(I1
g126
tp258
a(I2
g165
tp259
a(I3
g128
tp260
a(I0
g128
tp261
a(I1
g167
tp262
a(I2
g165
tp263
a(I3
g167
tp264
a(I0
g165
tp265
a(I1
g167
tp266
a(I2
g165
tp267
a(I3
g167
tp268
a(I0
g165
tp269
a(I1
g167
tp270
a(I2
g165
tp271
a(I3
g128
tp272
a(I0
g165
tp273
a(I1
g167
tp274
a(I2
g126
tp275
a(I3
g167
tp276
a(I0
g165
tp277
a(I1
g128
tp278
a(I2
g165
tp279
a(I3
g167
tp280
a(I0
g126
tp281
a(I1
g167
tp282
a(I2
g165
tp283
a(I3
g167
tp284
a(I0
g165
tp285
a(I1
g167
tp286
a(I2
g128
tp287
a(I3
g167
tp288
a(I0
g165
tp289
a(I1
g126
tp290
a(I2
g128
tp291
a(I3
g167
tp292
a(I0
S'Stop'
p293
tp294
a(I1
g126
tp295
a(I2
g165
tp296
a(I3
g167
tp297
a(I0
g293
tp298
a(I1
g167
tp299
a(I2
g165
tp300
a(I3
g167
tp301
a(I0
g128
tp302
a(I1
g167
tp303
a(I2
g128
tp304
a(I3
g167
tp305
a(I0
g128
tp306
a(I1
g126
tp307
a(I2
g128
tp308
a(I3
g126
tp309
a(I0
g293
tp310
a(I1
g126
tp311
a(I2
g165
tp312
a(I3
g126
tp313
a(I0
g293
tp314
a(I1
g167
tp315
a(I2
g165
tp316
a(I3
g128
tp317
a(I0
g128
tp318
a(I1
g167
tp319
a(I2
g165
tp320
a(I3
g126
tp321
a(I0
g126
tp322
a(I1
g167
tp323
a(I2
g165
tp324
a(I3
g128
tp325
a(I0
g128
tp326
a(I1
g167
tp327
a(I2
g165
tp328
a(I3
g128
tp329
a(I0
g128
tp330
a(I1
g167
tp331
a(I2
g167
tp332
a(I3
g167
tp333
a(I0
g126
tp334
a(I1
g128
tp335
a(I2
g165
tp336
a(I3
g128
tp337
a(I0
g126
tp338
a(I1
g128
tp339
a(I2
g126
tp340
a(I3
g126
tp341
a(I0
g128
tp342
a(I1
g128
tp343
a(I2
g126
tp344
a(I3
g165
tp345
a(I0
g126
tp346
a(I1
g126
tp347
a(I2
g126
tp348
a(I3
g126
tp349
a(I0
g126
tp350
a(I1
g126
tp351
a(I2
g128
tp352
a(I3
g126
tp353
a(I0
g126
tp354
a(I1
g167
tp355
a(I2
g128
tp356
a(I3
g128
tp357
a(I0
g126
tp358
a(I1
g167
tp359
a(I2
g128
tp360
a(I3
g128
tp361
a(I0
g126
tp362
a(I1
g126
tp363
a(I2
g128
tp364
a(I3
g165
tp365
a(I0
g126
tp366
a(I1
g128
tp367
a(I2
g128
tp368
a(I3
g167
tp369
a(I0
g126
tp370
a(I1
g165
tp371
a(I2
g128
tp372
a(I3
g126
tp373
a(I0
g126
tp374
a(I1
g165
tp375
a(I2
g128
tp376
a(I3
g128
tp377
a(I0
g165
tp378
a(I1
g165
tp379
a(I2
g128
tp380
a(I3
g165
tp381
a(I0
g165
tp382
a(I1
g126
tp383
a(I2
g128
tp384
a(I3
g167
tp385
a(I0
g165
tp386
a(I1
g165
tp387
a(I2
g128
tp388
a(I3
g167
tp389
a(I0
g167
tp390
a(I1
g167
tp391
a(I2
g165
tp392
a(I3
g165
tp393
a(I0
g165
tp394
a(I1
g167
tp395
a(I2
g165
tp396
a(I3
g167
tp397
a(I0
g165
tp398
a(I1
g165
tp399
a(I2
g126
tp400
a(I3
g165
tp401
a(I0
g126
tp402
a(I1
g128
tp403
a(I2
g126
tp404
a(I3
g167
tp405
a(I0
g128
tp406
a(I1
g126
tp407
a(I2
g126
tp408
a(I3
g165
tp409
a(I0
g126
tp410
a(I1
g128
tp411
a(I2
g126
tp412
a(I3
g126
tp413
a(I0
g128
tp414
a(I1
g126
tp415
a(I2
g126
tp416
a(I3
g128
tp417
a(I0
g126
tp418
a(I1
g128
tp419
a(I2
g126
tp420
a(I3
g167
tp421
a(I0
g128
tp422
a(I1
g126
tp423
a(I2
g126
tp424
a(I3
g165
tp425
a(I0
g126
tp426
a(I1
g165
tp427
a(I2
g126
tp428
a(I3
g167
tp429
a(I0
g165
tp430
a(I1
g165
tp431
a(I2
g126
tp432
a(I3
g165
tp433
a(I0
g128
tp434
a(I1
g165
tp435
a(I2
g126
tp436
a(I3
g126
tp437
a(I0
g126
tp438
a(I1
g293
tp439
a(I2
g165
tp440
a(I3
g128
tp441
a(I0
g167
tp442
a(I1
g167
tp443
a(I2
g165
tp444
a(I3
g167
tp445
a(I0
g165
tp446
a(I1
g167
tp447
a(I2
g128
tp448
a(I3
g165
tp449
a(I0
g167
tp450
a(I1
g167
tp451
a(I2
g128
tp452
a(I3
g126
tp453
a(I0
g165
tp454
a(I1
g126
tp455
a(I2
g128
tp456
a(I3
g128
tp457
a(I0
g128
tp458
a(I1
g126
tp459
a(I2
g128
tp460
a(I3
g165
tp461
a(I0
g167
tp462
a(I1
g126
tp463
a(I2
g128
tp464
a(I3
g167
tp465
a(I0
g167
tp466
a(I1
g126
tp467
a(I2
g165
tp468
a(I3
g167
tp469
a(I0
g167
tp470
a(I1
g126
tp471
a(I2
g165
tp472
a(I3
g165
tp473
a(I0
g167
tp474
a(I1
g126
tp475
a(I2
g128
tp476
a(I3
g128
tp477
a(I0
g167
tp478
a(I1
g126
tp479
a(I2
g128
tp480
a(I3
g126
tp481
a(I0
g128
tp482
a(I1
g126
tp483
a(I2
g165
tp484
a(I3
g167
tp485
a(I0
g126
tp486
a(I1
g126
tp487
a(I2
g165
tp488
a(I3
g165
tp489
a(I0
g167
tp490
a(I1
g126
tp491
a(I2
g165
tp492
a(I3
g128
tp493
a(I0
g167
tp494
a(I1
g167
tp495
a(I2
g165
tp496
a(I3
g126
tp497
a(I0
g165
tp498
a(I1
g167
tp499
a(I2
g126
tp500
a(I3
g128
tp501
a(I0
g165
tp502
a(I1
g128
tp503
a(I2
g165
tp504
a(I3
g126
tp505
a(I0
g128
tp506
a(I1
g128
tp507
a(I2
g165
tp508
a(I3
g126
tp509
a(I0
g128
tp510
a(I1
g128
tp511
a(I2
g128
tp512
a(I3
g128
tp513
a(I0
g128
tp514
a(I1
g128
tp515
a(I2
g128
tp516
a(I3
g165
tp517
a(I0
g128
tp518
a(I1
g128
tp519
a(I2
g165
tp520
a(I3
g167
tp521
a(I0
g128
tp522
a(I1
g128
tp523
a(I2
g165
tp524
a(I3
g165
tp525
a(I0
g128
tp526
a(I1
g128
tp527
a(I2
g128
tp528
a(I3
g167
tp529
a(I0
g128
tp530
a(I1
g128
tp531
a(I2
g128
tp532
a(I3
g167
tp533
a(I0
g293
tp534
a(I1
g128
tp535
a(I2
g165
tp536
a(I3
g165
tp537
a(I0
g128
tp538
a(I1
g128
tp539
a(I2
g165
tp540
a(I3
g126
tp541
a(I0
g128
tp542
a(I1
g167
tp543
a(I2
g165
tp544
a(I3
g128
tp545
a(I0
g293
tp546
a(I1
g167
tp547
a(I2
g165
tp548
a(I3
g167
tp549
a(I0
g293
tp550
a(I1
g126
tp551
a(I2
g167
tp552
a(I3
g128
tp553
a(I0
g293
tp554
a(I1
g126
tp555
a(I2
g167
tp556
a(I3
g165
tp557
a(I0
g293
tp558
a(I1
g126
tp559
a(I2
g167
tp560
a(I3
g126
tp561
a(I0
g126
tp562
a(I1
g126
tp563
a(I2
g165
tp564
a(I3
g165
tp565
a(I0
g128
tp566
a(I1
g126
tp567
a(I2
g165
tp568
a(I3
g167
tp569
a(I0
g126
tp570
a(I1
g167
tp571
a(I2
g165
tp572
a(I3
g167
tp573
a(I0
g293
tp574
a(I1
g167
tp575
a(I2
g167
tp576
a(I3
g128
tp577
a(I0
g128
tp578
a(I1
g126
tp579
a(I2
g167
tp580
a(I3
g126
tp581
a(I0
g126
tp582
a(I1
g126
tp583
a(I2
g167
tp584
a(I3
g165
tp585
a(I0
g128
tp586
a(I1
g167
tp587
a(I2
g165
tp588
a(I3
g128
tp589
a(I0
g293
tp590
a(I1
g167
tp591
a(I2
g167
tp592
a(I3
g126
tp593
a(I0
g126
tp594
a(I1
g167
tp595
a(I2
g165
tp596
a(I3
g165
tp597
a(I0
g128
tp598
a(I1
g167
tp599
a(I2
g165
tp600
a(I3
g167
tp601
a(I0
g293
tp602
a(I1
g128
tp603
a(I2
g165
tp604
a(I3
g167
tp605
a(I0
g293
tp606
a(I1
g167
tp607
a(I2
g167
tp608
a(I3
g128
tp609
a(I0
g126
tp610
a(I1
g167
tp611
a(I2
g167
tp612
a(I3
g126
tp613
a(I0
g128
tp614
a(I1
g126
tp615
a(I2
g167
tp616
a(I3
g165
tp617
a(I0
g126
tp618
a(I1
g126
tp619
a(I2
g165
tp620
a(I3
g167
tp621
a(I0
g126
tp622
a(I1
g167
tp623
a(I2
g167
tp624
a(I3
g165
tp625
a(I0
g165
tp626
a(I1
g167
tp627
a(I2
g165
tp628
a(I3
g126
tp629
a(I0
g167
tp630
a(I1
g167
tp631
a(I2
g165
tp632
a(I3
g128
tp633
a(I0
g293
tp634
a(I1
g167
tp635
a(I2
g165
tp636
a(I3
g128
tp637
a(I0
g128
tp638
a(I1
g128
tp639
a(I2
g167
tp640
a(I3
g167
tp641
a(I0
g126
tp642
a(I1
g167
tp643
a(I2
g167
tp644
a(I3
g165
tp645
a(I0
g128
tp646
a(I1
g128
tp647
a(I2
g167
tp648
a(I3
g126
tp649
a(I0
g128
tp650
a(I1
g128
tp651
a(I2
g165
tp652
a(I3
g167
tp653
a(I0
g293
tp654
a(I1
g167
tp655
a(I2
g167
tp656
a(I3
g165
tp657
a(I0
g126
tp658
a(I1
g167
tp659
a(I2
g165
tp660
a(I3
g126
tp661
a(I0
g126
tp662
a(I1
g167
tp663
a(I2
g165
tp664
a(I3
g128
tp665
a(I0
g165
tp666
a(I1
g167
tp667
a(I2
g165
tp668
a(I3
g128
tp669
a(I0
g165
tp670
a(I1
g128
tp671
a(I2
g167
tp672
a(I3
g167
tp673
a(I0
g165
tp674
a(I1
g126
tp675
a(I2
g167
tp676
a(I3
g165
tp677
a(I0
g165
tp678
a(I1
g165
tp679
a(I2
g167
tp680
a(I3
g126
tp681
a(I0
g126
tp682
a(I1
g165
tp683
a(I2
g165
tp684
a(I3
g167
tp685
a(I0
g126
tp686
a(I1
g165
tp687
a(I2
g167
tp688
a(I3
g165
tp689
a(I0
g126
tp690
a(I1
g165
tp691
a(I2
g165
tp692
a(I3
g128
tp693
a(I0
g167
tp694
a(I1
g293
tp695
a(I2
g167
tp696
a(I3
g126
tp697
a(I0
g165
tp698
a(I1
g165
tp699
a(I2
g165
tp700
a(I3
g167
tp701
a(I0
g128
tp702
a(I1
g167
tp703
a(I2
g167
tp704
a(I3
g165
tp705
a(I0
g126
tp706
a(I1
g165
tp707
a(I2
g165
tp708
a(I3
g167
tp709
a(I0
g128
tp710
a(I1
g167
tp711
a(I2
g167
tp712
a(I3
g165
tp713
a(I0
g126
tp714
a(I1
g165
tp715
a(I2
g165
tp716
a(I3
g165
tp717
a(I0
g128
tp718
a(I1
g167
tp719
a(I2
g165
tp720
a(I3
g167
tp721
a(I0
g126
tp722
a(I1
g126
tp723
a(I2
g165
tp724
a(I3
g128
tp725
a(I0
g128
tp726
a(I1
g128
tp727
a(I2
g167
tp728
a(I3
g167
tp729
a(I0
g126
tp730
a(I1
g126
tp731
a(I2
g167
tp732
a(I3
g165
tp733
a(I0
g167
tp734
a(I1
g128
tp735
a(I2
g167
tp736
a(I3
g126
tp737
a(I0
g165
tp738
a(I1
g165
tp739
a(I2
g165
tp740
a(I3
g128
tp741
a(I0
g167
tp742
a(I1
g167
tp743
a(I2
g167
tp744
a(I3
g126
tp745
a(I0
g167
tp746
a(I1
g167
tp747
a(I2
g165
tp748
a(I3
g165
tp749
a(I0
g165
tp750
a(I1
g128
tp751
a(I2
g165
tp752
a(I3
g167
tp753
a(I0
g165
tp754
a(I1
g167
tp755
a(I2
g165
tp756
a(I3
g167
tp757
a(I0
g128
tp758
a(I1
g126
tp759
a(I2
g167
tp760
a(I3
g128
tp761
a(I0
g126
tp762
a(I1
g126
tp763
a(I2
g167
tp764
a(I3
g126
tp765
a(I0
g128
tp766
a(I1
g126
tp767
a(I2
g167
tp768
a(I3
g165
tp769
a(I0
g126
tp770
a(I1
g126
tp771
a(I2
g165
tp772
a(I3
g128
tp773
a(I0
g128
tp774
a(I1
g126
tp775
a(I2
g167
tp776
a(I3
g126
tp777
a(I0
g128
tp778
a(I1
g126
tp779
a(I2
g165
tp780
a(I3
g165
tp781
a(I0
g128
tp782
a(I1
g126
tp783
a(I2
g165
tp784
a(I3
g167
tp785
a(I0
g167
tp786
a(I1
g126
tp787
a(I2
g165
tp788
a(I3
g128
tp789
a(I0
g167
tp790
a(I1
g126
tp791
a(I2
g167
tp792
a(I3
g167
tp793
a(I0
g167
tp794
a(I1
g126
tp795
a(I2
g167
tp796
a(I3
g165
tp797
a(I0
g165
tp798
a(I1
g167
tp799
a(I2
g167
tp800
a(I3
g126
tp801
a(I0
g165
tp802
a(I1
g167
tp803
a(I2
g165
tp804
a(I3
g128
tp805
a(I0
g167
tp806
a(I1
g128
tp807
a(I2
g167
tp808
a(I3
g126
tp809
a(I0
g167
tp810
a(I1
g128
tp811
a(I2
g165
tp812
a(I3
g128
tp813
a(I0
g167
tp814
a(I1
g128
tp815
a(I2
g167
tp816
a(I3
g126
tp817
a(I0
g293
tp818
a(I1
g128
tp819
a(I2
g165
tp820
a(I3
g165
tp821
a(I0
g128
tp822
a(I1
g128
tp823
a(I2
g165
tp824
a(I3
g167
tp825
a(I0
g128
tp826
a(I1
g128
tp827
a(I2
g165
tp828
a(I3
g167
tp829
a(I0
g126
tp830
a(I1
g128
tp831
a(I2
g167
tp832
a(I3
g128
tp833
a(I0
g128
tp834
a(I1
g128
tp835
a(I2
g167
tp836
a(I3
g165
tp837
a(I0
g293
tp838
a(I1
g128
tp839
a(I2
g167
tp840
a(I3
g126
tp841
a(I0
g293
tp842
a(I1
g128
tp843
a(I2
g165
tp844
a(I3
g167
tp845
a(I0
g293
tp846
a(I1
g167
tp847
a(I2
g167
tp848
a(I3
g165
tp849
a(I0
g126
tp850
a(I1
g167
tp851
a(I2
g165
tp852
a(I3
g126
tp853
a(I0
g128
tp854
a(I1
g126
tp855
a(I2
g165
tp856
a(I3
g128
tp857
a(I0
g126
tp858
a(I1
g126
tp859
a(I2
g165
tp860
a(I3
g167
tp861
a(I0
g128
tp862
a(I1
g126
tp863
a(I2
g167
tp864
a(I3
g128
tp865
a(I0
g293
tp866
a(I1
g126
tp867
a(I2
g167
tp868
a(I3
g165
tp869
a(I0
g126
tp870
a(I1
g126
tp871
a(I2
g167
tp872
a(I3
g126
tp873
a(I0
g128
tp874
a(I1
g167
tp875
a(I2
g165
tp876
a(I3
g126
tp877
a(I0
g126
tp878
a(I1
g167
tp879
a(I2
g165
tp880
a(I3
g128
tp881
a(I0
g128
tp882
a(I1
g128
tp883
a(I2
g165
tp884
a(I3
g167
tp885
a(I0
g293
tp886
a(I1
g128
tp887
a(I2
g167
tp888
a(I3
g128
tp889
a(I0
g293
tp890
a(I1
g128
tp891
a(I2
g167
tp892
a(I3
g126
tp893
a(I0
g293
tp894
a(I1
g167
tp895
a(I2
g167
tp896
a(I3
g165
tp897
a(I0
g126
tp898
a(I1
g167
tp899
a(I2
g165
tp900
a(I3
g167
tp901
a(I0
g293
tp902
a(I1
g128
tp903
a(I2
g167
tp904
a(I3
g165
tp905
a(I0
g128
tp906
a(I1
g167
tp907
a(I2
g165
tp908
a(I3
g167
tp909
a(I0
g293
tp910
a(I1
g167
tp911
a(I2
g167
tp912
a(I3
g165
tp913
a(I0
g126
tp914
a(I1
g167
tp915
a(I2
g165
tp916
a(I3
g165
tp917
a(I0
g128
tp918
a(I1
g167
tp919
a(I2
g165
tp920
a(I3
g167
tp921
a(I0
g293
tp922
a(I1
g167
tp923
a(I2
g165
tp924
a(I3
g128
tp925
a(I0
g293
tp926
a(I1
g167
tp927
a(I2
g167
tp928
a(I3
g167
tp929
a(I0
g293
tp930
a(I1
g167
tp931
a(I2
g167
tp932
a(I3
g126
tp933
a(I0
g126
tp934
a(I1
g167
tp935
a(I2
g167
tp936
a(I3
g165
tp937
a(I0
g128
tp938
a(I1
g167
tp939
a(I2
g165
tp940
a(I3
g167
tp941
a(I0
g126
tp942
a(I1
g293
tp943
a(I2
g167
tp944
a(I3
g165
tp945
a(I0
g128
tp946
a(I1
g128
tp947
a(I2
g167
tp948
a(I3
g128
tp949
a(I0
g293
tp950
a(I1
g167
tp951
a(I2
g165
tp952
a(I3
g126
tp953
a(I0
g126
tp954
a(I1
g293
tp955
a(I2
g165
tp956
a(I3
g126
tp957
a(I0
g126
tp958
a(I1
g165
tp959
a(I2
g167
tp960
a(I3
g128
tp961
a(I0
g293
tp962
a(I1
g293
tp963
a(I2
g167
tp964
a(I3
g126
tp965
a(I0
g293
tp966
a(I1
g167
tp967
a(I2
g165
tp968
a(I3
g128
tp969
a(I0
g165
tp970
a(I1
g293
tp971
a(I2
g165
tp972
a(I3
g128
tp973
a(I0
g165
tp974
a(I1
g165
tp975
a(I2
g167
tp976
a(I3
g126
tp977
a(I0
g128
tp978
a(I1
g165
tp979
a(I2
g165
tp980
a(I3
g167
tp981
a(I0
g126
tp982
a(I1
g126
tp983
a(I2
g167
tp984
a(I3
g165
tp985
a(I0
g165
tp986
a(I1
g167
tp987
a(I2
g165
tp988
a(I3
g126
tp989
a(I0
g167
tp990
a(I1
g128
tp991
a(I2
g167
tp992
a(I3
g128
tp993
a(I0
g167
tp994
a(I1
g165
tp995
a(I2
g165
tp996
a(I3
g167
tp997
a(I0
g165
tp998
a(I1
g126
tp999
a(I2
g167
tp1000
a(I3
g165
tp1001
a(I0
g165
tp1002
a(I1
g167
tp1003
a(I2
g165
tp1004
a(I3
g126
tp1005
a(I0
g165
tp1006
a(I1
g128
tp1007
a(I2
g167
tp1008
a(I3
g128
tp1009
a(I0
g126
tp1010
a(I1
g165
tp1011
a(I2
g165
tp1012
a(I3
g128
tp1013
a(I0
g128
tp1014
a(I1
g126
tp1015
a(I2
g167
tp1016
a(I3
g126
tp1017
a(I0
g167
tp1018
a(I1
g167
tp1019
a(I2
g165
tp1020
a(I3
g167
tp1021
a(I0
g165
tp1022
a(I1
g165
tp1023
a(I2
g167
tp1024
a(I3
g165
tp1025
a(I0
g167
tp1026
a(I1
g167
tp1027
a(I2
g165
tp1028
a(I3
g167
tp1029
a(I0
g167
tp1030
a(I1
g165
tp1031
a(I2
g167
tp1032
a(I3
g165
tp1033
a(I0
g167
tp1034
a(I1
g128
tp1035
a(I2
g165
tp1036
a(I3
g165
tp1037
a(I0
g167
tp1038
a(I1
g126
tp1039
a(I2
g167
tp1040
a(I3
g167
tp1041
a(I0
g128
tp1042
a(I1
g167
tp1043
a(I2
g165
tp1044
a(I3
g128
tp1045
a(I0
g126
tp1046
a(I1
g165
tp1047
a(I2
g167
tp1048
a(I3
g126
tp1049
a(I0
g293
tp1050
a(I1
g128
tp1051
a(I2
g165
tp1052
a(I3
g167
tp1053
a(I0
g293
tp1054
a(I1
g126
tp1055
a(I2
g167
tp1056
a(I3
g165
tp1057
a(I0
g128
tp1058
a(I1
g167
tp1059
a(I2
g165
tp1060
a(I3
g165
tp1061
a(I0
g128
tp1062
a(I1
g165
tp1063
a(I2
g167
tp1064
a(I3
g167
tp1065
a(I0
g126
tp1066
a(I1
g167
tp1067
a(I2
g165
tp1068
a(I3
g128
tp1069
a(I0
g293
tp1070
a(I1
g165
tp1071
a(I2
g167
tp1072
a(I3
g126
tp1073
a(I0
g126
tp1074
a(I1
g128
tp1075
a(I2
g165
tp1076
a(I3
g128
tp1077
a(I0
g165
tp1078
a(I1
g126
tp1079
a(I2
g167
tp1080
a(I3
g126
tp1081
a(I0
g167
tp1082
a(I1
g167
tp1083
a(I2
g165
tp1084
a(I3
g126
tp1085
a(I0
g293
tp1086
a(I1
g165
tp1087
a(I2
g167
tp1088
a(I3
g128
tp1089
a(I0
g165
tp1090
a(I1
g128
tp1091
a(I2
g165
tp1092
a(I3
g128
tp1093
a(I0
g165
tp1094
a(I1
g126
tp1095
a(I2
g167
tp1096
a(I3
g126
tp1097
a(I0
g165
tp1098
a(I1
g167
tp1099
a(I2
g165
tp1100
a(I3
g165
tp1101
a(I0
g167
tp1102
a(I1
g165
tp1103
a(I2
g167
tp1104
a(I3
g167
tp1105
a(I0
g165
tp1106
a(I1
g167
tp1107
a(I2
g165
tp1108
a(I3
g167
tp1109
a(I0
g167
tp1110
a(I1
g165
tp1111
a(I2
g167
tp1112
a(I3
g165
tp1113
a(I0
g167
tp1114
a(I1
g128
tp1115
a(I2
g165
tp1116
a(I3
g126
tp1117
a(I0
g165
tp1118
a(I1
g126
tp1119
a(I2
g167
tp1120
a(I3
g128
tp1121
a(I0
g128
tp1122
a(I1
g167
tp1123
a(I2
g165
tp1124
a(I3
g128
tp1125
a(I0
g126
tp1126
a(I1
g165
tp1127
a(I2
g167
tp1128
a(I3
g126
tp1129
a(I0
g165
tp1130
a(I1
g128
tp1131
a(I2
g165
tp1132
a(I3
g165
tp1133
a(I0
g167
tp1134
a(I1
g126
tp1135
a(I2
g167
tp1136
a(I3
g167
tp1137
a(I0
g167
tp1138
a(I1
g167
tp1139
a(I2
g165
tp1140
a(I3
g165
tp1141
a(I0
g165
tp1142
a(I1
g165
tp1143
a(I2
g167
tp1144
a(I3
g167
tp1145
a(I0
g167
tp1146
a(I1
g167
tp1147
a(I2
g165
tp1148
a(I3
g167
tp1149
a(I0
g167
tp1150
a(I1
g165
tp1151
a(I2
g167
tp1152
a(I3
g165
tp1153
a(I0
g128
tp1154
a(I1
g128
tp1155
a(I2
g165
tp1156
a(I3
g167
tp1157
a(I0
g128
tp1158
a(I1
g126
tp1159
a(I2
g167
tp1160
a(I3
g165
tp1161
a(I0
g293
tp1162
a(I1
g167
tp1163
a(I2
g165
tp1164
a(I3
g165
tp1165
a(I0
g126
tp1166
a(I1
g165
tp1167
a(I2
g167
tp1168
a(I3
g167
tp1169
a(I0
g128
tp1170
a(I1
g128
tp1171
a(I2
g165
tp1172
a(I3
g128
tp1173
a(I0
g126
tp1174
a(I1
g126
tp1175
a(I2
g167
tp1176
a(I3
g126
tp1177
a(I0
g293
tp1178
a(I1
g167
tp1179
a(I2
g165
tp1180
a(I3
g126
tp1181
a(I0
g126
tp1182
a(I1
g165
tp1183
a(I2
g167
tp1184
a(I3
g128
tp1185
a(I0
g293
tp1186
a(I1
g167
tp1187
a(I2
g165
tp1188
a(I3
g126
tp1189
a(I0
g165
tp1190
a(I1
g165
tp1191
a(I2
g167
tp1192
a(I3
g128
tp1193
a(I0
g165
tp1194
a(I1
g128
tp1195
a(I2
g165
tp1196
a(I3
g128
tp1197
a(I0
g167
tp1198
a(I1
g126
tp1199
a(I2
g167
tp1200
a(I3
g126
tp1201
a(I0
g165
tp1202
a(I1
g167
tp1203
a(I2
g165
tp1204
a(I3
g165
tp1205
a(I0
g167
tp1206
a(I1
g165
tp1207
a(I2
g167
tp1208
a(I3
g167
tp1209
a(I0
g165
tp1210
a(I1
g128
tp1211
a(I2
g165
tp1212
a(I3
g126
tp1213
a(I0
g167
tp1214
a(I1
g126
tp1215
a(I2
g167
tp1216
a(I3
g128
tp1217
a(I0
g165
tp1218
a(I1
g167
tp1219
a(I2
g165
tp1220
a(I3
g126
tp1221
a(I0
g167
tp1222
a(I1
g165
tp1223
a(I2
g167
tp1224
a(I3
g128
tp1225
a(I0
g167
tp1226
a(I1
g167
tp1227
a(I2
g165
tp1228
a(I3
g167
tp1229
a(I0
g165
tp1230
a(I1
g165
tp1231
a(I2
g167
tp1232
a(I3
g165
tp1233
a(I0
g167
tp1234
a(I1
g128
tp1235
a(I2
g165
tp1236
a(I3
g165
tp1237
a(I0
g128
tp1238
a(I1
g126
tp1239
a(I2
g167
tp1240
a(I3
g167
tp1241
a(I0
g293
tp1242
a(I1
g167
tp1243
a(I2
g165
tp1244
a(I3
g126
tp1245
a(I0
g128
tp1246
a(I1
g165
tp1247
a(I2
g167
tp1248
a(I3
g128
tp1249
a(I0
g293
tp1250
a(I1
g128
tp1251
a(I2
g165
tp1252
a(I3
g126
tp1253
a(I0
g126
tp1254
a(I1
g126
tp1255
a(I2
g167
tp1256
a(I3
g128
tp1257
a(I0
g126
tp1258
a(I1
g167
tp1259
a(I2
g165
tp1260
a(I3
g165
tp1261
a(I0
g293
tp1262
a(I1
g165
tp1263
a(I2
g167
tp1264
a(I3
g167
tp1265
a(I0
g128
tp1266
a(I1
g167
tp1267
a(I2
g165
tp1268
a(I3
g165
tp1269
a(I0
g126
tp1270
a(I1
g165
tp1271
a(I2
g167
tp1272
a(I3
g167
tp1273
a(I0
g165
tp1274
a(I1
g128
tp1275
a(I2
g165
tp1276
a(I3
g165
tp1277
a(I0
g165
tp1278
a(I1
g126
tp1279
a(I2
g167
tp1280
a(I3
g167
tp1281
a(I0
g167
tp1282
a(I1
g167
tp1283
a(I2
g165
tp1284
a(I3
g167
tp1285
a(I0
g167
tp1286
a(I1
g165
tp1287
a(I2
g167
tp1288
a(I3
g165
tp1289
a(I0
g293
tp1290
a(I1
g128
tp1291
a(I2
g165
tp1292
a(I3
g126
tp1293
a(I0
g128
tp1294
a(I1
g126
tp1295
a(I2
g167
tp1296
a(I3
g128
tp1297
a(I0
g128
tp1298
a(I1
g167
tp1299
a(I2
g165
tp1300
a(I3
g126
tp1301
a(I0
g293
tp1302
a(I1
g165
tp1303
a(I2
g167
tp1304
a(I3
g128
tp1305
a(I0
g293
tp1306
a(I1
g167
tp1307
a(I2
g165
tp1308
a(I3
g126
tp1309
a(I0
g293
tp1310
a(I1
g165
tp1311
a(I2
g167
tp1312
a(I3
g128
tp1313
a(I0
g126
tp1314
a(I1
g128
tp1315
a(I2
g165
tp1316
a(I3
g165
tp1317
a(I0
g126
tp1318
a(I1
g126
tp1319
a(I2
g167
tp1320
a(I3
g167
tp1321
a(I0
g293
tp1322
a(I1
g167
tp1323
a(I2
g165
tp1324
a(I3
g165
tp1325
a(I0
g165
tp1326
a(I1
g165
tp1327
a(I2
g167
tp1328
a(I3
g167
tp1329
a(I0
g165
tp1330
asS'length'
p1331
I1200
sS'agents'
p1332
(lp1333
(igame
Agent
p1334
(dp1335
S'index'
p1336
I0
sba(igame
Agent
p1337
(dp1338
g1336
I0
sba(igame
Agent
p1339
(dp1340
g1336
I0
sba(igame
Agent
p1341
(dp1342
g1336
I0
sbasS'redTeamName'
p1343
S'Red'
p1344
s.