(dp1
S'layout'
p2
(ilayout
Layout
p3
(dp4
S'capsules'
p5
(lp6
sS'numGhosts'
p7
I4
sS'food'
p8
(igame
Grid
p9
(dp10
S'CELLS_PER_INT'
p11
I30
sS'width'
p12
I18
sS'data'
p13
(lp14
(lp15
I00
aI00
aI00
aI00
aI00
aI00
aI00
aI00
aI00
aI00
aI00
aI00
aI00
aI00
aI00
aI00
aI00
aI00
aI00
aI00
aa(lp16
I00
aI00
aI00
aI00
aI00
aI00
aI00
aI00
aI00
aI00
aI00
aI00
aI00
aI00
aI00
aI00
aI00
aI00
aI00
aI00
aa(lp17
I00
aI00
aI00
aI00
aI00
aI00
aI00
aI00
aI00
aI00
aI00
aI00
aI00
aI00
aI00
aI00
aI00
aI00
aI00
aI00
aa(lp18
I00
aI01
aI00
aI01
aI01
aI01
aI01
aI00
aI01
aI00
aI00
aI01
aI00
aI01
aI01
aI01
aI01
aI01
aI00
aI00
aa(lp19
I00
aI01
aI00
aI00
aI01
aI00
aI00
aI00
aI01
aI00
aI00
aI01
aI00
aI00
aI00
aI00
aI01
aI01
aI00
aI00
aa(lp20
I00
aI01
aI00
aI00
aI01
aI00
aI00
aI00
aI00
aI00
aI00
aI00
aI00
aI00
aI00
aI00
aI01
aI01
aI00
aI00
aa(lp21
I00
aI01
aI00
aI00
aI01
aI00
aI00
aI00
aI00
aI00
aI00
aI00
aI01
aI01
aI00
aI00
aI01
aI01
aI00
aI00
aa(lp22
I00
aI00
aI00
aI00
aI01
aI01
aI00
aI00
aI01
aI01
aI01
aI01
aI00
aI00
aI01
aI00
aI01
aI01
aI00
aI00
aa(lp23
I00
aI00
aI00
aI00
aI00
aI00
aI00
aI00
aI00
aI00
aI00
aI00
aI00
aI00
aI00
aI00
aI00
aI00
aI00
aI00
aa(lp24
I00
aI00
aI00
aI00
aI00
aI00
aI00
aI00
aI00
aI00
aI00
aI00
aI00
aI00
aI00
aI00
aI00
aI00
aI00
aI00
aa(lp25
I00
aI00
aI00
aI00
aI01
aI01
aI00
aI00
aI01
aI01
aI01
aI01
aI00
aI00
aI01
aI00
aI01
aI01
aI00
aI00
aa(lp26
I00
aI01
aI00
aI00
aI01
aI00
aI00
aI00
aI00
aI00
aI00
aI00
aI01
aI01
aI00
aI00
aI01
aI01
aI00
aI00
aa(lp27
I00
aI01
aI00
aI00
aI01
aI00
aI00
aI00
aI00
aI00
aI00
aI00
aI00
aI00
aI00
aI00
aI01
aI01
aI00
aI00
aa(lp28
I00
aI01
aI00
aI00
aI01
aI00
aI00
aI00
aI01
aI00
aI00
aI01
aI00
aI00
aI00
aI00
aI01
aI01
aI00
aI00
aa(lp29
I00
aI01
aI00
aI01
aI01
aI01
aI01
aI00
aI01
aI00
aI00
aI01
aI00
aI01
aI01
aI01
aI01
aI01
aI00
aI00
aa(lp30
I00
aI00
aI00
aI00
aI00
aI00
aI00
aI00
aI00
aI00
aI00
aI00
aI00
aI00
aI00
aI00
aI00
aI00
aI00
aI00
aa(lp31
I00
aI00
aI00
aI00
aI00
aI00
aI00
aI00
aI00
aI00
aI00
aI00
aI00
aI00
aI00
aI00
aI00
aI00
aI00
aI00
aa(lp32
I00
aI00
aI00
aI00
aI00
aI00
aI00
aI00
aI00
aI00
aI00
aI00
aI00
aI00
aI00
aI00
aI00
aI00
aI00
aI00
aasS'height'
p33
I20
sbsS'agentPositions'
p34
(lp35
(I00
(I1
I18
tp36
tp37
a(I00
(I16
I18
tp38
tp39
a(I00
(I1
I1
tp40
tp41
a(I00
(I16
I1
tp42
tp43
asg33
I20
sg12
I18
sS'walls'
p44
(igame
Grid
p45
(dp46
g11
I30
sg12
I18
sg13
(lp47
(lp48
I01
aI01
aI01
aI01
aI01
aI01
aI01
aI01
aI01
aI01
aI01
aI01
aI01
aI01
aI01
aI01
aI01
aI01
aI01
aI01
aa(lp49
I01
aI00
aI00
aI00
aI00
aI00
aI00
aI00
aI00
aI01
aI01
aI00
aI00
aI00
aI00
aI00
aI00
aI00
aI00
aI01
aa(lp50
I01
aI01
aI01
aI01
aI01
aI01
aI01
aI01
aI00
aI01
aI01
aI00
aI01
aI01
aI01
aI01
aI01
aI01
aI01
aI01
aa(lp51
I01
aI00
aI00
aI00
aI00
aI00
aI00
aI00
aI00
aI01
aI01
aI00
aI00
aI00
aI00
aI00
aI00
aI00
aI01
aI01
aa(lp52
I01
aI00
aI01
aI01
aI00
aI01
aI01
aI01
aI00
aI00
aI00
aI00
aI01
aI01
aI01
aI01
aI00
aI00
aI01
aI01
aa(lp53
I01
aI00
aI01
aI01
aI00
aI00
aI00
aI00
aI00
aI00
aI00
aI00
aI00
aI00
aI00
aI00
aI00
aI00
aI01
aI01
aa(lp54
I01
aI00
aI00
aI00
aI00
aI01
aI01
aI00
aI01
aI01
aI01
aI01
aI00
aI00
aI00
aI01
aI00
aI00
aI01
aI01
aa(lp55
I01
aI00
aI01
aI01
aI00
aI00
aI01
aI00
aI00
aI00
aI00
aI00
aI00
aI01
aI00
aI01
aI00
aI00
aI01
aI01
aa(lp56
I01
aI00
aI00
aI00
aI00
aI00
aI01
aI00
aI01
aI01
aI01
aI01
aI00
aI01
aI00
aI01
aI00
aI00
aI01
aI01
aa(lp57
I01
aI00
aI00
aI00
aI00
aI00
aI01
aI00
aI01
aI01
aI01
aI01
aI00
aI01
aI00
aI01
aI00
aI00
aI01
aI01
aa(lp58
I01
aI00
aI01
aI01
aI00
aI00
aI01
aI00
aI00
aI00
aI00
aI00
aI00
aI01
aI00
aI01
aI00
aI00
aI01
aI01
aa(lp59
I01
aI00
aI00
aI00
aI00
aI01
aI01
aI00
aI01
aI01
aI01
aI01
aI00
aI00
aI00
aI01
aI00
aI00
aI01
aI01
aa(lp60
I01
aI00
aI01
aI01
aI00
aI00
aI00
aI00
aI00
aI00
aI00
aI00
aI00
aI00
aI00
aI00
aI00
aI00
aI01
aI01
aa(lp61
I01
aI00
aI01
aI01
aI00
aI01
aI01
aI01
aI00
aI00
aI00
aI00
aI01
aI01
aI01
aI01
aI00
aI00
aI01
aI01
aa(lp62
I01
aI00
aI00
aI00
aI00
aI00
aI00
aI00
aI00
aI01
aI01
aI00
aI00
aI00
aI00
aI00
aI00
aI00
aI01
aI01
aa(lp63
I01
aI01
aI01
aI01
aI01
aI01
aI01
aI01
aI00
aI01
aI01
aI00
aI01
aI01
aI01
aI01
aI01
aI01
aI01
aI01
aa(lp64
I01
aI00
aI00
aI00
aI00
aI00
aI00
aI00
aI00
aI01
aI01
aI00
aI00
aI00
aI00
aI00
aI00
aI00
aI00
aI01
aa(lp65
I01
aI01
aI01
aI01
aI01
aI01
aI01
aI01
aI01
aI01
aI01
aI01
aI01
aI01
aI01
aI01
aI01
aI01
aI01
aI01
aasg33
I20
sbsS'totalFood'
p66
I74
sS'layoutText'
p67
(lp68
S'%%%%%%%%%%%%%%%%%%'
p69
aS'%1%%%%%%%%%%%%%%2%'
p70
aS'% %.....  .....% %'
p71
aS'% %.....  .....% %'
p72
aS'% %.% %%%%%% %.% %'
p73
aS'% %.%  .  .  %.% %'
p74
aS'% %.% .%%%%. %.% %'
p75
aS'% % % .    . % % %'
p76
aS'%  .. %.%%.% ..  %'
p77
aS'%%%%  %.%%.%  %%%%'
p78
aS'%%%%  %.%%.%  %%%%'
p79
aS'%  .. %.%%.% ..  %'
p80
aS'% % %        % % %'
p81
aS'% %.% %%%%%% %.% %'
p82
aS'% %.% %.  .% %.% %'
p83
aS'% %.....  .....% %'
p84
aS'% %.%% %  % %%.% %'
p85
aS'% % %% %  % %% % %'
p86
aS'%3%....    ....%4%'
p87
aS'%%%%%%%%%%%%%%%%%%'
p88
asbsS'blueTeamName'
p89
S'Blue'
p90
sS'actions'
p91
(lp92
(I0
S'South'
p93
tp94
a(I1
g93
tp95
a(I2
S'North'
p96
tp97
a(I3
g96
tp98
a(I0
g93
tp99
a(I1
g93
tp100
a(I2
g96
tp101
a(I3
g96
tp102
a(I0
g93
tp103
a(I1
g93
tp104
a(I2
g96
tp105
a(I3
g96
tp106
a(I0
g93
tp107
a(I1
g93
tp108
a(I2
g96
tp109
a(I3
g96
tp110
a(I0
g93
tp111
a(I1
g93
tp112
a(I2
g96
tp113
a(I3
g96
tp114
a(I0
g93
tp115
a(I1
g93
tp116
a(I2
g96
tp117
a(I3
g96
tp118
a(I0
g93
tp119
a(I1
g93
tp120
a(I2
g96
tp121
a(I3
g96
tp122
a(I0
S'East'
p123
tp124
a(I1
S'West'
p125
tp126
a(I2
g123
tp127
a(I3
g125
tp128
a(I0
g123
tp129
a(I1
g125
tp130
a(I2
g123
tp131
a(I3
g125
tp132
a(I0
g123
tp133
a(I1
g125
tp134
a(I2
g123
tp135
a(I3
g125
tp136
a(I0
g123
tp137
a(I1
g125
tp138
a(I2
g123
tp139
a(I3
g125
tp140
a(I0
g96
tp141
a(I1
g96
tp142
a(I2
g93
tp143
a(I3
g93
tp144
a(I0
g123
tp145
a(I1
g125
tp146
a(I2
g123
tp147
a(I3
g125
tp148
a(I0
g123
tp149
a(I1
g125
tp150
a(I2
g123
tp151
a(I3
g125
tp152
a(I0
g123
tp153
a(I1
g125
tp154
a(I2
g123
tp155
a(I3
g96
tp156
a(I0
g125
tp157
a(I1
g125
tp158
a(I2
g125
tp159
a(I3
g96
tp160
a(I0
g123
tp161
a(I1
g93
tp162
a(I2
g125
tp163
a(I3
g93
tp164
a(I0
g123
tp165
a(I1
g93
tp166
a(I2
g125
tp167
a(I3
g93
tp168
a(I0
g123
tp169
a(I1
g93
tp170
a(I2
g93
tp171
a(I3
g123
tp172
a(I0
g123
tp173
a(I1
g93
tp174
a(I2
g93
tp175
a(I3
g123
tp176
a(I0
g96
tp177
a(I1
g93
tp178
a(I2
g93
tp179
a(I3
g96
tp180
a(I0
g96
tp181
a(I1
g93
tp182
a(I2
g125
tp183
a(I3
g96
tp184
a(I0
g125
tp185
a(I1
g93
tp186
a(I2
g125
tp187
a(I3
g96
tp188
a(I0
g123
tp189
a(I1
g125
tp190
a(I2
g96
tp191
a(I3
g96
tp192
a(I0
g123
tp193
a(I1
g125
tp194
a(I2
g96
tp195
a(I3
g96
tp196
a(I0
g96
tp197
a(I1
g125
tp198
a(I2
g96
tp199
a(I3
g96
tp200
a(I0
g96
tp201
a(I1
g125
tp202
a(I2
g96
tp203
a(I3
g96
tp204
a(I0
g123
tp205
a(I1
g96
tp206
a(I2
g125
tp207
a(I3
g96
tp208
a(I0
g123
tp209
a(I1
g96
tp210
a(I2
g125
tp211
a(I3
g96
tp212
a(I0
g96
tp213
a(I1
g96
tp214
a(I2
g93
tp215
a(I3
g96
tp216
a(I0
g93
tp217
a(I1
g96
tp218
a(I2
g93
tp219
a(I3
g123
tp220
a(I0
g93
tp221
a(I1
g96
tp222
a(I2
g93
tp223
a(I3
g123
tp224
a(I0
g93
tp225
a(I1
g123
tp226
a(I2
g93
tp227
a(I3
g93
tp228
a(I0
g93
tp229
a(I1
g123
tp230
a(I2
g93
tp231
a(I3
g93
tp232
a(I0
g93
tp233
a(I1
g93
tp234
a(I2
g93
tp235
a(I3
g93
tp236
a(I0
g93
tp237
a(I1
g93
tp238
a(I2
g93
tp239
a(I3
g93
tp240
a(I0
g125
tp241
a(I1
g93
tp242
a(I2
g96
tp243
a(I3
g93
tp244
a(I0
g93
tp245
a(I1
g93
tp246
a(I2
g96
tp247
a(I3
g93
tp248
a(I0
g93
tp249
a(I1
g93
tp250
a(I2
g96
tp251
a(I3
g125
tp252
a(I0
g93
tp253
a(I1
g125
tp254
a(I2
g96
tp255
a(I3
g93
tp256
a(I0
g123
tp257
a(I1
g93
tp258
a(I2
g96
tp259
a(I3
g93
tp260
a(I0
g93
tp261
a(I1
g93
tp262
a(I2
g96
tp263
a(I3
g93
tp264
a(I0
g93
tp265
a(I1
g93
tp266
a(I2
g96
tp267
a(I3
g123
tp268
a(I0
g93
tp269
a(I1
g123
tp270
a(I2
g123
tp271
a(I3
g93
tp272
a(I0
g93
tp273
a(I1
g93
tp274
a(I2
g123
tp275
a(I3
g93
tp276
a(I0
g125
tp277
a(I1
g93
tp278
a(I2
g123
tp279
a(I3
g93
tp280
a(I0
g125
tp281
a(I1
g93
tp282
a(I2
g96
tp283
a(I3
g93
tp284
a(I0
g125
tp285
a(I1
g93
tp286
a(I2
g123
tp287
a(I3
g125
tp288
a(I0
g125
tp289
a(I1
g125
tp290
a(I2
g96
tp291
a(I3
g125
tp292
a(I0
g96
tp293
a(I1
g125
tp294
a(I2
g96
tp295
a(I3
g125
tp296
a(I0
g125
tp297
a(I1
g125
tp298
a(I2
g125
tp299
a(I3
g125
tp300
a(I0
g125
tp301
a(I1
g93
tp302
a(I2
g93
tp303
a(I3
g96
tp304
a(I0
g93
tp305
a(I1
g93
tp306
a(I2
g123
tp307
a(I3
g125
tp308
a(I0
g93
tp309
a(I1
g96
tp310
a(I2
g96
tp311
a(I3
g93
tp312
a(I0
g93
tp313
a(I1
g96
tp314
a(I2
g125
tp315
a(I3
g123
tp316
a(I0
g93
tp317
a(I1
g125
tp318
a(I2
g93
tp319
a(I3
g123
tp320
a(I0
g123
tp321
a(I1
g125
tp322
a(I2
g93
tp323
a(I3
g93
tp324
a(I0
g123
tp325
a(I1
g93
tp326
a(I2
g123
tp327
a(I3
g93
tp328
a(I0
S'Stop'
p329
tp330
a(I1
g93
tp331
a(I2
g93
tp332
a(I3
g93
tp333
a(I0
g123
tp334
a(I1
g93
tp335
a(I2
g125
tp336
a(I3
g96
tp337
a(I0
g93
tp338
a(I1
g125
tp339
a(I2
g125
tp340
a(I3
g96
tp341
a(I0
g93
tp342
a(I1
g125
tp343
a(I2
g93
tp344
a(I3
g96
tp345
a(I0
g93
tp346
a(I1
g125
tp347
a(I2
g93
tp348
a(I3
g123
tp349
a(I0
g93
tp350
a(I1
g125
tp351
a(I2
g93
tp352
a(I3
g96
tp353
a(I0
g93
tp354
a(I1
g125
tp355
a(I2
g93
tp356
a(I3
g96
tp357
a(I0
g93
tp358
a(I1
g125
tp359
a(I2
g93
tp360
a(I3
g96
tp361
a(I0
g93
tp362
a(I1
g123
tp363
a(I2
g93
tp364
a(I3
g125
tp365
a(I0
g123
tp366
a(I1
g123
tp367
a(I2
g93
tp368
a(I3
g125
tp369
a(I0
g123
tp370
a(I1
g123
tp371
a(I2
g123
tp372
a(I3
g125
tp373
a(I0
g123
tp374
a(I1
g123
tp375
a(I2
g123
tp376
a(I3
g125
tp377
a(I0
g123
tp378
a(I1
g123
tp379
a(I2
g123
tp380
a(I3
g125
tp381
a(I0
g96
tp382
a(I1
g123
tp383
a(I2
g96
tp384
a(I3
g96
tp385
a(I0
g123
tp386
a(I1
g123
tp387
a(I2
g96
tp388
a(I3
g96
tp389
a(I0
g123
tp390
a(I1
g125
tp391
a(I2
g96
tp392
a(I3
g96
tp393
a(I0
g123
tp394
a(I1
g125
tp395
a(I2
g123
tp396
a(I3
g96
tp397
a(I0
g123
tp398
a(I1
g96
tp399
a(I2
g123
tp400
a(I3
g96
tp401
a(I0
g123
tp402
a(I1
g123
tp403
a(I2
g125
tp404
a(I3
g123
tp405
a(I0
g93
tp406
a(I1
g96
tp407
a(I2
g125
tp408
a(I3
g123
tp409
a(I0
g93
tp410
a(I1
g96
tp411
a(I2
g125
tp412
a(I3
g123
tp413
a(I0
g93
tp414
a(I1
g123
tp415
a(I2
g96
tp416
a(I3
g93
tp417
a(I0
g93
tp418
a(I1
g123
tp419
a(I2
g96
tp420
a(I3
g93
tp421
a(I0
g93
tp422
a(I1
g123
tp423
a(I2
g96
tp424
a(I3
g93
tp425
a(I0
g123
tp426
a(I1
g96
tp427
a(I2
g123
tp428
a(I3
g93
tp429
a(I0
g123
tp430
a(I1
g96
tp431
a(I2
g123
tp432
a(I3
g93
tp433
a(I0
g96
tp434
a(I1
g96
tp435
a(I2
g96
tp436
a(I3
g123
tp437
a(I0
g123
tp438
a(I1
g96
tp439
a(I2
g96
tp440
a(I3
g123
tp441
a(I0
g123
tp442
a(I1
g123
tp443
a(I2
g96
tp444
a(I3
g96
tp445
a(I0
g93
tp446
a(I1
g123
tp447
a(I2
g96
tp448
a(I3
g123
tp449
a(I0
g93
tp450
a(I1
g93
tp451
a(I2
g96
tp452
a(I3
g123
tp453
a(I0
g93
tp454
a(I1
g93
tp455
a(I2
g123
tp456
a(I3
g93
tp457
a(I0
g93
tp458
a(I1
g93
tp459
a(I2
g125
tp460
a(I3
g93
tp461
a(I0
g93
tp462
a(I1
g93
tp463
a(I2
g125
tp464
a(I3
g93
tp465
a(I0
g93
tp466
a(I1
g93
tp467
a(I2
g125
tp468
a(I3
g93
tp469
a(I0
g93
tp470
a(I1
g93
tp471
a(I2
g96
tp472
a(I3
g93
tp473
a(I0
g125
tp474
a(I1
g93
tp475
a(I2
g96
tp476
a(I3
g93
tp477
a(I0
g125
tp478
a(I1
g125
tp479
a(I2
g123
tp480
a(I3
g93
tp481
a(I0
g125
tp482
a(I1
g125
tp483
a(I2
g93
tp484
a(I3
g125
tp485
a(I0
g125
tp486
a(I1
g125
tp487
a(I2
g93
tp488
a(I3
g125
tp489
a(I0
g125
tp490
a(I1
g125
tp491
a(I2
g123
tp492
a(I3
g125
tp493
a(I0
g125
tp494
a(I1
g125
tp495
a(I2
g93
tp496
a(I3
g125
tp497
a(I0
g123
tp498
a(I1
g96
tp499
a(I2
g93
tp500
a(I3
g125
tp501
a(I0
g93
tp502
a(I1
g96
tp503
a(I2
g93
tp504
a(I3
g96
tp505
a(I0
g93
tp506
a(I1
g125
tp507
a(I2
g93
tp508
a(I3
g125
tp509
a(I0
g93
tp510
a(I1
g96
tp511
a(I2
g93
tp512
a(I3
g96
tp513
a(I0
g93
tp514
a(I1
g125
tp515
a(I2
g125
tp516
a(I3
g96
tp517
a(I0
g93
tp518
a(I1
g96
tp519
a(I2
g125
tp520
a(I3
g125
tp521
a(I0
g93
tp522
a(I1
g123
tp523
a(I2
g93
tp524
a(I3
g125
tp525
a(I0
g93
tp526
a(I1
g123
tp527
a(I2
g93
tp528
a(I3
g125
tp529
a(I0
g123
tp530
a(I1
g93
tp531
a(I2
g93
tp532
a(I3
g96
tp533
a(I0
g123
tp534
a(I1
g125
tp535
a(I2
g123
tp536
a(I3
g96
tp537
a(I0
g123
tp538
a(I1
g93
tp539
a(I2
g123
tp540
a(I3
g96
tp541
a(I0
g123
tp542
a(I1
g123
tp543
a(I2
g96
tp544
a(I3
g96
tp545
a(I0
g96
tp546
a(I1
g96
tp547
a(I2
g123
tp548
a(I3
g96
tp549
a(I0
g96
tp550
a(I1
g96
tp551
a(I2
g123
tp552
a(I3
g96
tp553
a(I0
g96
tp554
a(I1
g93
tp555
a(I2
g96
tp556
a(I3
g96
tp557
a(I0
g96
tp558
a(I1
g125
tp559
a(I2
g96
tp560
a(I3
g125
tp561
a(I0
g96
tp562
a(I1
g125
tp563
a(I2
g96
tp564
a(I3
g125
tp565
a(I0
g123
tp566
a(I1
g125
tp567
a(I2
g96
tp568
a(I3
g125
tp569
a(I0
g123
tp570
a(I1
g93
tp571
a(I2
g96
tp572
a(I3
g96
tp573
a(I0
g123
tp574
a(I1
g96
tp575
a(I2
g96
tp576
a(I3
g125
tp577
a(I0
g123
tp578
a(I1
g125
tp579
a(I2
g96
tp580
a(I3
g96
tp581
a(I0
g123
tp582
a(I1
g96
tp583
a(I2
g123
tp584
a(I3
g96
tp585
a(I0
g96
tp586
a(I1
g96
tp587
a(I2
g123
tp588
a(I3
g96
tp589
a(I0
g123
tp590
a(I1
g96
tp591
a(I2
g123
tp592
a(I3
g96
tp593
a(I0
g123
tp594
a(I1
g96
tp595
a(I2
g125
tp596
a(I3
g96
tp597
a(I0
g125
tp598
a(I1
g96
tp599
a(I2
g125
tp600
a(I3
g96
tp601
a(I0
g125
tp602
a(I1
g96
tp603
a(I2
g125
tp604
a(I3
g96
tp605
a(I0
g125
tp606
a(I1
g96
tp607
a(I2
g93
tp608
a(I3
g125
tp609
a(I0
g125
tp610
asS'length'
p611
I1200
sS'agents'
p612
(lp613
(igame
Agent
p614
(dp615
S'index'
p616
I0
sba(igame
Agent
p617
(dp618
g616
I0
sba(igame
Agent
p619
(dp620
g616
I0
sba(igame
Agent
p621
(dp622
g616
I0
sbasS'redTeamName'
p623
S'Red'
p624
s.