(dp1
S'layout'
p2
(ilayout
Layout
p3
(dp4
S'capsules'
p5
(lp6
sS'numGhosts'
p7
I4
sS'food'
p8
(igame
Grid
p9
(dp10
S'CELLS_PER_INT'
p11
I30
sS'width'
p12
I18
sS'data'
p13
(lp14
(lp15
I00
aI00
aI00
aI00
aI00
aI00
aI00
aI00
aI00
aI00
aI00
aI00
aI00
aI00
aI00
aI00
aI00
aI00
aI00
aI00
aa(lp16
I00
aI00
aI00
aI00
aI00
aI00
aI00
aI00
aI00
aI00
aI00
aI00
aI00
aI00
aI00
aI00
aI00
aI00
aI00
aI00
aa(lp17
I00
aI00
aI00
aI00
aI00
aI00
aI00
aI00
aI00
aI00
aI00
aI00
aI00
aI00
aI00
aI00
aI00
aI00
aI00
aI00
aa(lp18
I00
aI01
aI00
aI01
aI01
aI01
aI01
aI00
aI01
aI00
aI00
aI01
aI00
aI01
aI01
aI01
aI01
aI01
aI00
aI00
aa(lp19
I00
aI01
aI00
aI00
aI01
aI00
aI00
aI00
aI01
aI00
aI00
aI01
aI00
aI00
aI00
aI00
aI01
aI01
aI00
aI00
aa(lp20
I00
aI01
aI00
aI00
aI01
aI00
aI00
aI00
aI00
aI00
aI00
aI00
aI00
aI00
aI00
aI00
aI01
aI01
aI00
aI00
aa(lp21
I00
aI01
aI00
aI00
aI01
aI00
aI00
aI00
aI00
aI00
aI00
aI00
aI01
aI01
aI00
aI00
aI01
aI01
aI00
aI00
aa(lp22
I00
aI00
aI00
aI00
aI01
aI01
aI00
aI00
aI01
aI01
aI01
aI01
aI00
aI00
aI01
aI00
aI01
aI01
aI00
aI00
aa(lp23
I00
aI00
aI00
aI00
aI00
aI00
aI00
aI00
aI00
aI00
aI00
aI00
aI00
aI00
aI00
aI00
aI00
aI00
aI00
aI00
aa(lp24
I00
aI00
aI00
aI00
aI00
aI00
aI00
aI00
aI00
aI00
aI00
aI00
aI00
aI00
aI00
aI00
aI00
aI00
aI00
aI00
aa(lp25
I00
aI00
aI00
aI00
aI01
aI01
aI00
aI00
aI01
aI01
aI01
aI01
aI00
aI00
aI01
aI00
aI01
aI01
aI00
aI00
aa(lp26
I00
aI01
aI00
aI00
aI01
aI00
aI00
aI00
aI00
aI00
aI00
aI00
aI01
aI01
aI00
aI00
aI01
aI01
aI00
aI00
aa(lp27
I00
aI01
aI00
aI00
aI01
aI00
aI00
aI00
aI00
aI00
aI00
aI00
aI00
aI00
aI00
aI00
aI01
aI01
aI00
aI00
aa(lp28
I00
aI01
aI00
aI00
aI01
aI00
aI00
aI00
aI01
aI00
aI00
aI01
aI00
aI00
aI00
aI00
aI01
aI01
aI00
aI00
aa(lp29
I00
aI01
aI00
aI01
aI01
aI01
aI01
aI00
aI01
aI00
aI00
aI01
aI00
aI01
aI01
aI01
aI01
aI01
aI00
aI00
aa(lp30
I00
aI00
aI00
aI00
aI00
aI00
aI00
aI00
aI00
aI00
aI00
aI00
aI00
aI00
aI00
aI00
aI00
aI00
aI00
aI00
aa(lp31
I00
aI00
aI00
aI00
aI00
aI00
aI00
aI00
aI00
aI00
aI00
aI00
aI00
aI00
aI00
aI00
aI00
aI00
aI00
aI00
aa(lp32
I00
aI00
aI00
aI00
aI00
aI00
aI00
aI00
aI00
aI00
aI00
aI00
aI00
aI00
aI00
aI00
aI00
aI00
aI00
aI00
aasS'height'
p33
I20
sbsS'agentPositions'
p34
(lp35
(I00
(I1
I18
tp36
tp37
a(I00
(I16
I18
tp38
tp39
a(I00
(I1
I1
tp40
tp41
a(I00
(I16
I1
tp42
tp43
asg33
I20
sg12
I18
sS'walls'
p44
(igame
Grid
p45
(dp46
g11
I30
sg12
I18
sg13
(lp47
(lp48
I01
aI01
aI01
aI01
aI01
aI01
aI01
aI01
aI01
aI01
aI01
aI01
aI01
aI01
aI01
aI01
aI01
aI01
aI01
aI01
aa(lp49
I01
aI00
aI00
aI00
aI00
aI00
aI00
aI00
aI00
aI01
aI01
aI00
aI00
aI00
aI00
aI00
aI00
aI00
aI00
aI01
aa(lp50
I01
aI01
aI01
aI01
aI01
aI01
aI01
aI01
aI00
aI01
aI01
aI00
aI01
aI01
aI01
aI01
aI01
aI01
aI01
aI01
aa(lp51
I01
aI00
aI00
aI00
aI00
aI00
aI00
aI00
aI00
aI01
aI01
aI00
aI00
aI00
aI00
aI00
aI00
aI00
aI01
aI01
aa(lp52
I01
aI00
aI01
aI01
aI00
aI01
aI01
aI01
aI00
aI00
aI00
aI00
aI01
aI01
aI01
aI01
aI00
aI00
aI01
aI01
aa(lp53
I01
aI00
aI01
aI01
aI00
aI00
aI00
aI00
aI00
aI00
aI00
aI00
aI00
aI00
aI00
aI00
aI00
aI00
aI01
aI01
aa(lp54
I01
aI00
aI00
aI00
aI00
aI01
aI01
aI00
aI01
aI01
aI01
aI01
aI00
aI00
aI00
aI01
aI00
aI00
aI01
aI01
aa(lp55
I01
aI00
aI01
aI01
aI00
aI00
aI01
aI00
aI00
aI00
aI00
aI00
aI00
aI01
aI00
aI01
aI00
aI00
aI01
aI01
aa(lp56
I01
aI00
aI00
aI00
aI00
aI00
aI01
aI00
aI01
aI01
aI01
aI01
aI00
aI01
aI00
aI01
aI00
aI00
aI01
aI01
aa(lp57
I01
aI00
aI00
aI00
aI00
aI00
aI01
aI00
aI01
aI01
aI01
aI01
aI00
aI01
aI00
aI01
aI00
aI00
aI01
aI01
aa(lp58
I01
aI00
aI01
aI01
aI00
aI00
aI01
aI00
aI00
aI00
aI00
aI00
aI00
aI01
aI00
aI01
aI00
aI00
aI01
aI01
aa(lp59
I01
aI00
aI00
aI00
aI00
aI01
aI01
aI00
aI01
aI01
aI01
aI01
aI00
aI00
aI00
aI01
aI00
aI00
aI01
aI01
aa(lp60
I01
aI00
aI01
aI01
aI00
aI00
aI00
aI00
aI00
aI00
aI00
aI00
aI00
aI00
aI00
aI00
aI00
aI00
aI01
aI01
aa(lp61
I01
aI00
aI01
aI01
aI00
aI01
aI01
aI01
aI00
aI00
aI00
aI00
aI01
aI01
aI01
aI01
aI00
aI00
aI01
aI01
aa(lp62
I01
aI00
aI00
aI00
aI00
aI00
aI00
aI00
aI00
aI01
aI01
aI00
aI00
aI00
aI00
aI00
aI00
aI00
aI01
aI01
aa(lp63
I01
aI01
aI01
aI01
aI01
aI01
aI01
aI01
aI00
aI01
aI01
aI00
aI01
aI01
aI01
aI01
aI01
aI01
aI01
aI01
aa(lp64
I01
aI00
aI00
aI00
aI00
aI00
aI00
aI00
aI00
aI01
aI01
aI00
aI00
aI00
aI00
aI00
aI00
aI00
aI00
aI01
aa(lp65
I01
aI01
aI01
aI01
aI01
aI01
aI01
aI01
aI01
aI01
aI01
aI01
aI01
aI01
aI01
aI01
aI01
aI01
aI01
aI01
aasg33
I20
sbsS'totalFood'
p66
I74
sS'layoutText'
p67
(lp68
S'%%%%%%%%%%%%%%%%%%'
p69
aS'%1%%%%%%%%%%%%%%2%'
p70
aS'% %.....  .....% %'
p71
aS'% %.....  .....% %'
p72
aS'% %.% %%%%%% %.% %'
p73
aS'% %.%  .  .  %.% %'
p74
aS'% %.% .%%%%. %.% %'
p75
aS'% % % .    . % % %'
p76
aS'%  .. %.%%.% ..  %'
p77
aS'%%%%  %.%%.%  %%%%'
p78
aS'%%%%  %.%%.%  %%%%'
p79
aS'%  .. %.%%.% ..  %'
p80
aS'% % %        % % %'
p81
aS'% %.% %%%%%% %.% %'
p82
aS'% %.% %.  .% %.% %'
p83
aS'% %.....  .....% %'
p84
aS'% %.%% %  % %%.% %'
p85
aS'% % %% %  % %% % %'
p86
aS'%3%....    ....%4%'
p87
aS'%%%%%%%%%%%%%%%%%%'
p88
asbsS'blueTeamName'
p89
S'Blue'
p90
sS'actions'
p91
(lp92
(I0
S'South'
p93
tp94
a(I1
g93
tp95
a(I2
S'North'
p96
tp97
a(I3
g96
tp98
a(I0
g93
tp99
a(I1
g93
tp100
a(I2
g96
tp101
a(I3
g96
tp102
a(I0
g93
tp103
a(I1
g93
tp104
a(I2
g96
tp105
a(I3
g96
tp106
a(I0
g93
tp107
a(I1
g93
tp108
a(I2
g96
tp109
a(I3
g96
tp110
a(I0
g93
tp111
a(I1
g93
tp112
a(I2
g96
tp113
a(I3
g96
tp114
a(I0
g93
tp115
a(I1
g93
tp116
a(I2
g96
tp117
a(I3
g96
tp118
a(I0
g93
tp119
a(I1
g93
tp120
a(I2
g96
tp121
a(I3
g96
tp122
a(I0
S'East'
p123
tp124
a(I1
S'West'
p125
tp126
a(I2
g123
tp127
a(I3
g125
tp128
a(I0
g123
tp129
a(I1
g125
tp130
a(I2
g123
tp131
a(I3
g125
tp132
a(I0
g123
tp133
a(I1
g125
tp134
a(I2
g123
tp135
a(I3
g125
tp136
a(I0
g123
tp137
a(I1
g125
tp138
a(I2
g123
tp139
a(I3
g125
tp140
a(I0
g96
tp141
a(I1
g96
tp142
a(I2
g93
tp143
a(I3
g93
tp144
a(I0
g123
tp145
a(I1
g125
tp146
a(I2
g123
tp147
a(I3
g125
tp148
a(I0
g123
tp149
a(I1
g96
tp150
a(I2
g123
tp151
a(I3
g125
tp152
a(I0
g123
tp153
a(I1
g96
tp154
a(I2
g123
tp155
a(I3
g96
tp156
a(I0
g125
tp157
a(I1
g125
tp158
a(I2
g125
tp159
a(I3
g96
tp160
a(I0
g123
tp161
a(I1
g125
tp162
a(I2
g96
tp163
a(I3
g96
tp164
a(I0
g123
tp165
a(I1
g123
tp166
a(I2
g93
tp167
a(I3
g96
tp168
a(I0
g125
tp169
a(I1
g123
tp170
a(I2
g123
tp171
a(I3
g96
tp172
a(I0
g125
tp173
a(I1
g123
tp174
a(I2
g123
tp175
a(I3
g123
tp176
a(I0
g93
tp177
a(I1
g96
tp178
a(I2
g123
tp179
a(I3
g123
tp180
a(I0
g96
tp181
a(I1
g96
tp182
a(I2
g96
tp183
a(I3
g96
tp184
a(I0
g123
tp185
a(I1
g125
tp186
a(I2
g96
tp187
a(I3
g96
tp188
a(I0
g123
tp189
a(I1
g123
tp190
a(I2
g96
tp191
a(I3
g125
tp192
a(I0
g125
tp193
a(I1
g93
tp194
a(I2
g96
tp195
a(I3
g93
tp196
a(I0
g125
tp197
a(I1
g93
tp198
a(I2
g93
tp199
a(I3
g93
tp200
a(I0
g125
tp201
a(I1
g93
tp202
a(I2
g93
tp203
a(I3
g125
tp204
a(I0
g96
tp205
a(I1
g125
tp206
a(I2
g93
tp207
a(I3
g93
tp208
a(I0
g96
tp209
a(I1
g93
tp210
a(I2
g93
tp211
a(I3
g93
tp212
a(I0
g123
tp213
a(I1
g125
tp214
a(I2
g125
tp215
a(I3
g93
tp216
a(I0
g123
tp217
a(I1
g93
tp218
a(I2
g125
tp219
a(I3
g93
tp220
a(I0
g123
tp221
a(I1
g96
tp222
a(I2
g125
tp223
a(I3
g96
tp224
a(I0
g123
tp225
a(I1
g123
tp226
a(I2
g125
tp227
a(I3
g96
tp228
a(I0
g125
tp229
a(I1
g96
tp230
a(I2
g123
tp231
a(I3
g96
tp232
a(I0
g125
tp233
a(I1
g123
tp234
a(I2
g123
tp235
a(I3
g93
tp236
a(I0
g125
tp237
a(I1
g96
tp238
a(I2
g125
tp239
a(I3
g93
tp240
a(I0
g125
tp241
a(I1
g96
tp242
a(I2
g125
tp243
a(I3
g93
tp244
a(I0
g123
tp245
a(I1
g96
tp246
a(I2
g125
tp247
a(I3
g93
tp248
a(I0
g123
tp249
a(I1
g123
tp250
a(I2
g93
tp251
a(I3
g96
tp252
a(I0
g123
tp253
a(I1
g96
tp254
a(I2
g93
tp255
a(I3
g96
tp256
a(I0
g123
tp257
a(I1
g125
tp258
a(I2
g93
tp259
a(I3
g96
tp260
a(I0
g125
tp261
a(I1
g93
tp262
a(I2
g123
tp263
a(I3
g96
tp264
a(I0
g125
tp265
a(I1
g125
tp266
a(I2
g123
tp267
a(I3
g96
tp268
a(I0
g123
tp269
a(I1
g123
tp270
a(I2
g123
tp271
a(I3
g123
tp272
a(I0
g125
tp273
a(I1
g96
tp274
a(I2
g123
tp275
a(I3
g123
tp276
a(I0
g123
tp277
a(I1
g93
tp278
a(I2
g123
tp279
a(I3
g96
tp280
a(I0
g125
tp281
a(I1
g125
tp282
a(I2
g96
tp283
a(I3
g96
tp284
a(I0
g125
tp285
a(I1
g125
tp286
a(I2
g125
tp287
a(I3
g96
tp288
a(I0
g123
tp289
a(I1
g125
tp290
a(I2
g125
tp291
a(I3
g93
tp292
a(I0
g123
tp293
a(I1
g123
tp294
a(I2
g93
tp295
a(I3
g125
tp296
a(I0
g125
tp297
a(I1
g96
tp298
a(I2
g123
tp299
a(I3
g125
tp300
a(I0
g125
tp301
a(I1
g125
tp302
a(I2
g123
tp303
a(I3
g125
tp304
a(I0
g125
tp305
a(I1
g125
tp306
a(I2
g123
tp307
a(I3
g123
tp308
a(I0
g125
tp309
a(I1
g125
tp310
a(I2
g123
tp311
a(I3
g123
tp312
a(I0
g96
tp313
a(I1
g123
tp314
a(I2
g96
tp315
a(I3
g123
tp316
a(I0
g96
tp317
a(I1
g123
tp318
a(I2
g93
tp319
a(I3
g93
tp320
a(I0
g125
tp321
a(I1
g93
tp322
a(I2
g123
tp323
a(I3
g93
tp324
a(I0
g96
tp325
a(I1
g125
tp326
a(I2
g123
tp327
a(I3
g125
tp328
a(I0
g123
tp329
a(I1
g125
tp330
a(I2
g96
tp331
a(I3
g125
tp332
a(I0
g93
tp333
a(I1
g123
tp334
a(I2
g96
tp335
a(I3
g125
tp336
a(I0
g123
tp337
a(I1
g123
tp338
a(I2
g93
tp339
a(I3
g123
tp340
a(I0
g96
tp341
a(I1
g123
tp342
a(I2
g93
tp343
a(I3
g123
tp344
a(I0
g125
tp345
a(I1
g96
tp346
a(I2
g93
tp347
a(I3
g96
tp348
a(I0
g93
tp349
a(I1
g125
tp350
a(I2
g96
tp351
a(I3
g96
tp352
a(I0
g93
tp353
a(I1
g125
tp354
a(I2
g96
tp355
a(I3
g123
tp356
a(I0
g93
tp357
a(I1
g125
tp358
a(I2
g96
tp359
a(I3
g96
tp360
a(I0
g123
tp361
a(I1
g125
tp362
a(I2
g96
tp363
a(I3
g96
tp364
a(I0
g123
tp365
a(I1
g125
tp366
a(I2
g96
tp367
a(I3
g125
tp368
a(I0
g123
tp369
a(I1
g125
tp370
a(I2
g123
tp371
a(I3
g125
tp372
a(I0
g123
tp373
a(I1
g93
tp374
a(I2
g123
tp375
a(I3
g123
tp376
a(I0
g123
tp377
a(I1
g123
tp378
a(I2
g93
tp379
a(I3
g123
tp380
a(I0
g123
tp381
a(I1
g93
tp382
a(I2
g93
tp383
a(I3
g93
tp384
a(I0
g93
tp385
a(I1
g93
tp386
a(I2
g93
tp387
a(I3
g93
tp388
a(I0
g123
tp389
a(I1
g123
tp390
a(I2
g93
tp391
a(I3
g93
tp392
a(I0
g93
tp393
a(I1
g93
tp394
a(I2
g93
tp395
a(I3
g93
tp396
a(I0
g93
tp397
a(I1
g93
tp398
a(I2
g93
tp399
a(I3
g125
tp400
a(I0
g93
tp401
a(I1
g123
tp402
a(I2
g93
tp403
a(I3
g125
tp404
a(I0
g93
tp405
a(I1
g93
tp406
a(I2
g96
tp407
a(I3
g93
tp408
a(I0
g93
tp409
a(I1
g93
tp410
a(I2
g96
tp411
a(I3
g93
tp412
a(I0
g93
tp413
a(I1
g93
tp414
a(I2
g96
tp415
a(I3
g93
tp416
a(I0
g93
tp417
a(I1
g93
tp418
a(I2
g96
tp419
a(I3
g93
tp420
a(I0
g123
tp421
a(I1
g93
tp422
a(I2
g96
tp423
a(I3
g93
tp424
a(I0
g123
tp425
a(I1
g125
tp426
a(I2
g96
tp427
a(I3
g123
tp428
a(I0
g123
tp429
a(I1
g123
tp430
a(I2
g96
tp431
a(I3
g123
tp432
a(I0
g123
tp433
a(I1
g123
tp434
a(I2
g125
tp435
a(I3
g96
tp436
a(I0
g96
tp437
a(I1
g123
tp438
a(I2
g123
tp439
a(I3
g123
tp440
a(I0
g123
tp441
a(I1
g123
tp442
a(I2
g93
tp443
a(I3
g123
tp444
a(I0
g123
tp445
a(I1
g123
tp446
a(I2
g93
tp447
a(I3
g123
tp448
a(I0
g123
tp449
a(I1
g123
tp450
a(I2
g93
tp451
a(I3
g123
tp452
a(I0
g123
tp453
a(I1
g96
tp454
a(I2
g93
tp455
a(I3
g93
tp456
a(I0
g123
tp457
a(I1
g123
tp458
a(I2
g93
tp459
a(I3
g93
tp460
a(I0
g123
tp461
a(I1
g123
tp462
a(I2
g93
tp463
a(I3
g93
tp464
a(I0
g96
tp465
a(I1
g123
tp466
a(I2
g93
tp467
a(I3
g93
tp468
a(I0
g93
tp469
a(I1
g123
tp470
a(I2
g96
tp471
a(I3
g93
tp472
a(I0
g125
tp473
a(I1
g93
tp474
a(I2
g93
tp475
a(I3
g93
tp476
a(I0
g125
tp477
a(I1
g93
tp478
a(I2
S'Stop'
p479
tp480
a(I3
g93
tp481
a(I0
g125
tp482
a(I1
g93
tp483
a(I2
g96
tp484
a(I3
g96
tp485
a(I0
g123
tp486
a(I1
g93
tp487
a(I2
g96
tp488
a(I3
g96
tp489
a(I0
g123
tp490
a(I1
g93
tp491
a(I2
g96
tp492
a(I3
g96
tp493
a(I0
g123
tp494
a(I1
g93
tp495
a(I2
g96
tp496
a(I3
g96
tp497
a(I0
g123
tp498
a(I1
g93
tp499
a(I2
g96
tp500
a(I3
g96
tp501
a(I0
g93
tp502
a(I1
g96
tp503
a(I2
g96
tp504
a(I3
g96
tp505
a(I0
g123
tp506
a(I1
g96
tp507
a(I2
g96
tp508
a(I3
g96
tp509
a(I0
g123
tp510
a(I1
g96
tp511
a(I2
g123
tp512
a(I3
g125
tp513
a(I0
g125
tp514
a(I1
g96
tp515
a(I2
g123
tp516
a(I3
g125
tp517
a(I0
g125
tp518
a(I1
g96
tp519
a(I2
g123
tp520
a(I3
g125
tp521
a(I0
g96
tp522
a(I1
g96
tp523
a(I2
g123
tp524
a(I3
g125
tp525
a(I0
g125
tp526
a(I1
g96
tp527
a(I2
g93
tp528
a(I3
g96
tp529
a(I0
g125
tp530
a(I1
g125
tp531
a(I2
g123
tp532
a(I3
g96
tp533
a(I0
g125
tp534
a(I1
g125
tp535
a(I2
g123
tp536
a(I3
g96
tp537
a(I0
g125
tp538
a(I1
g93
tp539
a(I2
g123
tp540
a(I3
g93
tp541
a(I0
g123
tp542
a(I1
g96
tp543
a(I2
g123
tp544
a(I3
g96
tp545
a(I0
g125
tp546
a(I1
g123
tp547
a(I2
g123
tp548
a(I3
g96
tp549
a(I0
g125
tp550
a(I1
g123
tp551
a(I2
g123
tp552
a(I3
g125
tp553
a(I0
g125
tp554
a(I1
g125
tp555
a(I2
g125
tp556
a(I3
g125
tp557
a(I0
g125
tp558
a(I1
g125
tp559
a(I2
g125
tp560
a(I3
g93
tp561
a(I0
g96
tp562
a(I1
g125
tp563
a(I2
g125
tp564
a(I3
g93
tp565
a(I0
g96
tp566
a(I1
g96
tp567
a(I2
g125
tp568
a(I3
g93
tp569
a(I0
g96
tp570
a(I1
g96
tp571
a(I2
g125
tp572
a(I3
g93
tp573
a(I0
g96
tp574
a(I1
g96
tp575
a(I2
g125
tp576
a(I3
g93
tp577
a(I0
g123
tp578
a(I1
g123
tp579
a(I2
g93
tp580
a(I3
g96
tp581
a(I0
g123
tp582
a(I1
g96
tp583
a(I2
g93
tp584
a(I3
g96
tp585
a(I0
g123
tp586
a(I1
g96
tp587
a(I2
g93
tp588
a(I3
g96
tp589
a(I0
g123
tp590
a(I1
g96
tp591
a(I2
g123
tp592
a(I3
g96
tp593
a(I0
g123
tp594
a(I1
g96
tp595
a(I2
g123
tp596
a(I3
g96
tp597
a(I0
g96
tp598
a(I1
g96
tp599
a(I2
g123
tp600
a(I3
g123
tp601
a(I0
g123
tp602
a(I1
g125
tp603
a(I2
g123
tp604
a(I3
g96
tp605
a(I0
g93
tp606
a(I1
g125
tp607
a(I2
g123
tp608
a(I3
g123
tp609
a(I0
g125
tp610
a(I1
g125
tp611
a(I2
g123
tp612
a(I3
g96
tp613
a(I0
g125
tp614
a(I1
g125
tp615
a(I2
g123
tp616
a(I3
g96
tp617
a(I0
g125
tp618
a(I1
g96
tp619
a(I2
g123
tp620
a(I3
g96
tp621
a(I0
g96
tp622
a(I1
g123
tp623
a(I2
g123
tp624
a(I3
g123
tp625
a(I0
g123
tp626
a(I1
g125
tp627
a(I2
g93
tp628
a(I3
g96
tp629
a(I0
g93
tp630
a(I1
g93
tp631
a(I2
g93
tp632
a(I3
g125
tp633
a(I0
g96
tp634
a(I1
g125
tp635
a(I2
g93
tp636
a(I3
g125
tp637
a(I0
g93
tp638
a(I1
g125
tp639
a(I2
g125
tp640
a(I3
g125
tp641
a(I0
g93
tp642
a(I1
g125
tp643
a(I2
g125
tp644
a(I3
g93
tp645
a(I0
g93
tp646
a(I1
g96
tp647
a(I2
g125
tp648
a(I3
g123
tp649
a(I0
g93
tp650
a(I1
g125
tp651
a(I2
g96
tp652
a(I3
g96
tp653
a(I0
g93
tp654
a(I1
g93
tp655
a(I2
g96
tp656
a(I3
g123
tp657
a(I0
g93
tp658
a(I1
g125
tp659
a(I2
g96
tp660
a(I3
g93
tp661
a(I0
g93
tp662
a(I1
g125
tp663
a(I2
g125
tp664
a(I3
g123
tp665
a(I0
g93
tp666
a(I1
g125
tp667
a(I2
g125
tp668
a(I3
g123
tp669
a(I0
g123
tp670
a(I1
g93
tp671
a(I2
g125
tp672
a(I3
g125
tp673
a(I0
g123
tp674
a(I1
g96
tp675
a(I2
g125
tp676
a(I3
g125
tp677
a(I0
g96
tp678
a(I1
g123
tp679
a(I2
g125
tp680
a(I3
g93
tp681
a(I0
g96
tp682
a(I1
g123
tp683
a(I2
g125
tp684
a(I3
g93
tp685
a(I0
g96
tp686
a(I1
g93
tp687
a(I2
g96
tp688
a(I3
g93
tp689
a(I0
g96
tp690
a(I1
g93
tp691
a(I2
g96
tp692
a(I3
g93
tp693
a(I0
g96
tp694
a(I1
g93
tp695
a(I2
g96
tp696
a(I3
g125
tp697
a(I0
g123
tp698
a(I1
g93
tp699
a(I2
g96
tp700
a(I3
g125
tp701
a(I0
g123
tp702
a(I1
g93
tp703
a(I2
g96
tp704
a(I3
g93
tp705
a(I0
g93
tp706
a(I1
g125
tp707
a(I2
g96
tp708
a(I3
g93
tp709
a(I0
g93
tp710
a(I1
g125
tp711
a(I2
g125
tp712
a(I3
g93
tp713
a(I0
g93
tp714
a(I1
g96
tp715
a(I2
g96
tp716
a(I3
g93
tp717
a(I0
g93
tp718
a(I1
g96
tp719
a(I2
g125
tp720
a(I3
g93
tp721
a(I0
g93
tp722
a(I1
g96
tp723
a(I2
g96
tp724
a(I3
g96
tp725
a(I0
g125
tp726
a(I1
g96
tp727
a(I2
g96
tp728
a(I3
g96
tp729
a(I0
g125
tp730
a(I1
g96
tp731
a(I2
g96
tp732
a(I3
g96
tp733
a(I0
g96
tp734
a(I1
g123
tp735
a(I2
g96
tp736
a(I3
g96
tp737
a(I0
g96
tp738
a(I1
g123
tp739
a(I2
g96
tp740
a(I3
g96
tp741
a(I0
g96
tp742
a(I1
g93
tp743
a(I2
g123
tp744
a(I3
g93
tp745
a(I0
g96
tp746
a(I1
g93
tp747
a(I2
g123
tp748
a(I3
g93
tp749
a(I0
g96
tp750
a(I1
g93
tp751
a(I2
g93
tp752
a(I3
g93
tp753
a(I0
g123
tp754
a(I1
g93
tp755
a(I2
g93
tp756
a(I3
g93
tp757
a(I0
g123
tp758
a(I1
g93
tp759
a(I2
g93
tp760
a(I3
g93
tp761
a(I0
g93
tp762
a(I1
g93
tp763
a(I2
g93
tp764
a(I3
g96
tp765
a(I0
g93
tp766
a(I1
g93
tp767
a(I2
g93
tp768
a(I3
g96
tp769
a(I0
g93
tp770
a(I1
g93
tp771
a(I2
g93
tp772
a(I3
g96
tp773
a(I0
g93
tp774
a(I1
g125
tp775
a(I2
g93
tp776
a(I3
g96
tp777
a(I0
g93
tp778
a(I1
g125
tp779
a(I2
g93
tp780
a(I3
g96
tp781
a(I0
g125
tp782
a(I1
g93
tp783
a(I2
g125
tp784
a(I3
g93
tp785
a(I0
g93
tp786
a(I1
g93
tp787
a(I2
g125
tp788
a(I3
g93
tp789
a(I0
g93
tp790
a(I1
g93
tp791
a(I2
g93
tp792
a(I3
g93
tp793
a(I0
g93
tp794
a(I1
g93
tp795
a(I2
g93
tp796
a(I3
g93
tp797
a(I0
g125
tp798
a(I1
g123
tp799
a(I2
g93
tp800
a(I3
g93
tp801
a(I0
g93
tp802
a(I1
g123
tp803
a(I2
g93
tp804
a(I3
g96
tp805
a(I0
g93
tp806
a(I1
g96
tp807
a(I2
g123
tp808
a(I3
g96
tp809
a(I0
g93
tp810
a(I1
g96
tp811
a(I2
g123
tp812
a(I3
g96
tp813
a(I0
g93
tp814
a(I1
g96
tp815
a(I2
g96
tp816
a(I3
g96
tp817
a(I0
g123
tp818
a(I1
g96
tp819
a(I2
g96
tp820
a(I3
g96
tp821
a(I0
g123
tp822
a(I1
g125
tp823
a(I2
g96
tp824
a(I3
g93
tp825
a(I0
g96
tp826
a(I1
g125
tp827
a(I2
g96
tp828
a(I3
g93
tp829
a(I0
g96
tp830
a(I1
g93
tp831
a(I2
g125
tp832
a(I3
g93
tp833
a(I0
g96
tp834
a(I1
g93
tp835
a(I2
g125
tp836
a(I3
g93
tp837
a(I0
g96
tp838
a(I1
g93
tp839
a(I2
g93
tp840
a(I3
g93
tp841
a(I0
g125
tp842
a(I1
g93
tp843
a(I2
g93
tp844
a(I3
g96
tp845
a(I0
g125
tp846
a(I1
g93
tp847
a(I2
g93
tp848
a(I3
g96
tp849
a(I0
g93
tp850
a(I1
g93
tp851
a(I2
g93
tp852
a(I3
g96
tp853
a(I0
g93
tp854
a(I1
g93
tp855
a(I2
g93
tp856
a(I3
g96
tp857
a(I0
g93
tp858
a(I1
g123
tp859
a(I2
g93
tp860
a(I3
g96
tp861
a(I0
g93
tp862
a(I1
g123
tp863
a(I2
g93
tp864
a(I3
g93
tp865
a(I0
g93
tp866
a(I1
g123
tp867
a(I2
g123
tp868
a(I3
g93
tp869
a(I0
g93
tp870
a(I1
g123
tp871
a(I2
g123
tp872
a(I3
g93
tp873
a(I0
g93
tp874
a(I1
g123
tp875
a(I2
g123
tp876
a(I3
g93
tp877
a(I0
g123
tp878
a(I1
g123
tp879
a(I2
g123
tp880
a(I3
g93
tp881
a(I0
g125
tp882
a(I1
g96
tp883
a(I2
g123
tp884
a(I3
g96
tp885
a(I0
g96
tp886
a(I1
g96
tp887
a(I2
g96
tp888
a(I3
g96
tp889
a(I0
g96
tp890
a(I1
g96
tp891
a(I2
g96
tp892
a(I3
g96
tp893
a(I0
g96
tp894
a(I1
g96
tp895
a(I2
g96
tp896
a(I3
g96
tp897
a(I0
g123
tp898
a(I1
g123
tp899
a(I2
g125
tp900
a(I3
g96
tp901
a(I0
g123
tp902
a(I1
g93
tp903
a(I2
g125
tp904
a(I3
g93
tp905
a(I0
g96
tp906
a(I1
g123
tp907
a(I2
g125
tp908
a(I3
g93
tp909
a(I0
g96
tp910
a(I1
g93
tp911
a(I2
g123
tp912
a(I3
g93
tp913
a(I0
g96
tp914
a(I1
g93
tp915
a(I2
g123
tp916
a(I3
g93
tp917
a(I0
g123
tp918
a(I1
g93
tp919
a(I2
g123
tp920
a(I3
g93
tp921
a(I0
g123
tp922
a(I1
g123
tp923
a(I2
g123
tp924
a(I3
g123
tp925
a(I0
g123
tp926
a(I1
g125
tp927
a(I2
g96
tp928
a(I3
g123
tp929
a(I0
g123
tp930
a(I1
g96
tp931
a(I2
g125
tp932
a(I3
g125
tp933
a(I0
g125
tp934
a(I1
g96
tp935
a(I2
g125
tp936
a(I3
g125
tp937
a(I0
g125
tp938
a(I1
g96
tp939
a(I2
g93
tp940
a(I3
g96
tp941
a(I0
g96
tp942
a(I1
g123
tp943
a(I2
g125
tp944
a(I3
g96
tp945
a(I0
g93
tp946
a(I1
g123
tp947
a(I2
g123
tp948
a(I3
g96
tp949
a(I0
g123
tp950
a(I1
g123
tp951
a(I2
g123
tp952
a(I3
g96
tp953
a(I0
g123
tp954
a(I1
g125
tp955
a(I2
g125
tp956
a(I3
g93
tp957
a(I0
g125
tp958
a(I1
g125
tp959
a(I2
g96
tp960
a(I3
g96
tp961
a(I0
g123
tp962
a(I1
g96
tp963
a(I2
g123
tp964
a(I3
g93
tp965
a(I0
g125
tp966
a(I1
g96
tp967
a(I2
g93
tp968
a(I3
g96
tp969
a(I0
g125
tp970
a(I1
g96
tp971
a(I2
g123
tp972
a(I3
g96
tp973
a(I0
g96
tp974
a(I1
g96
tp975
a(I2
g123
tp976
a(I3
g125
tp977
a(I0
g93
tp978
a(I1
g96
tp979
a(I2
g123
tp980
a(I3
g123
tp981
a(I0
g123
tp982
a(I1
g96
tp983
a(I2
g123
tp984
a(I3
g123
tp985
a(I0
g123
tp986
a(I1
g96
tp987
a(I2
g96
tp988
a(I3
g96
tp989
a(I0
g123
tp990
a(I1
g96
tp991
a(I2
g96
tp992
a(I3
g96
tp993
a(I0
g123
tp994
a(I1
g96
tp995
a(I2
g96
tp996
a(I3
g123
tp997
a(I0
g123
tp998
a(I1
g96
tp999
a(I2
g96
tp1000
a(I3
g96
tp1001
a(I0
g96
tp1002
a(I1
g125
tp1003
a(I2
g123
tp1004
a(I3
g96
tp1005
a(I0
g123
tp1006
a(I1
g125
tp1007
a(I2
g125
tp1008
a(I3
g123
tp1009
a(I0
g96
tp1010
a(I1
g125
tp1011
a(I2
g93
tp1012
a(I3
g96
tp1013
a(I0
g96
tp1014
a(I1
g125
tp1015
a(I2
g93
tp1016
a(I3
g125
tp1017
a(I0
g96
tp1018
a(I1
g125
tp1019
a(I2
g93
tp1020
a(I3
g93
tp1021
a(I0
g123
tp1022
a(I1
g125
tp1023
a(I2
g93
tp1024
a(I3
g123
tp1025
a(I0
g96
tp1026
a(I1
g123
tp1027
a(I2
g125
tp1028
a(I3
g123
tp1029
a(I0
g96
tp1030
a(I1
g123
tp1031
a(I2
g125
tp1032
a(I3
g93
tp1033
a(I0
g96
tp1034
a(I1
g123
tp1035
a(I2
g125
tp1036
a(I3
g93
tp1037
a(I0
g93
tp1038
a(I1
g123
tp1039
a(I2
g125
tp1040
a(I3
g93
tp1041
a(I0
g93
tp1042
a(I1
g123
tp1043
a(I2
g123
tp1044
a(I3
g93
tp1045
a(I0
g93
tp1046
a(I1
g93
tp1047
a(I2
g123
tp1048
a(I3
g93
tp1049
a(I0
g93
tp1050
a(I1
g93
tp1051
a(I2
g123
tp1052
a(I3
g123
tp1053
a(I0
g93
tp1054
a(I1
g125
tp1055
a(I2
g123
tp1056
a(I3
g123
tp1057
a(I0
g93
tp1058
a(I1
g125
tp1059
a(I2
g96
tp1060
a(I3
g96
tp1061
a(I0
g93
tp1062
a(I1
g125
tp1063
a(I2
g96
tp1064
a(I3
g96
tp1065
a(I0
g123
tp1066
a(I1
g125
tp1067
a(I2
g96
tp1068
a(I3
g96
tp1069
a(I0
g123
tp1070
a(I1
g93
tp1071
a(I2
g96
tp1072
a(I3
g96
tp1073
a(I0
g123
tp1074
a(I1
g93
tp1075
a(I2
g123
tp1076
a(I3
g96
tp1077
a(I0
g123
tp1078
a(I1
g93
tp1079
a(I2
g123
tp1080
a(I3
g96
tp1081
a(I0
g96
tp1082
a(I1
g93
tp1083
a(I2
g93
tp1084
a(I3
g96
tp1085
a(I0
g123
tp1086
a(I1
g93
tp1087
a(I2
g93
tp1088
a(I3
g93
tp1089
a(I0
g123
tp1090
a(I1
g125
tp1091
a(I2
g93
tp1092
a(I3
g93
tp1093
a(I0
g93
tp1094
a(I1
g125
tp1095
a(I2
g93
tp1096
a(I3
g93
tp1097
a(I0
g93
tp1098
a(I1
g93
tp1099
a(I2
g93
tp1100
a(I3
g93
tp1101
a(I0
g93
tp1102
a(I1
g93
tp1103
a(I2
g93
tp1104
a(I3
g93
tp1105
a(I0
g93
tp1106
a(I1
g93
tp1107
a(I2
g93
tp1108
a(I3
g93
tp1109
a(I0
g93
tp1110
a(I1
g123
tp1111
a(I2
g125
tp1112
a(I3
g93
tp1113
a(I0
g125
tp1114
a(I1
g123
tp1115
a(I2
g125
tp1116
a(I3
g125
tp1117
a(I0
g125
tp1118
a(I1
g123
tp1119
a(I2
g125
tp1120
a(I3
g125
tp1121
a(I0
g96
tp1122
a(I1
g123
tp1123
asS'length'
p1124
I1200
sS'agents'
p1125
(lp1126
(igame
Agent
p1127
(dp1128
S'index'
p1129
I0
sba(igame
Agent
p1130
(dp1131
g1129
I0
sba(igame
Agent
p1132
(dp1133
g1129
I0
sba(igame
Agent
p1134
(dp1135
g1129
I0
sbasS'redTeamName'
p1136
S'Red'
p1137
s.