(dp1
S'layout'
p2
(ilayout
Layout
p3
(dp4
S'capsules'
p5
(lp6
sS'numGhosts'
p7
I4
sS'food'
p8
(igame
Grid
p9
(dp10
S'CELLS_PER_INT'
p11
I30
sS'width'
p12
I18
sS'data'
p13
(lp14
(lp15
I00
aI00
aI00
aI00
aI00
aI00
aI00
aI00
aI00
aI00
aI00
aI00
aI00
aI00
aI00
aI00
aI00
aI00
aI00
aI00
aa(lp16
I00
aI00
aI00
aI00
aI00
aI00
aI00
aI00
aI00
aI00
aI00
aI00
aI00
aI00
aI00
aI00
aI00
aI00
aI00
aI00
aa(lp17
I00
aI00
aI00
aI00
aI00
aI00
aI00
aI00
aI00
aI00
aI00
aI00
aI00
aI00
aI00
aI00
aI00
aI00
aI00
aI00
aa(lp18
I00
aI01
aI00
aI01
aI01
aI01
aI01
aI00
aI01
aI00
aI00
aI01
aI00
aI01
aI01
aI01
aI01
aI01
aI00
aI00
aa(lp19
I00
aI01
aI00
aI00
aI01
aI00
aI00
aI00
aI01
aI00
aI00
aI01
aI00
aI00
aI00
aI00
aI01
aI01
aI00
aI00
aa(lp20
I00
aI01
aI00
aI00
aI01
aI00
aI00
aI00
aI00
aI00
aI00
aI00
aI00
aI00
aI00
aI00
aI01
aI01
aI00
aI00
aa(lp21
I00
aI01
aI00
aI00
aI01
aI00
aI00
aI00
aI00
aI00
aI00
aI00
aI01
aI01
aI00
aI00
aI01
aI01
aI00
aI00
aa(lp22
I00
aI00
aI00
aI00
aI01
aI01
aI00
aI00
aI01
aI01
aI01
aI01
aI00
aI00
aI01
aI00
aI01
aI01
aI00
aI00
aa(lp23
I00
aI00
aI00
aI00
aI00
aI00
aI00
aI00
aI00
aI00
aI00
aI00
aI00
aI00
aI00
aI00
aI00
aI00
aI00
aI00
aa(lp24
I00
aI00
aI00
aI00
aI00
aI00
aI00
aI00
aI00
aI00
aI00
aI00
aI00
aI00
aI00
aI00
aI00
aI00
aI00
aI00
aa(lp25
I00
aI00
aI00
aI00
aI01
aI01
aI00
aI00
aI01
aI01
aI01
aI01
aI00
aI00
aI01
aI00
aI01
aI01
aI00
aI00
aa(lp26
I00
aI01
aI00
aI00
aI01
aI00
aI00
aI00
aI00
aI00
aI00
aI00
aI01
aI01
aI00
aI00
aI01
aI01
aI00
aI00
aa(lp27
I00
aI01
aI00
aI00
aI01
aI00
aI00
aI00
aI00
aI00
aI00
aI00
aI00
aI00
aI00
aI00
aI01
aI01
aI00
aI00
aa(lp28
I00
aI01
aI00
aI00
aI01
aI00
aI00
aI00
aI01
aI00
aI00
aI01
aI00
aI00
aI00
aI00
aI01
aI01
aI00
aI00
aa(lp29
I00
aI01
aI00
aI01
aI01
aI01
aI01
aI00
aI01
aI00
aI00
aI01
aI00
aI01
aI01
aI01
aI01
aI01
aI00
aI00
aa(lp30
I00
aI00
aI00
aI00
aI00
aI00
aI00
aI00
aI00
aI00
aI00
aI00
aI00
aI00
aI00
aI00
aI00
aI00
aI00
aI00
aa(lp31
I00
aI00
aI00
aI00
aI00
aI00
aI00
aI00
aI00
aI00
aI00
aI00
aI00
aI00
aI00
aI00
aI00
aI00
aI00
aI00
aa(lp32
I00
aI00
aI00
aI00
aI00
aI00
aI00
aI00
aI00
aI00
aI00
aI00
aI00
aI00
aI00
aI00
aI00
aI00
aI00
aI00
aasS'height'
p33
I20
sbsS'agentPositions'
p34
(lp35
(I00
(I1
I18
tp36
tp37
a(I00
(I16
I18
tp38
tp39
a(I00
(I1
I1
tp40
tp41
a(I00
(I16
I1
tp42
tp43
asg33
I20
sg12
I18
sS'walls'
p44
(igame
Grid
p45
(dp46
g11
I30
sg12
I18
sg13
(lp47
(lp48
I01
aI01
aI01
aI01
aI01
aI01
aI01
aI01
aI01
aI01
aI01
aI01
aI01
aI01
aI01
aI01
aI01
aI01
aI01
aI01
aa(lp49
I01
aI00
aI00
aI00
aI00
aI00
aI00
aI00
aI00
aI01
aI01
aI00
aI00
aI00
aI00
aI00
aI00
aI00
aI00
aI01
aa(lp50
I01
aI01
aI01
aI01
aI01
aI01
aI01
aI01
aI00
aI01
aI01
aI00
aI01
aI01
aI01
aI01
aI01
aI01
aI01
aI01
aa(lp51
I01
aI00
aI00
aI00
aI00
aI00
aI00
aI00
aI00
aI01
aI01
aI00
aI00
aI00
aI00
aI00
aI00
aI00
aI01
aI01
aa(lp52
I01
aI00
aI01
aI01
aI00
aI01
aI01
aI01
aI00
aI00
aI00
aI00
aI01
aI01
aI01
aI01
aI00
aI00
aI01
aI01
aa(lp53
I01
aI00
aI01
aI01
aI00
aI00
aI00
aI00
aI00
aI00
aI00
aI00
aI00
aI00
aI00
aI00
aI00
aI00
aI01
aI01
aa(lp54
I01
aI00
aI00
aI00
aI00
aI01
aI01
aI00
aI01
aI01
aI01
aI01
aI00
aI00
aI00
aI01
aI00
aI00
aI01
aI01
aa(lp55
I01
aI00
aI01
aI01
aI00
aI00
aI01
aI00
aI00
aI00
aI00
aI00
aI00
aI01
aI00
aI01
aI00
aI00
aI01
aI01
aa(lp56
I01
aI00
aI00
aI00
aI00
aI00
aI01
aI00
aI01
aI01
aI01
aI01
aI00
aI01
aI00
aI01
aI00
aI00
aI01
aI01
aa(lp57
I01
aI00
aI00
aI00
aI00
aI00
aI01
aI00
aI01
aI01
aI01
aI01
aI00
aI01
aI00
aI01
aI00
aI00
aI01
aI01
aa(lp58
I01
aI00
aI01
aI01
aI00
aI00
aI01
aI00
aI00
aI00
aI00
aI00
aI00
aI01
aI00
aI01
aI00
aI00
aI01
aI01
aa(lp59
I01
aI00
aI00
aI00
aI00
aI01
aI01
aI00
aI01
aI01
aI01
aI01
aI00
aI00
aI00
aI01
aI00
aI00
aI01
aI01
aa(lp60
I01
aI00
aI01
aI01
aI00
aI00
aI00
aI00
aI00
aI00
aI00
aI00
aI00
aI00
aI00
aI00
aI00
aI00
aI01
aI01
aa(lp61
I01
aI00
aI01
aI01
aI00
aI01
aI01
aI01
aI00
aI00
aI00
aI00
aI01
aI01
aI01
aI01
aI00
aI00
aI01
aI01
aa(lp62
I01
aI00
aI00
aI00
aI00
aI00
aI00
aI00
aI00
aI01
aI01
aI00
aI00
aI00
aI00
aI00
aI00
aI00
aI01
aI01
aa(lp63
I01
aI01
aI01
aI01
aI01
aI01
aI01
aI01
aI00
aI01
aI01
aI00
aI01
aI01
aI01
aI01
aI01
aI01
aI01
aI01
aa(lp64
I01
aI00
aI00
aI00
aI00
aI00
aI00
aI00
aI00
aI01
aI01
aI00
aI00
aI00
aI00
aI00
aI00
aI00
aI00
aI01
aa(lp65
I01
aI01
aI01
aI01
aI01
aI01
aI01
aI01
aI01
aI01
aI01
aI01
aI01
aI01
aI01
aI01
aI01
aI01
aI01
aI01
aasg33
I20
sbsS'totalFood'
p66
I74
sS'layoutText'
p67
(lp68
S'%%%%%%%%%%%%%%%%%%'
p69
aS'%1%%%%%%%%%%%%%%2%'
p70
aS'% %.....  .....% %'
p71
aS'% %.....  .....% %'
p72
aS'% %.% %%%%%% %.% %'
p73
aS'% %.%  .  .  %.% %'
p74
aS'% %.% .%%%%. %.% %'
p75
aS'% % % .    . % % %'
p76
aS'%  .. %.%%.% ..  %'
p77
aS'%%%%  %.%%.%  %%%%'
p78
aS'%%%%  %.%%.%  %%%%'
p79
aS'%  .. %.%%.% ..  %'
p80
aS'% % %        % % %'
p81
aS'% %.% %%%%%% %.% %'
p82
aS'% %.% %.  .% %.% %'
p83
aS'% %.....  .....% %'
p84
aS'% %.%% %  % %%.% %'
p85
aS'% % %% %  % %% % %'
p86
aS'%3%....    ....%4%'
p87
aS'%%%%%%%%%%%%%%%%%%'
p88
asbsS'blueTeamName'
p89
S'Blue'
p90
sS'actions'
p91
(lp92
(I1
S'South'
p93
tp94
a(I2
S'North'
p95
tp96
a(I3
g95
tp97
a(I0
g93
tp98
a(I1
g93
tp99
a(I2
g95
tp100
a(I3
g95
tp101
a(I0
g93
tp102
a(I1
g93
tp103
a(I2
g95
tp104
a(I3
g95
tp105
a(I0
g93
tp106
a(I1
g93
tp107
a(I2
g95
tp108
a(I3
g95
tp109
a(I0
g93
tp110
a(I1
g93
tp111
a(I2
g95
tp112
a(I3
g95
tp113
a(I0
g93
tp114
a(I1
g93
tp115
a(I2
g95
tp116
a(I3
g95
tp117
a(I0
g93
tp118
a(I1
g93
tp119
a(I2
g95
tp120
a(I3
g95
tp121
a(I0
g93
tp122
a(I1
S'West'
p123
tp124
a(I2
S'East'
p125
tp126
a(I3
g123
tp127
a(I0
g125
tp128
a(I1
g123
tp129
a(I2
g125
tp130
a(I3
g123
tp131
a(I0
g125
tp132
a(I1
g123
tp133
a(I2
g125
tp134
a(I3
g123
tp135
a(I0
g125
tp136
a(I1
g123
tp137
a(I2
g125
tp138
a(I3
g123
tp139
a(I0
g125
tp140
a(I1
g95
tp141
a(I2
g93
tp142
a(I3
g93
tp143
a(I0
g95
tp144
a(I1
g123
tp145
a(I2
g125
tp146
a(I3
g123
tp147
a(I0
g95
tp148
a(I1
g123
tp149
a(I2
g125
tp150
a(I3
g123
tp151
a(I0
g95
tp152
a(I1
g123
tp153
a(I2
g125
tp154
a(I3
g123
tp155
a(I0
g95
tp156
a(I1
g123
tp157
a(I2
g123
tp158
a(I3
g125
tp159
a(I0
g95
tp160
a(I1
g123
tp161
a(I2
g95
tp162
a(I3
g125
tp163
a(I0
g93
tp164
a(I1
g93
tp165
a(I2
g95
tp166
a(I3
g123
tp167
a(I0
g93
tp168
a(I1
g93
tp169
a(I2
g95
tp170
a(I3
g123
tp171
a(I0
g125
tp172
a(I1
g93
tp173
a(I2
g95
tp174
a(I3
g123
tp175
a(I0
g93
tp176
a(I1
g93
tp177
a(I2
g93
tp178
a(I3
g125
tp179
a(I0
g123
tp180
a(I1
g93
tp181
a(I2
g95
tp182
a(I3
g123
tp183
a(I0
g93
tp184
a(I1
g93
tp185
a(I2
g93
tp186
a(I3
g125
tp187
a(I0
g125
tp188
a(I1
g93
tp189
a(I2
g95
tp190
a(I3
g123
tp191
a(I0
g125
tp192
a(I1
g93
tp193
a(I2
g93
tp194
a(I3
g125
tp195
a(I0
g125
tp196
a(I1
g93
tp197
a(I2
g95
tp198
a(I3
g123
tp199
a(I0
g123
tp200
a(I1
g123
tp201
a(I2
g93
tp202
a(I3
g125
tp203
a(I0
g123
tp204
a(I1
g123
tp205
a(I2
g95
tp206
a(I3
g123
tp207
a(I0
g125
tp208
a(I1
g123
tp209
a(I2
g93
tp210
a(I3
g125
tp211
a(I0
g125
tp212
a(I1
g123
tp213
a(I2
g95
tp214
a(I3
g123
tp215
a(I0
g123
tp216
a(I1
g95
tp217
a(I2
g93
tp218
a(I3
g125
tp219
a(I0
g123
tp220
a(I1
g123
tp221
a(I2
g95
tp222
a(I3
g123
tp223
a(I0
g125
tp224
a(I1
g123
tp225
a(I2
g93
tp226
a(I3
g125
tp227
a(I0
g123
tp228
a(I1
g123
tp229
a(I2
g95
tp230
a(I3
g123
tp231
a(I0
g125
tp232
a(I1
g123
tp233
a(I2
g95
tp234
a(I3
g123
tp235
a(I0
g93
tp236
a(I1
g123
tp237
a(I2
g93
tp238
a(I3
g95
tp239
a(I0
g93
tp240
a(I1
g93
tp241
a(I2
g93
tp242
a(I3
g95
tp243
a(I0
g93
tp244
a(I1
g93
tp245
a(I2
g95
tp246
a(I3
g95
tp247
a(I0
g93
tp248
a(I1
g93
tp249
a(I2
g95
tp250
a(I3
g95
tp251
a(I0
g93
tp252
a(I1
g93
tp253
a(I2
g125
tp254
a(I3
g95
tp255
a(I0
g125
tp256
a(I1
g93
tp257
a(I2
g123
tp258
a(I3
g95
tp259
a(I0
g125
tp260
a(I1
g93
tp261
a(I2
g93
tp262
a(I3
g95
tp263
a(I0
g125
tp264
a(I1
g93
tp265
a(I2
g93
tp266
a(I3
g95
tp267
a(I0
g95
tp268
a(I1
g123
tp269
a(I2
g93
tp270
a(I3
g95
tp271
a(I0
g95
tp272
a(I1
g123
tp273
a(I2
g93
tp274
a(I3
g123
tp275
a(I0
g95
tp276
a(I1
g123
tp277
a(I2
g93
tp278
a(I3
g123
tp279
a(I0
g95
tp280
a(I1
g123
tp281
a(I2
g125
tp282
a(I3
g123
tp283
a(I0
g95
tp284
a(I1
g95
tp285
a(I2
g123
tp286
a(I3
g95
tp287
a(I0
g123
tp288
a(I1
g123
tp289
a(I2
g95
tp290
a(I3
g95
tp291
a(I0
g123
tp292
a(I1
g95
tp293
a(I2
g95
tp294
a(I3
g123
tp295
a(I0
g123
tp296
a(I1
g95
tp297
a(I2
g95
tp298
a(I3
g95
tp299
a(I0
g93
tp300
a(I1
g123
tp301
a(I2
g95
tp302
a(I3
g95
tp303
a(I0
g93
tp304
a(I1
g123
tp305
a(I2
g95
tp306
a(I3
g95
tp307
a(I0
g93
tp308
a(I1
g123
tp309
a(I2
g123
tp310
a(I3
g123
tp311
a(I0
g95
tp312
a(I1
g123
tp313
a(I2
g95
tp314
a(I3
g93
tp315
a(I0
g95
tp316
a(I1
g125
tp317
a(I2
g95
tp318
a(I3
g95
tp319
a(I0
g95
tp320
a(I1
g125
tp321
a(I2
g93
tp322
a(I3
g95
tp323
a(I0
g125
tp324
a(I1
g125
tp325
a(I2
g93
tp326
a(I3
g123
tp327
a(I0
g125
tp328
a(I1
g125
tp329
a(I2
g125
tp330
a(I3
g123
tp331
a(I0
g125
tp332
a(I1
g93
tp333
a(I2
g125
tp334
a(I3
g123
tp335
a(I0
g123
tp336
a(I1
g93
tp337
a(I2
g123
tp338
a(I3
g123
tp339
a(I0
g123
tp340
a(I1
g123
tp341
a(I2
g123
tp342
a(I3
g125
tp343
a(I0
g123
tp344
a(I1
g93
tp345
a(I2
g95
tp346
a(I3
g125
tp347
a(I0
g93
tp348
a(I1
g93
tp349
a(I2
g93
tp350
a(I3
g125
tp351
a(I0
g93
tp352
a(I1
g95
tp353
a(I2
g125
tp354
a(I3
g123
tp355
a(I0
g93
tp356
a(I1
g95
tp357
a(I2
g93
tp358
a(I3
g123
tp359
a(I0
g95
tp360
a(I1
g123
tp361
a(I2
g95
tp362
a(I3
g125
tp363
a(I0
g95
tp364
a(I1
g123
tp365
a(I2
g125
tp366
a(I3
g123
tp367
a(I0
g95
tp368
a(I1
g93
tp369
a(I2
g123
tp370
a(I3
g125
tp371
a(I0
g125
tp372
a(I1
g93
tp373
a(I2
g93
tp374
a(I3
g123
tp375
a(I0
g123
tp376
a(I1
g93
tp377
a(I2
g95
tp378
a(I3
g125
tp379
a(I0
g93
tp380
a(I1
g93
tp381
a(I2
g93
tp382
a(I3
g123
tp383
a(I0
g95
tp384
a(I1
g93
tp385
a(I2
g95
tp386
a(I3
g125
tp387
a(I0
g125
tp388
a(I1
g93
tp389
a(I2
g93
tp390
a(I3
g123
tp391
a(I0
g123
tp392
a(I1
g93
tp393
a(I2
g95
tp394
a(I3
g125
tp395
a(I0
g93
tp396
a(I1
g123
tp397
a(I2
g93
tp398
a(I3
g123
tp399
a(I0
g95
tp400
a(I1
g123
tp401
a(I2
g95
tp402
a(I3
g125
tp403
a(I0
g125
tp404
a(I1
g123
tp405
a(I2
g93
tp406
a(I3
g123
tp407
a(I0
g123
tp408
a(I1
g123
tp409
a(I2
g95
tp410
a(I3
g125
tp411
a(I0
g93
tp412
a(I1
g95
tp413
a(I2
g93
tp414
a(I3
g123
tp415
a(I0
g95
tp416
a(I1
g95
tp417
a(I2
g95
tp418
a(I3
g125
tp419
a(I0
g125
tp420
a(I1
g95
tp421
a(I2
g93
tp422
a(I3
g123
tp423
a(I0
g123
tp424
a(I1
g123
tp425
a(I2
g95
tp426
a(I3
g125
tp427
a(I0
g93
tp428
a(I1
g123
tp429
a(I2
g93
tp430
a(I3
g123
tp431
a(I0
g95
tp432
a(I1
g123
tp433
a(I2
g95
tp434
a(I3
g125
tp435
a(I0
g125
tp436
a(I1
g123
tp437
a(I2
g123
tp438
a(I3
g125
tp439
a(I0
g123
tp440
a(I1
g125
tp441
a(I2
g125
tp442
a(I3
g123
tp443
a(I0
g93
tp444
a(I1
g123
tp445
a(I2
g123
tp446
a(I3
g125
tp447
a(I0
g95
tp448
a(I1
g125
tp449
a(I2
g125
tp450
a(I3
g123
tp451
a(I0
g125
tp452
a(I1
g123
tp453
a(I2
g123
tp454
a(I3
g125
tp455
a(I0
g123
tp456
a(I1
g125
tp457
a(I2
g125
tp458
a(I3
g123
tp459
a(I0
g93
tp460
a(I1
g123
tp461
a(I2
g123
tp462
a(I3
g125
tp463
a(I0
g95
tp464
a(I1
g125
tp465
a(I2
g125
tp466
a(I3
g123
tp467
a(I0
g125
tp468
a(I1
g123
tp469
a(I2
g123
tp470
a(I3
g125
tp471
a(I0
g123
tp472
a(I1
g125
tp473
a(I2
g125
tp474
a(I3
g123
tp475
a(I0
g93
tp476
a(I1
g123
tp477
a(I2
g123
tp478
a(I3
g125
tp479
a(I0
g95
tp480
a(I1
g125
tp481
a(I2
g125
tp482
a(I3
g123
tp483
a(I0
g125
tp484
a(I1
g123
tp485
a(I2
g123
tp486
a(I3
g125
tp487
a(I0
g123
tp488
a(I1
g125
tp489
a(I2
g125
tp490
a(I3
g123
tp491
a(I0
g93
tp492
a(I1
g123
tp493
a(I2
g123
tp494
a(I3
g125
tp495
a(I0
g95
tp496
a(I1
g125
tp497
a(I2
g125
tp498
a(I3
g123
tp499
a(I0
g125
tp500
a(I1
g123
tp501
a(I2
g123
tp502
a(I3
g125
tp503
a(I0
g123
tp504
a(I1
g125
tp505
a(I2
g125
tp506
a(I3
g123
tp507
a(I0
g93
tp508
a(I1
g123
tp509
a(I2
g123
tp510
a(I3
g125
tp511
a(I0
g95
tp512
a(I1
g125
tp513
a(I2
g125
tp514
a(I3
g123
tp515
a(I0
g125
tp516
a(I1
g123
tp517
a(I2
g123
tp518
a(I3
g125
tp519
a(I0
g123
tp520
a(I1
g125
tp521
a(I2
g125
tp522
a(I3
g123
tp523
a(I0
g93
tp524
a(I1
g123
tp525
a(I2
g123
tp526
a(I3
g125
tp527
a(I0
g95
tp528
a(I1
g125
tp529
a(I2
g125
tp530
a(I3
g123
tp531
a(I0
g125
tp532
a(I1
g123
tp533
a(I2
g123
tp534
a(I3
g125
tp535
a(I0
g123
tp536
a(I1
g125
tp537
a(I2
g125
tp538
a(I3
g123
tp539
a(I0
g93
tp540
a(I1
g123
tp541
a(I2
g123
tp542
a(I3
g125
tp543
a(I0
g95
tp544
a(I1
g125
tp545
a(I2
g125
tp546
a(I3
g123
tp547
a(I0
g125
tp548
a(I1
g123
tp549
a(I2
g123
tp550
a(I3
g125
tp551
a(I0
g123
tp552
a(I1
g125
tp553
a(I2
g125
tp554
a(I3
g123
tp555
a(I0
g93
tp556
a(I1
g123
tp557
a(I2
g123
tp558
a(I3
g125
tp559
a(I0
g95
tp560
a(I1
g125
tp561
a(I2
g125
tp562
a(I3
g123
tp563
a(I0
g125
tp564
a(I1
g123
tp565
a(I2
g123
tp566
a(I3
g125
tp567
a(I0
g123
tp568
a(I1
g125
tp569
a(I2
g125
tp570
a(I3
g123
tp571
a(I0
g93
tp572
a(I1
g123
tp573
a(I2
g123
tp574
a(I3
g125
tp575
a(I0
g95
tp576
a(I1
g125
tp577
a(I2
g125
tp578
a(I3
g123
tp579
a(I0
g125
tp580
a(I1
g123
tp581
a(I2
g123
tp582
a(I3
g125
tp583
a(I0
g123
tp584
a(I1
g125
tp585
a(I2
g125
tp586
a(I3
g123
tp587
a(I0
g93
tp588
a(I1
g123
tp589
a(I2
g123
tp590
a(I3
g125
tp591
a(I0
g95
tp592
a(I1
g125
tp593
a(I2
g125
tp594
a(I3
g123
tp595
a(I0
g125
tp596
a(I1
g123
tp597
a(I2
g123
tp598
a(I3
g125
tp599
a(I0
g123
tp600
a(I1
g125
tp601
a(I2
g125
tp602
a(I3
g123
tp603
a(I0
g93
tp604
a(I1
g123
tp605
a(I2
g123
tp606
a(I3
g125
tp607
a(I0
g95
tp608
a(I1
g125
tp609
a(I2
g125
tp610
a(I3
g123
tp611
a(I0
g125
tp612
a(I1
g123
tp613
a(I2
g123
tp614
a(I3
g125
tp615
a(I0
g123
tp616
a(I1
g125
tp617
a(I2
g125
tp618
a(I3
g123
tp619
a(I0
g93
tp620
a(I1
g123
tp621
a(I2
g123
tp622
a(I3
g125
tp623
a(I0
g95
tp624
a(I1
g125
tp625
a(I2
g125
tp626
a(I3
g123
tp627
a(I0
g125
tp628
a(I1
g123
tp629
a(I2
g123
tp630
a(I3
g125
tp631
a(I0
g123
tp632
a(I1
g125
tp633
a(I2
g125
tp634
a(I3
g123
tp635
a(I0
g93
tp636
a(I1
g123
tp637
a(I2
g123
tp638
a(I3
g125
tp639
a(I0
g95
tp640
a(I1
g125
tp641
a(I2
g125
tp642
a(I3
g123
tp643
a(I0
g125
tp644
a(I1
g123
tp645
a(I2
g123
tp646
a(I3
g125
tp647
a(I0
g123
tp648
a(I1
g125
tp649
a(I2
g125
tp650
a(I3
g123
tp651
a(I0
g93
tp652
a(I1
g123
tp653
a(I2
g123
tp654
a(I3
g125
tp655
a(I0
g95
tp656
a(I1
g125
tp657
a(I2
g125
tp658
a(I3
g123
tp659
a(I0
g125
tp660
a(I1
g123
tp661
a(I2
g123
tp662
a(I3
g125
tp663
a(I0
g123
tp664
a(I1
g125
tp665
a(I2
g125
tp666
a(I3
g123
tp667
a(I0
g93
tp668
a(I1
g123
tp669
a(I2
g123
tp670
a(I3
g125
tp671
a(I0
g95
tp672
a(I1
g125
tp673
a(I2
g125
tp674
a(I3
g123
tp675
a(I0
g125
tp676
a(I1
g123
tp677
a(I2
g123
tp678
a(I3
g125
tp679
a(I0
g123
tp680
a(I1
g125
tp681
a(I2
g125
tp682
a(I3
g123
tp683
a(I0
g93
tp684
a(I1
g123
tp685
a(I2
g123
tp686
a(I3
g125
tp687
a(I0
g95
tp688
a(I1
g125
tp689
a(I2
g125
tp690
a(I3
g123
tp691
a(I0
g125
tp692
a(I1
g123
tp693
a(I2
g123
tp694
a(I3
g125
tp695
a(I0
g123
tp696
a(I1
g125
tp697
a(I2
g125
tp698
a(I3
g123
tp699
a(I0
g93
tp700
a(I1
g123
tp701
a(I2
g123
tp702
a(I3
g125
tp703
a(I0
g95
tp704
a(I1
g125
tp705
a(I2
g125
tp706
a(I3
g123
tp707
a(I0
g125
tp708
a(I1
g123
tp709
a(I2
g123
tp710
a(I3
g125
tp711
a(I0
g123
tp712
a(I1
g125
tp713
a(I2
g125
tp714
a(I3
g123
tp715
a(I0
g93
tp716
a(I1
g123
tp717
a(I2
g123
tp718
a(I3
g125
tp719
a(I0
g95
tp720
a(I1
g125
tp721
a(I2
g125
tp722
a(I3
g123
tp723
a(I0
g125
tp724
a(I1
g123
tp725
a(I2
g123
tp726
a(I3
g125
tp727
a(I0
g123
tp728
a(I1
g125
tp729
a(I2
g125
tp730
a(I3
g123
tp731
a(I0
g93
tp732
a(I1
g123
tp733
a(I2
g123
tp734
a(I3
g125
tp735
a(I0
g95
tp736
a(I1
g125
tp737
a(I2
g125
tp738
a(I3
g123
tp739
a(I0
g125
tp740
a(I1
g123
tp741
a(I2
g123
tp742
a(I3
g125
tp743
a(I0
g123
tp744
a(I1
g125
tp745
a(I2
g125
tp746
a(I3
g123
tp747
a(I0
g93
tp748
a(I1
g123
tp749
a(I2
g123
tp750
a(I3
g125
tp751
a(I0
g95
tp752
a(I1
g125
tp753
a(I2
g125
tp754
a(I3
g123
tp755
a(I0
g125
tp756
a(I1
g123
tp757
a(I2
g123
tp758
a(I3
g125
tp759
a(I0
g123
tp760
a(I1
g125
tp761
a(I2
g125
tp762
a(I3
g123
tp763
a(I0
g93
tp764
a(I1
g123
tp765
a(I2
g123
tp766
a(I3
g125
tp767
a(I0
g95
tp768
a(I1
g125
tp769
a(I2
g125
tp770
a(I3
g123
tp771
a(I0
g125
tp772
a(I1
g123
tp773
a(I2
g123
tp774
a(I3
g125
tp775
a(I0
g123
tp776
a(I1
g125
tp777
a(I2
g125
tp778
a(I3
g123
tp779
a(I0
g93
tp780
a(I1
g123
tp781
a(I2
g123
tp782
a(I3
g125
tp783
a(I0
g95
tp784
a(I1
g125
tp785
a(I2
g125
tp786
a(I3
g123
tp787
a(I0
g125
tp788
a(I1
g123
tp789
a(I2
g123
tp790
a(I3
g125
tp791
a(I0
g123
tp792
a(I1
g125
tp793
a(I2
g125
tp794
a(I3
g123
tp795
a(I0
g93
tp796
a(I1
g123
tp797
a(I2
g123
tp798
a(I3
g125
tp799
a(I0
g95
tp800
a(I1
g125
tp801
a(I2
g125
tp802
a(I3
g123
tp803
a(I0
g125
tp804
a(I1
g123
tp805
a(I2
g123
tp806
a(I3
g125
tp807
a(I0
g123
tp808
a(I1
g125
tp809
a(I2
g125
tp810
a(I3
g123
tp811
a(I0
g93
tp812
a(I1
g123
tp813
a(I2
g123
tp814
a(I3
g125
tp815
a(I0
g95
tp816
a(I1
g125
tp817
a(I2
g125
tp818
a(I3
g123
tp819
a(I0
g125
tp820
a(I1
g123
tp821
a(I2
g123
tp822
a(I3
g125
tp823
a(I0
g123
tp824
a(I1
g125
tp825
a(I2
g125
tp826
a(I3
g123
tp827
a(I0
g93
tp828
a(I1
g123
tp829
a(I2
g123
tp830
a(I3
g125
tp831
a(I0
g95
tp832
a(I1
g125
tp833
a(I2
g125
tp834
a(I3
g123
tp835
a(I0
g125
tp836
a(I1
g123
tp837
a(I2
g123
tp838
a(I3
g125
tp839
a(I0
g123
tp840
a(I1
g125
tp841
a(I2
g125
tp842
a(I3
g123
tp843
a(I0
g93
tp844
a(I1
g123
tp845
a(I2
g123
tp846
a(I3
g125
tp847
a(I0
g95
tp848
a(I1
g125
tp849
a(I2
g125
tp850
a(I3
g123
tp851
a(I0
g125
tp852
a(I1
g123
tp853
a(I2
g123
tp854
a(I3
g125
tp855
a(I0
g123
tp856
a(I1
g125
tp857
a(I2
g125
tp858
a(I3
g123
tp859
a(I0
g93
tp860
a(I1
g123
tp861
a(I2
g123
tp862
a(I3
g125
tp863
a(I0
g95
tp864
a(I1
g125
tp865
a(I2
g125
tp866
a(I3
g123
tp867
a(I0
g125
tp868
a(I1
g123
tp869
a(I2
g123
tp870
a(I3
g125
tp871
a(I0
g123
tp872
a(I1
g125
tp873
a(I2
g125
tp874
a(I3
g123
tp875
a(I0
g93
tp876
a(I1
g123
tp877
a(I2
g123
tp878
a(I3
g125
tp879
a(I0
g95
tp880
a(I1
g125
tp881
a(I2
g125
tp882
a(I3
g123
tp883
a(I0
g125
tp884
a(I1
g123
tp885
a(I2
g123
tp886
a(I3
g125
tp887
a(I0
g123
tp888
a(I1
g125
tp889
a(I2
g125
tp890
a(I3
g123
tp891
a(I0
g93
tp892
a(I1
g123
tp893
a(I2
g123
tp894
a(I3
g125
tp895
a(I0
g95
tp896
a(I1
g125
tp897
a(I2
g125
tp898
a(I3
g123
tp899
a(I0
g125
tp900
a(I1
g123
tp901
a(I2
g123
tp902
a(I3
g125
tp903
a(I0
g123
tp904
a(I1
g125
tp905
a(I2
g125
tp906
a(I3
g123
tp907
a(I0
g93
tp908
a(I1
g123
tp909
a(I2
g123
tp910
a(I3
g125
tp911
a(I0
g95
tp912
a(I1
g125
tp913
a(I2
g125
tp914
a(I3
g123
tp915
a(I0
g125
tp916
a(I1
g123
tp917
a(I2
g123
tp918
a(I3
g125
tp919
a(I0
g123
tp920
a(I1
g125
tp921
a(I2
g125
tp922
a(I3
g123
tp923
a(I0
g93
tp924
a(I1
g123
tp925
a(I2
g123
tp926
a(I3
g125
tp927
a(I0
g95
tp928
a(I1
g125
tp929
a(I2
g125
tp930
a(I3
g123
tp931
a(I0
g125
tp932
a(I1
g123
tp933
a(I2
g123
tp934
a(I3
g125
tp935
a(I0
g123
tp936
a(I1
g125
tp937
a(I2
g125
tp938
a(I3
g123
tp939
a(I0
g93
tp940
a(I1
g123
tp941
a(I2
g123
tp942
a(I3
g125
tp943
a(I0
g95
tp944
a(I1
g125
tp945
a(I2
g125
tp946
a(I3
g123
tp947
a(I0
g125
tp948
a(I1
g123
tp949
a(I2
g123
tp950
a(I3
g125
tp951
a(I0
g123
tp952
a(I1
g125
tp953
a(I2
g125
tp954
a(I3
g123
tp955
a(I0
g93
tp956
a(I1
g123
tp957
a(I2
g123
tp958
a(I3
g125
tp959
a(I0
g95
tp960
a(I1
g125
tp961
a(I2
g125
tp962
a(I3
g123
tp963
a(I0
g125
tp964
a(I1
g123
tp965
a(I2
g123
tp966
a(I3
g125
tp967
a(I0
g123
tp968
a(I1
g125
tp969
a(I2
g125
tp970
a(I3
g123
tp971
a(I0
g93
tp972
a(I1
g123
tp973
a(I2
g123
tp974
a(I3
g125
tp975
a(I0
g95
tp976
a(I1
g125
tp977
a(I2
g125
tp978
a(I3
g123
tp979
a(I0
g125
tp980
a(I1
g123
tp981
a(I2
g123
tp982
a(I3
g125
tp983
a(I0
g123
tp984
a(I1
g125
tp985
a(I2
g125
tp986
a(I3
g123
tp987
a(I0
g93
tp988
a(I1
g123
tp989
a(I2
g123
tp990
a(I3
g125
tp991
a(I0
g95
tp992
a(I1
g125
tp993
a(I2
g125
tp994
a(I3
g123
tp995
a(I0
g125
tp996
a(I1
g123
tp997
a(I2
g123
tp998
a(I3
g125
tp999
a(I0
g123
tp1000
a(I1
g125
tp1001
a(I2
g125
tp1002
a(I3
g123
tp1003
a(I0
g93
tp1004
a(I1
g123
tp1005
a(I2
g123
tp1006
a(I3
g125
tp1007
a(I0
g95
tp1008
a(I1
g125
tp1009
a(I2
g125
tp1010
a(I3
g123
tp1011
a(I0
g125
tp1012
a(I1
g123
tp1013
a(I2
g123
tp1014
a(I3
g125
tp1015
a(I0
g123
tp1016
a(I1
g125
tp1017
a(I2
g125
tp1018
a(I3
g123
tp1019
a(I0
g93
tp1020
a(I1
g123
tp1021
a(I2
g123
tp1022
a(I3
g125
tp1023
a(I0
g95
tp1024
a(I1
g125
tp1025
a(I2
g125
tp1026
a(I3
g123
tp1027
a(I0
g125
tp1028
a(I1
g123
tp1029
a(I2
g123
tp1030
a(I3
g125
tp1031
a(I0
g123
tp1032
a(I1
g125
tp1033
a(I2
g125
tp1034
a(I3
g123
tp1035
a(I0
g93
tp1036
a(I1
g123
tp1037
a(I2
g123
tp1038
a(I3
g125
tp1039
a(I0
g95
tp1040
a(I1
g125
tp1041
a(I2
g125
tp1042
a(I3
g123
tp1043
a(I0
g125
tp1044
a(I1
g123
tp1045
a(I2
g123
tp1046
a(I3
g125
tp1047
a(I0
g123
tp1048
a(I1
g125
tp1049
a(I2
g125
tp1050
a(I3
g123
tp1051
a(I0
g93
tp1052
a(I1
g123
tp1053
a(I2
g123
tp1054
a(I3
g125
tp1055
a(I0
g95
tp1056
a(I1
g125
tp1057
a(I2
g125
tp1058
a(I3
g123
tp1059
a(I0
g125
tp1060
a(I1
g123
tp1061
a(I2
g123
tp1062
a(I3
g125
tp1063
a(I0
g123
tp1064
a(I1
g125
tp1065
a(I2
g125
tp1066
a(I3
g123
tp1067
a(I0
g93
tp1068
a(I1
g123
tp1069
a(I2
g123
tp1070
a(I3
g125
tp1071
a(I0
g95
tp1072
a(I1
g125
tp1073
a(I2
g125
tp1074
a(I3
g123
tp1075
a(I0
g125
tp1076
a(I1
g123
tp1077
a(I2
g123
tp1078
a(I3
g125
tp1079
a(I0
g123
tp1080
a(I1
g125
tp1081
a(I2
g125
tp1082
a(I3
g123
tp1083
a(I0
g93
tp1084
a(I1
g123
tp1085
a(I2
g123
tp1086
a(I3
g125
tp1087
a(I0
g95
tp1088
a(I1
g125
tp1089
a(I2
g125
tp1090
a(I3
g123
tp1091
a(I0
g125
tp1092
a(I1
g123
tp1093
a(I2
g123
tp1094
a(I3
g125
tp1095
a(I0
g123
tp1096
a(I1
g125
tp1097
a(I2
g125
tp1098
a(I3
g123
tp1099
a(I0
g93
tp1100
a(I1
g123
tp1101
a(I2
g123
tp1102
a(I3
g125
tp1103
a(I0
g95
tp1104
a(I1
g125
tp1105
a(I2
g125
tp1106
a(I3
g123
tp1107
a(I0
g125
tp1108
a(I1
g123
tp1109
a(I2
g123
tp1110
a(I3
g125
tp1111
a(I0
g123
tp1112
a(I1
g125
tp1113
a(I2
g125
tp1114
a(I3
g123
tp1115
a(I0
g93
tp1116
a(I1
g123
tp1117
a(I2
g123
tp1118
a(I3
g125
tp1119
a(I0
g95
tp1120
a(I1
g125
tp1121
a(I2
g125
tp1122
a(I3
g123
tp1123
a(I0
g125
tp1124
a(I1
g123
tp1125
a(I2
g123
tp1126
a(I3
g125
tp1127
a(I0
g123
tp1128
a(I1
g125
tp1129
a(I2
g125
tp1130
a(I3
g123
tp1131
a(I0
g93
tp1132
a(I1
g123
tp1133
a(I2
g123
tp1134
a(I3
g125
tp1135
a(I0
g95
tp1136
a(I1
g125
tp1137
a(I2
g125
tp1138
a(I3
g123
tp1139
a(I0
g125
tp1140
a(I1
g123
tp1141
a(I2
g123
tp1142
a(I3
g125
tp1143
a(I0
g123
tp1144
a(I1
g125
tp1145
a(I2
g125
tp1146
a(I3
g123
tp1147
a(I0
g93
tp1148
a(I1
g123
tp1149
a(I2
g123
tp1150
a(I3
g125
tp1151
a(I0
g95
tp1152
a(I1
g125
tp1153
a(I2
g125
tp1154
a(I3
g123
tp1155
a(I0
g125
tp1156
a(I1
g123
tp1157
a(I2
g123
tp1158
a(I3
g125
tp1159
a(I0
g123
tp1160
a(I1
g125
tp1161
a(I2
g125
tp1162
a(I3
g123
tp1163
a(I0
g93
tp1164
a(I1
g123
tp1165
a(I2
g123
tp1166
a(I3
g125
tp1167
a(I0
g95
tp1168
a(I1
g125
tp1169
a(I2
g125
tp1170
a(I3
g123
tp1171
a(I0
g125
tp1172
a(I1
g123
tp1173
a(I2
g123
tp1174
a(I3
g125
tp1175
a(I0
g123
tp1176
a(I1
g125
tp1177
a(I2
g125
tp1178
a(I3
g123
tp1179
a(I0
g93
tp1180
a(I1
g123
tp1181
a(I2
g123
tp1182
a(I3
g125
tp1183
a(I0
g95
tp1184
a(I1
g125
tp1185
a(I2
g125
tp1186
a(I3
g123
tp1187
a(I0
g125
tp1188
a(I1
g123
tp1189
a(I2
g123
tp1190
a(I3
g125
tp1191
a(I0
g123
tp1192
a(I1
g125
tp1193
a(I2
g125
tp1194
a(I3
g123
tp1195
a(I0
g93
tp1196
a(I1
g123
tp1197
a(I2
g123
tp1198
a(I3
g125
tp1199
a(I0
g95
tp1200
a(I1
g125
tp1201
a(I2
g125
tp1202
a(I3
g123
tp1203
a(I0
g125
tp1204
a(I1
g123
tp1205
a(I2
g123
tp1206
a(I3
g125
tp1207
a(I0
g123
tp1208
a(I1
g125
tp1209
a(I2
g125
tp1210
a(I3
g123
tp1211
a(I0
g93
tp1212
a(I1
g123
tp1213
a(I2
g123
tp1214
a(I3
g125
tp1215
a(I0
g95
tp1216
a(I1
g125
tp1217
a(I2
g125
tp1218
a(I3
g123
tp1219
a(I0
g125
tp1220
a(I1
g123
tp1221
a(I2
g123
tp1222
a(I3
g125
tp1223
a(I0
g123
tp1224
a(I1
g125
tp1225
a(I2
g125
tp1226
a(I3
g123
tp1227
a(I0
g93
tp1228
a(I1
g123
tp1229
a(I2
g123
tp1230
a(I3
g125
tp1231
a(I0
g95
tp1232
a(I1
g125
tp1233
a(I2
g125
tp1234
a(I3
g123
tp1235
a(I0
g125
tp1236
a(I1
g123
tp1237
a(I2
g123
tp1238
a(I3
g125
tp1239
a(I0
g123
tp1240
a(I1
g125
tp1241
a(I2
g125
tp1242
a(I3
g123
tp1243
a(I0
g93
tp1244
a(I1
g123
tp1245
a(I2
g123
tp1246
a(I3
g125
tp1247
a(I0
g95
tp1248
a(I1
g125
tp1249
a(I2
g125
tp1250
a(I3
g123
tp1251
a(I0
g125
tp1252
a(I1
g123
tp1253
a(I2
g123
tp1254
a(I3
g125
tp1255
a(I0
g123
tp1256
a(I1
g125
tp1257
a(I2
g125
tp1258
a(I3
g123
tp1259
a(I0
g93
tp1260
a(I1
g123
tp1261
a(I2
g123
tp1262
a(I3
g125
tp1263
a(I0
g95
tp1264
a(I1
g125
tp1265
a(I2
g125
tp1266
a(I3
g123
tp1267
a(I0
g125
tp1268
a(I1
g123
tp1269
a(I2
g123
tp1270
a(I3
g125
tp1271
a(I0
g123
tp1272
a(I1
g125
tp1273
a(I2
g125
tp1274
a(I3
g123
tp1275
a(I0
g93
tp1276
a(I1
g123
tp1277
a(I2
g123
tp1278
a(I3
g125
tp1279
a(I0
g95
tp1280
a(I1
g125
tp1281
a(I2
g125
tp1282
a(I3
g123
tp1283
a(I0
g125
tp1284
a(I1
g123
tp1285
a(I2
g123
tp1286
a(I3
g125
tp1287
a(I0
g123
tp1288
a(I1
g125
tp1289
a(I2
g125
tp1290
a(I3
g123
tp1291
a(I0
g93
tp1292
a(I1
g123
tp1293
a(I2
g123
tp1294
a(I3
g125
tp1295
a(I0
g95
tp1296
asS'length'
p1297
I1200
sS'agents'
p1298
(lp1299
(igame
Agent
p1300
(dp1301
S'index'
p1302
I0
sba(igame
Agent
p1303
(dp1304
g1302
I0
sba(igame
Agent
p1305
(dp1306
g1302
I0
sba(igame
Agent
p1307
(dp1308
g1302
I0
sbasS'redTeamName'
p1309
S'Red'
p1310
s.