(dp1
S'layout'
p2
(ilayout
Layout
p3
(dp4
S'capsules'
p5
(lp6
sS'numGhosts'
p7
I4
sS'food'
p8
(igame
Grid
p9
(dp10
S'CELLS_PER_INT'
p11
I30
sS'width'
p12
I18
sS'data'
p13
(lp14
(lp15
I00
aI00
aI00
aI00
aI00
aI00
aI00
aI00
aI00
aI00
aI00
aI00
aI00
aI00
aI00
aI00
aI00
aI00
aI00
aI00
aa(lp16
I00
aI00
aI00
aI00
aI00
aI00
aI00
aI00
aI00
aI00
aI00
aI00
aI00
aI00
aI00
aI00
aI00
aI00
aI00
aI00
aa(lp17
I00
aI00
aI00
aI00
aI00
aI00
aI00
aI00
aI00
aI00
aI00
aI00
aI00
aI00
aI00
aI00
aI00
aI00
aI00
aI00
aa(lp18
I00
aI01
aI00
aI01
aI01
aI01
aI01
aI00
aI01
aI00
aI00
aI01
aI00
aI01
aI01
aI01
aI01
aI01
aI00
aI00
aa(lp19
I00
aI01
aI00
aI00
aI01
aI00
aI00
aI00
aI01
aI00
aI00
aI01
aI00
aI00
aI00
aI00
aI01
aI01
aI00
aI00
aa(lp20
I00
aI01
aI00
aI00
aI01
aI00
aI00
aI00
aI00
aI00
aI00
aI00
aI00
aI00
aI00
aI00
aI01
aI01
aI00
aI00
aa(lp21
I00
aI01
aI00
aI00
aI01
aI00
aI00
aI00
aI00
aI00
aI00
aI00
aI01
aI01
aI00
aI00
aI01
aI01
aI00
aI00
aa(lp22
I00
aI00
aI00
aI00
aI01
aI01
aI00
aI00
aI01
aI01
aI01
aI01
aI00
aI00
aI01
aI00
aI01
aI01
aI00
aI00
aa(lp23
I00
aI00
aI00
aI00
aI00
aI00
aI00
aI00
aI00
aI00
aI00
aI00
aI00
aI00
aI00
aI00
aI00
aI00
aI00
aI00
aa(lp24
I00
aI00
aI00
aI00
aI00
aI00
aI00
aI00
aI00
aI00
aI00
aI00
aI00
aI00
aI00
aI00
aI00
aI00
aI00
aI00
aa(lp25
I00
aI00
aI00
aI00
aI01
aI01
aI00
aI00
aI01
aI01
aI01
aI01
aI00
aI00
aI01
aI00
aI01
aI01
aI00
aI00
aa(lp26
I00
aI01
aI00
aI00
aI01
aI00
aI00
aI00
aI00
aI00
aI00
aI00
aI01
aI01
aI00
aI00
aI01
aI01
aI00
aI00
aa(lp27
I00
aI01
aI00
aI00
aI01
aI00
aI00
aI00
aI00
aI00
aI00
aI00
aI00
aI00
aI00
aI00
aI01
aI01
aI00
aI00
aa(lp28
I00
aI01
aI00
aI00
aI01
aI00
aI00
aI00
aI01
aI00
aI00
aI01
aI00
aI00
aI00
aI00
aI01
aI01
aI00
aI00
aa(lp29
I00
aI01
aI00
aI01
aI01
aI01
aI01
aI00
aI01
aI00
aI00
aI01
aI00
aI01
aI01
aI01
aI01
aI01
aI00
aI00
aa(lp30
I00
aI00
aI00
aI00
aI00
aI00
aI00
aI00
aI00
aI00
aI00
aI00
aI00
aI00
aI00
aI00
aI00
aI00
aI00
aI00
aa(lp31
I00
aI00
aI00
aI00
aI00
aI00
aI00
aI00
aI00
aI00
aI00
aI00
aI00
aI00
aI00
aI00
aI00
aI00
aI00
aI00
aa(lp32
I00
aI00
aI00
aI00
aI00
aI00
aI00
aI00
aI00
aI00
aI00
aI00
aI00
aI00
aI00
aI00
aI00
aI00
aI00
aI00
aasS'height'
p33
I20
sbsS'agentPositions'
p34
(lp35
(I00
(I1
I18
tp36
tp37
a(I00
(I16
I18
tp38
tp39
a(I00
(I1
I1
tp40
tp41
a(I00
(I16
I1
tp42
tp43
asg33
I20
sg12
I18
sS'walls'
p44
(igame
Grid
p45
(dp46
g11
I30
sg12
I18
sg13
(lp47
(lp48
I01
aI01
aI01
aI01
aI01
aI01
aI01
aI01
aI01
aI01
aI01
aI01
aI01
aI01
aI01
aI01
aI01
aI01
aI01
aI01
aa(lp49
I01
aI00
aI00
aI00
aI00
aI00
aI00
aI00
aI00
aI01
aI01
aI00
aI00
aI00
aI00
aI00
aI00
aI00
aI00
aI01
aa(lp50
I01
aI01
aI01
aI01
aI01
aI01
aI01
aI01
aI00
aI01
aI01
aI00
aI01
aI01
aI01
aI01
aI01
aI01
aI01
aI01
aa(lp51
I01
aI00
aI00
aI00
aI00
aI00
aI00
aI00
aI00
aI01
aI01
aI00
aI00
aI00
aI00
aI00
aI00
aI00
aI01
aI01
aa(lp52
I01
aI00
aI01
aI01
aI00
aI01
aI01
aI01
aI00
aI00
aI00
aI00
aI01
aI01
aI01
aI01
aI00
aI00
aI01
aI01
aa(lp53
I01
aI00
aI01
aI01
aI00
aI00
aI00
aI00
aI00
aI00
aI00
aI00
aI00
aI00
aI00
aI00
aI00
aI00
aI01
aI01
aa(lp54
I01
aI00
aI00
aI00
aI00
aI01
aI01
aI00
aI01
aI01
aI01
aI01
aI00
aI00
aI00
aI01
aI00
aI00
aI01
aI01
aa(lp55
I01
aI00
aI01
aI01
aI00
aI00
aI01
aI00
aI00
aI00
aI00
aI00
aI00
aI01
aI00
aI01
aI00
aI00
aI01
aI01
aa(lp56
I01
aI00
aI00
aI00
aI00
aI00
aI01
aI00
aI01
aI01
aI01
aI01
aI00
aI01
aI00
aI01
aI00
aI00
aI01
aI01
aa(lp57
I01
aI00
aI00
aI00
aI00
aI00
aI01
aI00
aI01
aI01
aI01
aI01
aI00
aI01
aI00
aI01
aI00
aI00
aI01
aI01
aa(lp58
I01
aI00
aI01
aI01
aI00
aI00
aI01
aI00
aI00
aI00
aI00
aI00
aI00
aI01
aI00
aI01
aI00
aI00
aI01
aI01
aa(lp59
I01
aI00
aI00
aI00
aI00
aI01
aI01
aI00
aI01
aI01
aI01
aI01
aI00
aI00
aI00
aI01
aI00
aI00
aI01
aI01
aa(lp60
I01
aI00
aI01
aI01
aI00
aI00
aI00
aI00
aI00
aI00
aI00
aI00
aI00
aI00
aI00
aI00
aI00
aI00
aI01
aI01
aa(lp61
I01
aI00
aI01
aI01
aI00
aI01
aI01
aI01
aI00
aI00
aI00
aI00
aI01
aI01
aI01
aI01
aI00
aI00
aI01
aI01
aa(lp62
I01
aI00
aI00
aI00
aI00
aI00
aI00
aI00
aI00
aI01
aI01
aI00
aI00
aI00
aI00
aI00
aI00
aI00
aI01
aI01
aa(lp63
I01
aI01
aI01
aI01
aI01
aI01
aI01
aI01
aI00
aI01
aI01
aI00
aI01
aI01
aI01
aI01
aI01
aI01
aI01
aI01
aa(lp64
I01
aI00
aI00
aI00
aI00
aI00
aI00
aI00
aI00
aI01
aI01
aI00
aI00
aI00
aI00
aI00
aI00
aI00
aI00
aI01
aa(lp65
I01
aI01
aI01
aI01
aI01
aI01
aI01
aI01
aI01
aI01
aI01
aI01
aI01
aI01
aI01
aI01
aI01
aI01
aI01
aI01
aasg33
I20
sbsS'totalFood'
p66
I74
sS'layoutText'
p67
(lp68
S'%%%%%%%%%%%%%%%%%%'
p69
aS'%1%%%%%%%%%%%%%%2%'
p70
aS'% %.....  .....% %'
p71
aS'% %.....  .....% %'
p72
aS'% %.% %%%%%% %.% %'
p73
aS'% %.%  .  .  %.% %'
p74
aS'% %.% .%%%%. %.% %'
p75
aS'% % % .    . % % %'
p76
aS'%  .. %.%%.% ..  %'
p77
aS'%%%%  %.%%.%  %%%%'
p78
aS'%%%%  %.%%.%  %%%%'
p79
aS'%  .. %.%%.% ..  %'
p80
aS'% % %        % % %'
p81
aS'% %.% %%%%%% %.% %'
p82
aS'% %.% %.  .% %.% %'
p83
aS'% %.....  .....% %'
p84
aS'% %.%% %  % %%.% %'
p85
aS'% % %% %  % %% % %'
p86
aS'%3%....    ....%4%'
p87
aS'%%%%%%%%%%%%%%%%%%'
p88
asbsS'blueTeamName'
p89
S'Blue'
p90
sS'actions'
p91
(lp92
(I1
S'South'
p93
tp94
a(I2
S'North'
p95
tp96
a(I3
g95
tp97
a(I0
g93
tp98
a(I1
g93
tp99
a(I2
g95
tp100
a(I3
g95
tp101
a(I0
g93
tp102
a(I1
g93
tp103
a(I2
g95
tp104
a(I3
g95
tp105
a(I0
g93
tp106
a(I1
g93
tp107
a(I2
g95
tp108
a(I3
g95
tp109
a(I0
g93
tp110
a(I1
g93
tp111
a(I2
g95
tp112
a(I3
g95
tp113
a(I0
g93
tp114
a(I1
g93
tp115
a(I2
g95
tp116
a(I3
g95
tp117
a(I0
g93
tp118
a(I1
g93
tp119
a(I2
g95
tp120
a(I3
g95
tp121
a(I0
g93
tp122
a(I1
S'West'
p123
tp124
a(I2
S'East'
p125
tp126
a(I3
g123
tp127
a(I0
g125
tp128
a(I1
g123
tp129
a(I2
g125
tp130
a(I3
g123
tp131
a(I0
g125
tp132
a(I1
g123
tp133
a(I2
g125
tp134
a(I3
g123
tp135
a(I0
g125
tp136
a(I1
g123
tp137
a(I2
g125
tp138
a(I3
g123
tp139
a(I0
g125
tp140
a(I1
g95
tp141
a(I2
g95
tp142
a(I3
g93
tp143
a(I0
g95
tp144
a(I1
g123
tp145
a(I2
g95
tp146
a(I3
g123
tp147
a(I0
g125
tp148
a(I1
g123
tp149
a(I2
g95
tp150
a(I3
g123
tp151
a(I0
g125
tp152
a(I1
g93
tp153
a(I2
g95
tp154
a(I3
g123
tp155
a(I0
g125
tp156
a(I1
g93
tp157
a(I2
g95
tp158
a(I3
g123
tp159
a(I0
g125
tp160
a(I1
g95
tp161
a(I2
g95
tp162
a(I3
g123
tp163
a(I0
S'Stop'
p164
tp165
a(I1
g95
tp166
a(I2
g95
tp167
a(I3
g123
tp168
a(I0
g123
tp169
a(I1
g125
tp170
a(I2
g95
tp171
a(I3
g125
tp172
a(I0
g164
tp173
a(I1
g95
tp174
a(I2
g125
tp175
a(I3
g95
tp176
a(I0
g125
tp177
a(I1
g93
tp178
a(I2
g123
tp179
a(I3
g95
tp180
a(I0
g164
tp181
a(I1
g123
tp182
a(I2
g93
tp183
a(I3
g95
tp184
a(I0
g123
tp185
a(I1
g93
tp186
a(I2
g93
tp187
a(I3
g95
tp188
a(I0
g123
tp189
a(I1
g93
tp190
a(I2
g93
tp191
a(I3
g93
tp192
a(I0
g125
tp193
a(I1
g93
tp194
a(I2
g125
tp195
a(I3
g93
tp196
a(I0
g125
tp197
a(I1
g95
tp198
a(I2
g93
tp199
a(I3
g93
tp200
a(I0
g125
tp201
a(I1
g95
tp202
a(I2
g125
tp203
a(I3
g93
tp204
a(I0
g123
tp205
a(I1
g95
tp206
a(I2
g93
tp207
a(I3
g123
tp208
a(I0
g123
tp209
a(I1
g123
tp210
a(I2
g93
tp211
a(I3
g123
tp212
a(I0
g164
tp213
a(I1
g125
tp214
a(I2
g93
tp215
a(I3
g95
tp216
a(I0
g123
tp217
a(I1
g93
tp218
a(I2
g93
tp219
a(I3
g123
tp220
a(I0
g93
tp221
a(I1
g93
tp222
a(I2
g93
tp223
a(I3
g123
tp224
a(I0
g95
tp225
a(I1
g93
tp226
a(I2
g123
tp227
a(I3
g93
tp228
a(I0
g125
tp229
a(I1
g93
tp230
a(I2
g123
tp231
a(I3
g93
tp232
a(I0
g125
tp233
a(I1
g93
tp234
a(I2
g95
tp235
a(I3
g93
tp236
a(I0
g125
tp237
a(I1
g125
tp238
a(I2
g123
tp239
a(I3
g93
tp240
a(I0
g125
tp241
a(I1
g125
tp242
a(I2
g123
tp243
a(I3
g93
tp244
a(I0
g95
tp245
a(I1
g95
tp246
a(I2
g93
tp247
a(I3
g93
tp248
a(I0
g95
tp249
a(I1
g95
tp250
a(I2
g93
tp251
a(I3
g93
tp252
a(I0
g123
tp253
a(I1
g95
tp254
a(I2
g93
tp255
a(I3
g125
tp256
a(I0
g125
tp257
a(I1
g95
tp258
a(I2
g93
tp259
a(I3
g125
tp260
a(I0
g123
tp261
a(I1
g95
tp262
a(I2
g93
tp263
a(I3
g125
tp264
a(I0
g164
tp265
a(I1
g95
tp266
a(I2
g93
tp267
a(I3
g95
tp268
a(I0
g164
tp269
a(I1
g123
tp270
a(I2
g93
tp271
a(I3
g95
tp272
a(I0
g164
tp273
a(I1
g95
tp274
a(I2
g125
tp275
a(I3
g95
tp276
a(I0
g123
tp277
a(I1
g123
tp278
a(I2
g125
tp279
a(I3
g123
tp280
a(I0
g123
tp281
a(I1
g123
tp282
a(I2
g125
tp283
a(I3
g123
tp284
a(I0
g164
tp285
a(I1
g125
tp286
a(I2
g95
tp287
a(I3
g123
tp288
a(I0
g123
tp289
a(I1
g125
tp290
a(I2
g95
tp291
a(I3
g95
tp292
a(I0
g125
tp293
a(I1
g93
tp294
a(I2
g95
tp295
a(I3
g95
tp296
a(I0
g125
tp297
a(I1
g95
tp298
a(I2
g123
tp299
a(I3
g95
tp300
a(I0
g125
tp301
a(I1
g123
tp302
a(I2
g123
tp303
a(I3
g95
tp304
a(I0
g93
tp305
a(I1
g123
tp306
a(I2
g123
tp307
a(I3
g125
tp308
a(I0
g93
tp309
a(I1
g123
tp310
a(I2
g95
tp311
a(I3
g125
tp312
a(I0
g93
tp313
a(I1
g123
tp314
a(I2
g95
tp315
a(I3
g93
tp316
a(I0
g93
tp317
a(I1
g125
tp318
a(I2
g95
tp319
a(I3
g125
tp320
a(I0
g93
tp321
a(I1
g125
tp322
a(I2
g95
tp323
a(I3
g125
tp324
a(I0
g93
tp325
a(I1
g123
tp326
a(I2
g125
tp327
a(I3
g125
tp328
a(I0
g93
tp329
a(I1
g123
tp330
a(I2
g125
tp331
a(I3
g125
tp332
a(I0
g125
tp333
a(I1
g123
tp334
a(I2
g93
tp335
a(I3
g125
tp336
a(I0
g125
tp337
a(I1
g93
tp338
a(I2
g95
tp339
a(I3
g123
tp340
a(I0
g125
tp341
a(I1
g93
tp342
a(I2
g95
tp343
a(I3
g123
tp344
a(I0
g125
tp345
a(I1
g125
tp346
a(I2
g95
tp347
a(I3
g123
tp348
a(I0
g95
tp349
a(I1
g125
tp350
a(I2
g93
tp351
a(I3
g125
tp352
a(I0
g125
tp353
a(I1
g125
tp354
a(I2
g93
tp355
a(I3
g125
tp356
a(I0
g164
tp357
a(I1
g125
tp358
a(I2
g93
tp359
a(I3
g125
tp360
a(I0
g125
tp361
a(I1
g125
tp362
a(I2
g125
tp363
a(I3
g95
tp364
a(I0
g125
tp365
a(I1
g125
tp366
a(I2
g125
tp367
a(I3
g95
tp368
a(I0
g125
tp369
a(I1
g123
tp370
a(I2
g125
tp371
a(I3
g95
tp372
a(I0
g164
tp373
a(I1
g123
tp374
a(I2
g123
tp375
a(I3
g95
tp376
a(I0
g123
tp377
a(I1
g123
tp378
a(I2
g123
tp379
a(I3
g95
tp380
a(I0
g164
tp381
a(I1
g125
tp382
a(I2
g123
tp383
a(I3
g125
tp384
a(I0
g123
tp385
a(I1
g93
tp386
a(I2
g93
tp387
a(I3
g95
tp388
a(I0
g123
tp389
a(I1
g93
tp390
a(I2
g93
tp391
a(I3
g95
tp392
a(I0
g95
tp393
a(I1
g95
tp394
a(I2
g93
tp395
a(I3
g125
tp396
a(I0
g93
tp397
a(I1
g93
tp398
a(I2
g125
tp399
a(I3
g95
tp400
a(I0
g125
tp401
a(I1
g93
tp402
a(I2
g125
tp403
a(I3
g95
tp404
a(I0
g125
tp405
a(I1
g93
tp406
a(I2
g95
tp407
a(I3
g123
tp408
a(I0
g125
tp409
a(I1
g93
tp410
a(I2
g125
tp411
a(I3
g123
tp412
a(I0
g125
tp413
a(I1
g123
tp414
a(I2
g93
tp415
a(I3
g123
tp416
a(I0
g93
tp417
a(I1
g123
tp418
a(I2
g123
tp419
a(I3
g95
tp420
a(I0
g93
tp421
a(I1
g123
tp422
a(I2
g123
tp423
a(I3
g125
tp424
a(I0
g93
tp425
a(I1
g123
tp426
a(I2
g123
tp427
a(I3
g125
tp428
a(I0
g93
tp429
a(I1
g123
tp430
a(I2
g95
tp431
a(I3
g93
tp432
a(I0
g93
tp433
a(I1
g95
tp434
a(I2
g95
tp435
a(I3
g125
tp436
a(I0
g125
tp437
a(I1
g123
tp438
a(I2
g95
tp439
a(I3
g93
tp440
a(I0
g125
tp441
a(I1
g95
tp442
a(I2
g95
tp443
a(I3
g93
tp444
a(I0
g95
tp445
a(I1
g125
tp446
a(I2
g95
tp447
a(I3
g93
tp448
a(I0
g125
tp449
a(I1
g93
tp450
a(I2
g95
tp451
a(I3
g123
tp452
a(I0
g125
tp453
a(I1
g93
tp454
a(I2
g95
tp455
a(I3
g93
tp456
a(I0
g123
tp457
a(I1
g93
tp458
a(I2
g95
tp459
a(I3
g125
tp460
a(I0
g123
tp461
a(I1
g93
tp462
a(I2
g95
tp463
a(I3
g93
tp464
a(I0
g93
tp465
a(I1
g93
tp466
a(I2
g95
tp467
a(I3
g93
tp468
a(I0
g123
tp469
a(I1
g93
tp470
a(I2
g95
tp471
a(I3
g93
tp472
a(I0
g123
tp473
a(I1
g93
tp474
a(I2
g95
tp475
a(I3
g93
tp476
a(I0
g164
tp477
a(I1
g123
tp478
a(I2
g125
tp479
a(I3
g93
tp480
a(I0
g164
tp481
a(I1
g123
tp482
a(I2
g95
tp483
a(I3
g123
tp484
a(I0
g95
tp485
a(I1
g123
tp486
a(I2
g125
tp487
a(I3
g123
tp488
a(I0
g95
tp489
a(I1
g93
tp490
a(I2
g125
tp491
a(I3
g95
tp492
a(I0
g95
tp493
a(I1
g93
tp494
a(I2
g93
tp495
a(I3
g95
tp496
a(I0
g95
tp497
a(I1
g93
tp498
a(I2
g95
tp499
a(I3
g95
tp500
a(I0
g95
tp501
a(I1
g123
tp502
a(I2
g123
tp503
a(I3
g95
tp504
a(I0
g123
tp505
a(I1
g95
tp506
a(I2
g125
tp507
a(I3
g95
tp508
a(I0
g123
tp509
a(I1
g93
tp510
a(I2
g123
tp511
a(I3
g125
tp512
a(I0
g164
tp513
a(I1
g93
tp514
a(I2
g125
tp515
a(I3
g125
tp516
a(I0
g125
tp517
a(I1
g123
tp518
a(I2
g123
tp519
a(I3
g123
tp520
a(I0
g164
tp521
a(I1
g123
tp522
a(I2
g125
tp523
a(I3
g123
tp524
a(I0
g123
tp525
a(I1
g123
tp526
a(I2
g93
tp527
a(I3
g123
tp528
a(I0
g164
tp529
a(I1
g123
tp530
a(I2
g123
tp531
a(I3
g125
tp532
a(I0
g123
tp533
a(I1
g123
tp534
a(I2
g123
tp535
a(I3
g125
tp536
a(I0
g125
tp537
a(I1
g123
tp538
a(I2
g123
tp539
a(I3
g125
tp540
a(I0
g125
tp541
a(I1
g123
tp542
a(I2
g93
tp543
a(I3
g123
tp544
a(I0
g123
tp545
a(I1
g93
tp546
a(I2
g93
tp547
a(I3
g95
tp548
a(I0
g125
tp549
a(I1
g93
tp550
a(I2
g93
tp551
a(I3
g93
tp552
a(I0
g164
tp553
a(I1
g93
tp554
a(I2
g93
tp555
a(I3
g123
tp556
a(I0
g123
tp557
a(I1
g125
tp558
a(I2
g93
tp559
a(I3
g93
tp560
a(I0
g164
tp561
a(I1
g125
tp562
a(I2
g93
tp563
a(I3
g93
tp564
a(I0
g125
tp565
a(I1
g125
tp566
a(I2
g93
tp567
a(I3
g95
tp568
a(I0
g123
tp569
a(I1
g125
tp570
a(I2
g93
tp571
a(I3
g95
tp572
a(I0
g123
tp573
a(I1
g123
tp574
a(I2
g93
tp575
a(I3
g123
tp576
a(I0
g93
tp577
a(I1
g95
tp578
a(I2
g93
tp579
a(I3
g125
tp580
a(I0
g95
tp581
a(I1
g123
tp582
a(I2
g93
tp583
a(I3
g125
tp584
a(I0
g125
tp585
a(I1
g125
tp586
a(I2
g93
tp587
a(I3
g95
tp588
a(I0
g125
tp589
a(I1
g93
tp590
a(I2
g125
tp591
a(I3
g93
tp592
a(I0
g123
tp593
a(I1
g125
tp594
a(I2
g125
tp595
a(I3
g125
tp596
a(I0
g125
tp597
a(I1
g125
tp598
a(I2
g125
tp599
a(I3
g123
tp600
a(I0
g164
tp601
a(I1
g125
tp602
a(I2
g95
tp603
a(I3
g123
tp604
a(I0
g123
tp605
a(I1
g125
tp606
a(I2
g93
tp607
a(I3
g93
tp608
a(I0
g123
tp609
a(I1
g95
tp610
a(I2
g123
tp611
a(I3
g93
tp612
a(I0
g93
tp613
a(I1
g95
tp614
a(I2
g125
tp615
a(I3
g95
tp616
a(I0
g95
tp617
a(I1
g95
tp618
a(I2
g123
tp619
a(I3
g95
tp620
a(I0
g93
tp621
a(I1
g123
tp622
a(I2
g125
tp623
a(I3
g123
tp624
a(I0
g93
tp625
a(I1
g123
tp626
a(I2
g123
tp627
a(I3
g125
tp628
a(I0
g95
tp629
a(I1
g123
tp630
a(I2
g123
tp631
a(I3
g93
tp632
a(I0
g95
tp633
a(I1
g123
tp634
a(I2
g123
tp635
a(I3
g93
tp636
a(I0
g125
tp637
a(I1
g123
tp638
a(I2
g95
tp639
a(I3
g93
tp640
a(I0
g125
tp641
a(I1
g95
tp642
a(I2
g95
tp643
a(I3
g95
tp644
a(I0
g125
tp645
a(I1
g95
tp646
a(I2
g95
tp647
a(I3
g95
tp648
a(I0
g125
tp649
a(I1
g95
tp650
a(I2
g125
tp651
a(I3
g95
tp652
a(I0
g125
tp653
a(I1
g95
tp654
a(I2
g125
tp655
a(I3
g125
tp656
a(I0
g93
tp657
a(I1
g95
tp658
a(I2
g95
tp659
a(I3
g125
tp660
a(I0
g125
tp661
a(I1
g125
tp662
a(I2
g95
tp663
a(I3
g93
tp664
a(I0
g125
tp665
a(I1
g125
tp666
a(I2
g95
tp667
a(I3
g125
tp668
a(I0
g95
tp669
a(I1
g125
tp670
a(I2
g95
tp671
a(I3
g125
tp672
a(I0
g95
tp673
a(I1
g125
tp674
a(I2
g95
tp675
a(I3
g95
tp676
a(I0
g95
tp677
a(I1
g125
tp678
a(I2
g125
tp679
a(I3
g95
tp680
a(I0
g95
tp681
a(I1
g95
tp682
a(I2
g123
tp683
a(I3
g95
tp684
a(I0
g95
tp685
a(I1
g95
tp686
a(I2
g125
tp687
a(I3
g95
tp688
a(I0
g123
tp689
a(I1
g95
tp690
a(I2
g123
tp691
a(I3
g95
tp692
a(I0
g95
tp693
a(I1
g95
tp694
a(I2
g123
tp695
a(I3
g95
tp696
a(I0
g125
tp697
a(I1
g123
tp698
a(I2
g95
tp699
a(I3
g123
tp700
a(I0
g93
tp701
a(I1
g123
tp702
a(I2
g123
tp703
a(I3
g123
tp704
a(I0
g93
tp705
a(I1
g123
tp706
a(I2
g95
tp707
a(I3
g123
tp708
a(I0
g93
tp709
a(I1
g123
tp710
a(I2
g95
tp711
a(I3
g123
tp712
a(I0
g93
tp713
a(I1
g123
tp714
a(I2
g95
tp715
a(I3
g123
tp716
a(I0
g93
tp717
a(I1
g95
tp718
a(I2
g125
tp719
a(I3
g93
tp720
a(I0
g93
tp721
a(I1
g123
tp722
a(I2
g95
tp723
a(I3
g125
tp724
a(I0
g93
tp725
a(I1
g93
tp726
a(I2
g125
tp727
a(I3
g125
tp728
a(I0
g125
tp729
a(I1
g93
tp730
a(I2
g125
tp731
a(I3
g125
tp732
a(I0
g125
tp733
a(I1
g93
tp734
a(I2
g93
tp735
a(I3
g95
tp736
a(I0
g125
tp737
a(I1
g93
tp738
a(I2
g95
tp739
a(I3
g123
tp740
a(I0
g125
tp741
a(I1
g93
tp742
a(I2
g123
tp743
a(I3
g93
tp744
a(I0
g95
tp745
a(I1
g93
tp746
a(I2
g125
tp747
a(I3
g123
tp748
a(I0
g95
tp749
a(I1
g93
tp750
a(I2
g93
tp751
a(I3
g95
tp752
a(I0
g95
tp753
a(I1
g123
tp754
a(I2
g95
tp755
a(I3
g125
tp756
a(I0
g95
tp757
a(I1
g123
tp758
a(I2
g123
tp759
a(I3
g125
tp760
a(I0
g95
tp761
a(I1
g123
tp762
a(I2
g125
tp763
a(I3
g93
tp764
a(I0
g125
tp765
a(I1
g123
tp766
a(I2
g93
tp767
a(I3
g123
tp768
a(I0
g125
tp769
a(I1
g95
tp770
a(I2
g95
tp771
a(I3
g123
tp772
a(I0
g164
tp773
a(I1
g123
tp774
a(I2
g123
tp775
a(I3
g123
tp776
a(I0
g95
tp777
a(I1
g123
tp778
a(I2
g125
tp779
a(I3
g95
tp780
a(I0
g93
tp781
a(I1
g123
tp782
a(I2
g93
tp783
a(I3
g125
tp784
a(I0
g125
tp785
a(I1
g123
tp786
a(I2
g123
tp787
a(I3
g125
tp788
a(I0
g125
tp789
a(I1
g123
tp790
a(I2
g123
tp791
a(I3
g93
tp792
a(I0
g164
tp793
a(I1
g123
tp794
a(I2
g123
tp795
a(I3
g123
tp796
a(I0
g95
tp797
a(I1
g95
tp798
a(I2
g93
tp799
a(I3
g123
tp800
a(I0
g125
tp801
a(I1
g123
tp802
a(I2
g93
tp803
a(I3
g95
tp804
a(I0
g93
tp805
a(I1
g93
tp806
a(I2
g93
tp807
a(I3
g125
tp808
a(I0
g125
tp809
a(I1
g93
tp810
a(I2
g93
tp811
a(I3
g125
tp812
a(I0
g125
tp813
a(I1
g93
tp814
a(I2
g93
tp815
a(I3
g93
tp816
a(I0
g95
tp817
a(I1
g93
tp818
a(I2
g93
tp819
a(I3
g125
tp820
a(I0
g123
tp821
a(I1
g123
tp822
a(I2
g123
tp823
a(I3
g95
tp824
a(I0
g123
tp825
a(I1
g93
tp826
a(I2
g93
tp827
a(I3
g123
tp828
a(I0
g93
tp829
a(I1
g125
tp830
a(I2
g125
tp831
a(I3
g123
tp832
a(I0
g123
tp833
a(I1
g93
tp834
a(I2
g93
tp835
a(I3
g123
tp836
a(I0
g125
tp837
a(I1
g125
tp838
a(I2
g93
tp839
a(I3
g93
tp840
a(I0
g95
tp841
a(I1
g125
tp842
a(I2
g125
tp843
a(I3
g125
tp844
a(I0
g125
tp845
a(I1
g125
tp846
a(I2
g125
tp847
a(I3
g125
tp848
a(I0
g125
tp849
a(I1
g125
tp850
a(I2
g125
tp851
a(I3
g125
tp852
a(I0
g123
tp853
a(I1
g125
tp854
a(I2
g123
tp855
a(I3
g95
tp856
a(I0
g93
tp857
a(I1
g95
tp858
a(I2
g123
tp859
a(I3
g123
tp860
a(I0
g123
tp861
a(I1
g95
tp862
a(I2
g123
tp863
a(I3
g123
tp864
a(I0
g95
tp865
a(I1
g95
tp866
a(I2
g95
tp867
a(I3
g123
tp868
a(I0
g93
tp869
a(I1
g95
tp870
a(I2
g95
tp871
a(I3
g123
tp872
a(I0
g93
tp873
a(I1
g95
tp874
a(I2
g95
tp875
a(I3
g123
tp876
a(I0
g93
tp877
a(I1
g123
tp878
a(I2
g95
tp879
a(I3
g93
tp880
a(I0
g93
tp881
a(I1
g125
tp882
a(I2
g95
tp883
a(I3
g123
tp884
a(I0
g93
tp885
a(I1
g93
tp886
a(I2
g95
tp887
a(I3
g123
tp888
a(I0
g93
tp889
a(I1
g95
tp890
a(I2
g95
tp891
a(I3
g95
tp892
a(I0
g93
tp893
a(I1
g123
tp894
a(I2
g95
tp895
a(I3
g123
tp896
a(I0
g125
tp897
a(I1
g123
tp898
a(I2
g95
tp899
a(I3
g123
tp900
a(I0
g125
tp901
a(I1
g123
tp902
a(I2
g95
tp903
a(I3
g93
tp904
a(I0
g125
tp905
a(I1
g125
tp906
a(I2
g93
tp907
a(I3
g93
tp908
a(I0
g125
tp909
a(I1
g125
tp910
a(I2
g123
tp911
a(I3
g93
tp912
a(I0
g95
tp913
a(I1
g125
tp914
a(I2
g123
tp915
a(I3
g93
tp916
a(I0
g95
tp917
a(I1
g123
tp918
a(I2
g93
tp919
a(I3
g93
tp920
a(I0
g95
tp921
a(I1
g123
tp922
a(I2
g93
tp923
a(I3
g93
tp924
a(I0
g95
tp925
a(I1
g123
tp926
a(I2
g93
tp927
a(I3
g125
tp928
a(I0
g95
tp929
a(I1
g123
tp930
a(I2
g93
tp931
a(I3
g125
tp932
a(I0
g125
tp933
a(I1
g95
tp934
a(I2
g93
tp935
a(I3
g95
tp936
a(I0
g125
tp937
a(I1
g95
tp938
a(I2
g125
tp939
a(I3
g125
tp940
a(I0
g125
tp941
a(I1
g125
tp942
a(I2
g125
tp943
a(I3
g125
tp944
a(I0
g125
tp945
a(I1
g125
tp946
a(I2
g95
tp947
a(I3
g93
tp948
a(I0
g125
tp949
a(I1
g125
tp950
a(I2
g125
tp951
a(I3
g93
tp952
a(I0
g125
tp953
a(I1
g125
tp954
a(I2
g125
tp955
a(I3
g93
tp956
a(I0
g95
tp957
a(I1
g125
tp958
a(I2
g93
tp959
a(I3
g93
tp960
a(I0
g123
tp961
a(I1
g125
tp962
a(I2
g93
tp963
a(I3
g93
tp964
a(I0
g123
tp965
a(I1
g95
tp966
a(I2
g93
tp967
a(I3
g123
tp968
a(I0
g125
tp969
a(I1
g95
tp970
a(I2
g93
tp971
a(I3
g123
tp972
a(I0
g93
tp973
a(I1
g123
tp974
a(I2
g93
tp975
a(I3
g93
tp976
a(I0
g95
tp977
a(I1
g95
tp978
a(I2
g123
tp979
a(I3
g93
tp980
a(I0
g93
tp981
a(I1
g123
tp982
a(I2
g123
tp983
a(I3
g93
tp984
a(I0
g125
tp985
a(I1
g93
tp986
a(I2
g93
tp987
a(I3
g125
tp988
a(I0
g125
tp989
a(I1
g125
tp990
a(I2
g93
tp991
a(I3
g125
tp992
a(I0
g95
tp993
a(I1
g125
tp994
a(I2
g93
tp995
a(I3
g125
tp996
a(I0
g123
tp997
a(I1
g95
tp998
a(I2
g125
tp999
a(I3
g125
tp1000
asS'length'
p1001
I1200
sS'agents'
p1002
(lp1003
(igame
Agent
p1004
(dp1005
S'index'
p1006
I0
sba(igame
Agent
p1007
(dp1008
g1006
I0
sba(igame
Agent
p1009
(dp1010
g1006
I0
sba(igame
Agent
p1011
(dp1012
g1006
I0
sbasS'redTeamName'
p1013
S'Red'
p1014
s.