(dp1
S'layout'
p2
(ilayout
Layout
p3
(dp4
S'capsules'
p5
(lp6
sS'numGhosts'
p7
I4
sS'food'
p8
(igame
Grid
p9
(dp10
S'CELLS_PER_INT'
p11
I30
sS'width'
p12
I18
sS'data'
p13
(lp14
(lp15
I00
aI00
aI00
aI00
aI00
aI00
aI00
aI00
aI00
aI00
aI00
aI00
aI00
aI00
aI00
aI00
aI00
aI00
aI00
aI00
aa(lp16
I00
aI00
aI00
aI00
aI00
aI00
aI00
aI00
aI00
aI00
aI00
aI00
aI00
aI00
aI00
aI00
aI00
aI00
aI00
aI00
aa(lp17
I00
aI00
aI00
aI00
aI00
aI00
aI00
aI00
aI00
aI00
aI00
aI00
aI00
aI00
aI00
aI00
aI00
aI00
aI00
aI00
aa(lp18
I00
aI01
aI00
aI01
aI01
aI01
aI01
aI00
aI01
aI00
aI00
aI01
aI00
aI01
aI01
aI01
aI01
aI01
aI00
aI00
aa(lp19
I00
aI01
aI00
aI00
aI01
aI00
aI00
aI00
aI01
aI00
aI00
aI01
aI00
aI00
aI00
aI00
aI01
aI01
aI00
aI00
aa(lp20
I00
aI01
aI00
aI00
aI01
aI00
aI00
aI00
aI00
aI00
aI00
aI00
aI00
aI00
aI00
aI00
aI01
aI01
aI00
aI00
aa(lp21
I00
aI01
aI00
aI00
aI01
aI00
aI00
aI00
aI00
aI00
aI00
aI00
aI01
aI01
aI00
aI00
aI01
aI01
aI00
aI00
aa(lp22
I00
aI00
aI00
aI00
aI01
aI01
aI00
aI00
aI01
aI01
aI01
aI01
aI00
aI00
aI01
aI00
aI01
aI01
aI00
aI00
aa(lp23
I00
aI00
aI00
aI00
aI00
aI00
aI00
aI00
aI00
aI00
aI00
aI00
aI00
aI00
aI00
aI00
aI00
aI00
aI00
aI00
aa(lp24
I00
aI00
aI00
aI00
aI00
aI00
aI00
aI00
aI00
aI00
aI00
aI00
aI00
aI00
aI00
aI00
aI00
aI00
aI00
aI00
aa(lp25
I00
aI00
aI00
aI00
aI01
aI01
aI00
aI00
aI01
aI01
aI01
aI01
aI00
aI00
aI01
aI00
aI01
aI01
aI00
aI00
aa(lp26
I00
aI01
aI00
aI00
aI01
aI00
aI00
aI00
aI00
aI00
aI00
aI00
aI01
aI01
aI00
aI00
aI01
aI01
aI00
aI00
aa(lp27
I00
aI01
aI00
aI00
aI01
aI00
aI00
aI00
aI00
aI00
aI00
aI00
aI00
aI00
aI00
aI00
aI01
aI01
aI00
aI00
aa(lp28
I00
aI01
aI00
aI00
aI01
aI00
aI00
aI00
aI01
aI00
aI00
aI01
aI00
aI00
aI00
aI00
aI01
aI01
aI00
aI00
aa(lp29
I00
aI01
aI00
aI01
aI01
aI01
aI01
aI00
aI01
aI00
aI00
aI01
aI00
aI01
aI01
aI01
aI01
aI01
aI00
aI00
aa(lp30
I00
aI00
aI00
aI00
aI00
aI00
aI00
aI00
aI00
aI00
aI00
aI00
aI00
aI00
aI00
aI00
aI00
aI00
aI00
aI00
aa(lp31
I00
aI00
aI00
aI00
aI00
aI00
aI00
aI00
aI00
aI00
aI00
aI00
aI00
aI00
aI00
aI00
aI00
aI00
aI00
aI00
aa(lp32
I00
aI00
aI00
aI00
aI00
aI00
aI00
aI00
aI00
aI00
aI00
aI00
aI00
aI00
aI00
aI00
aI00
aI00
aI00
aI00
aasS'height'
p33
I20
sbsS'agentPositions'
p34
(lp35
(I00
(I1
I18
tp36
tp37
a(I00
(I16
I18
tp38
tp39
a(I00
(I1
I1
tp40
tp41
a(I00
(I16
I1
tp42
tp43
asg33
I20
sg12
I18
sS'walls'
p44
(igame
Grid
p45
(dp46
g11
I30
sg12
I18
sg13
(lp47
(lp48
I01
aI01
aI01
aI01
aI01
aI01
aI01
aI01
aI01
aI01
aI01
aI01
aI01
aI01
aI01
aI01
aI01
aI01
aI01
aI01
aa(lp49
I01
aI00
aI00
aI00
aI00
aI00
aI00
aI00
aI00
aI01
aI01
aI00
aI00
aI00
aI00
aI00
aI00
aI00
aI00
aI01
aa(lp50
I01
aI01
aI01
aI01
aI01
aI01
aI01
aI01
aI00
aI01
aI01
aI00
aI01
aI01
aI01
aI01
aI01
aI01
aI01
aI01
aa(lp51
I01
aI00
aI00
aI00
aI00
aI00
aI00
aI00
aI00
aI01
aI01
aI00
aI00
aI00
aI00
aI00
aI00
aI00
aI01
aI01
aa(lp52
I01
aI00
aI01
aI01
aI00
aI01
aI01
aI01
aI00
aI00
aI00
aI00
aI01
aI01
aI01
aI01
aI00
aI00
aI01
aI01
aa(lp53
I01
aI00
aI01
aI01
aI00
aI00
aI00
aI00
aI00
aI00
aI00
aI00
aI00
aI00
aI00
aI00
aI00
aI00
aI01
aI01
aa(lp54
I01
aI00
aI00
aI00
aI00
aI01
aI01
aI00
aI01
aI01
aI01
aI01
aI00
aI00
aI00
aI01
aI00
aI00
aI01
aI01
aa(lp55
I01
aI00
aI01
aI01
aI00
aI00
aI01
aI00
aI00
aI00
aI00
aI00
aI00
aI01
aI00
aI01
aI00
aI00
aI01
aI01
aa(lp56
I01
aI00
aI00
aI00
aI00
aI00
aI01
aI00
aI01
aI01
aI01
aI01
aI00
aI01
aI00
aI01
aI00
aI00
aI01
aI01
aa(lp57
I01
aI00
aI00
aI00
aI00
aI00
aI01
aI00
aI01
aI01
aI01
aI01
aI00
aI01
aI00
aI01
aI00
aI00
aI01
aI01
aa(lp58
I01
aI00
aI01
aI01
aI00
aI00
aI01
aI00
aI00
aI00
aI00
aI00
aI00
aI01
aI00
aI01
aI00
aI00
aI01
aI01
aa(lp59
I01
aI00
aI00
aI00
aI00
aI01
aI01
aI00
aI01
aI01
aI01
aI01
aI00
aI00
aI00
aI01
aI00
aI00
aI01
aI01
aa(lp60
I01
aI00
aI01
aI01
aI00
aI00
aI00
aI00
aI00
aI00
aI00
aI00
aI00
aI00
aI00
aI00
aI00
aI00
aI01
aI01
aa(lp61
I01
aI00
aI01
aI01
aI00
aI01
aI01
aI01
aI00
aI00
aI00
aI00
aI01
aI01
aI01
aI01
aI00
aI00
aI01
aI01
aa(lp62
I01
aI00
aI00
aI00
aI00
aI00
aI00
aI00
aI00
aI01
aI01
aI00
aI00
aI00
aI00
aI00
aI00
aI00
aI01
aI01
aa(lp63
I01
aI01
aI01
aI01
aI01
aI01
aI01
aI01
aI00
aI01
aI01
aI00
aI01
aI01
aI01
aI01
aI01
aI01
aI01
aI01
aa(lp64
I01
aI00
aI00
aI00
aI00
aI00
aI00
aI00
aI00
aI01
aI01
aI00
aI00
aI00
aI00
aI00
aI00
aI00
aI00
aI01
aa(lp65
I01
aI01
aI01
aI01
aI01
aI01
aI01
aI01
aI01
aI01
aI01
aI01
aI01
aI01
aI01
aI01
aI01
aI01
aI01
aI01
aasg33
I20
sbsS'totalFood'
p66
I74
sS'layoutText'
p67
(lp68
S'%%%%%%%%%%%%%%%%%%'
p69
aS'%1%%%%%%%%%%%%%%2%'
p70
aS'% %.....  .....% %'
p71
aS'% %.....  .....% %'
p72
aS'% %.% %%%%%% %.% %'
p73
aS'% %.%  .  .  %.% %'
p74
aS'% %.% .%%%%. %.% %'
p75
aS'% % % .    . % % %'
p76
aS'%  .. %.%%.% ..  %'
p77
aS'%%%%  %.%%.%  %%%%'
p78
aS'%%%%  %.%%.%  %%%%'
p79
aS'%  .. %.%%.% ..  %'
p80
aS'% % %        % % %'
p81
aS'% %.% %%%%%% %.% %'
p82
aS'% %.% %.  .% %.% %'
p83
aS'% %.....  .....% %'
p84
aS'% %.%% %  % %%.% %'
p85
aS'% % %% %  % %% % %'
p86
aS'%3%....    ....%4%'
p87
aS'%%%%%%%%%%%%%%%%%%'
p88
asbsS'blueTeamName'
p89
S'Blue'
p90
sS'actions'
p91
(lp92
(I1
S'South'
p93
tp94
a(I2
S'North'
p95
tp96
a(I3
g95
tp97
a(I0
g93
tp98
a(I1
g93
tp99
a(I2
g95
tp100
a(I3
g95
tp101
a(I0
g93
tp102
a(I1
g93
tp103
a(I2
g95
tp104
a(I3
g95
tp105
a(I0
g93
tp106
a(I1
g93
tp107
a(I2
g95
tp108
a(I3
g95
tp109
a(I0
g93
tp110
a(I1
g93
tp111
a(I2
g95
tp112
a(I3
g95
tp113
a(I0
g93
tp114
a(I1
g93
tp115
a(I2
g95
tp116
a(I3
g95
tp117
a(I0
g93
tp118
a(I1
g93
tp119
a(I2
g95
tp120
a(I3
g95
tp121
a(I0
g93
tp122
a(I1
S'West'
p123
tp124
a(I2
S'East'
p125
tp126
a(I3
g123
tp127
a(I0
g125
tp128
a(I1
g123
tp129
a(I2
g125
tp130
a(I3
g123
tp131
a(I0
g125
tp132
a(I1
g123
tp133
a(I2
g125
tp134
a(I3
g123
tp135
a(I0
g125
tp136
a(I1
g123
tp137
a(I2
g95
tp138
a(I3
g123
tp139
a(I0
g125
tp140
a(I1
g93
tp141
a(I2
g125
tp142
a(I3
g93
tp143
a(I0
g95
tp144
a(I1
g93
tp145
a(I2
g95
tp146
a(I3
g123
tp147
a(I0
g125
tp148
a(I1
S'Stop'
p149
tp150
a(I2
g123
tp151
a(I3
g123
tp152
a(I0
g125
tp153
a(I1
g93
tp154
a(I2
g93
tp155
a(I3
g123
tp156
a(I0
g125
tp157
a(I1
g149
tp158
a(I2
g125
tp159
a(I3
g123
tp160
a(I0
g125
tp161
a(I1
g93
tp162
a(I2
g93
tp163
a(I3
g123
tp164
a(I0
g125
tp165
a(I1
g93
tp166
a(I2
g93
tp167
a(I3
g95
tp168
a(I0
g125
tp169
a(I1
g95
tp170
a(I2
g125
tp171
a(I3
g95
tp172
a(I0
g95
tp173
a(I1
g95
tp174
a(I2
g125
tp175
a(I3
g95
tp176
a(I0
g95
tp177
a(I1
g95
tp178
a(I2
g95
tp179
a(I3
g95
tp180
a(I0
g123
tp181
a(I1
g95
tp182
a(I2
g95
tp183
a(I3
g93
tp184
a(I0
g125
tp185
a(I1
g95
tp186
a(I2
g95
tp187
a(I3
g95
tp188
a(I0
g125
tp189
a(I1
g95
tp190
a(I2
g95
tp191
a(I3
g95
tp192
a(I0
g95
tp193
a(I1
g95
tp194
a(I2
g95
tp195
a(I3
g95
tp196
a(I0
g95
tp197
a(I1
g95
tp198
a(I2
g125
tp199
a(I3
g95
tp200
a(I0
g123
tp201
a(I1
g95
tp202
a(I2
g123
tp203
a(I3
g95
tp204
a(I0
g95
tp205
a(I1
g95
tp206
a(I2
g123
tp207
a(I3
g95
tp208
a(I0
g123
tp209
a(I1
g95
tp210
a(I2
g123
tp211
a(I3
g95
tp212
a(I0
g93
tp213
a(I1
g93
tp214
a(I2
g95
tp215
a(I3
g123
tp216
a(I0
g95
tp217
a(I1
g95
tp218
a(I2
g125
tp219
a(I3
g123
tp220
a(I0
g149
tp221
a(I1
g123
tp222
a(I2
g93
tp223
a(I3
g123
tp224
a(I0
g123
tp225
a(I1
g123
tp226
a(I2
g123
tp227
a(I3
g123
tp228
a(I0
g123
tp229
a(I1
g125
tp230
a(I2
g95
tp231
a(I3
g93
tp232
a(I0
g149
tp233
a(I1
g125
tp234
a(I2
g95
tp235
a(I3
g123
tp236
a(I0
g125
tp237
a(I1
g123
tp238
a(I2
g125
tp239
a(I3
g123
tp240
a(I0
g123
tp241
a(I1
g125
tp242
a(I2
g125
tp243
a(I3
g123
tp244
a(I0
g125
tp245
a(I1
g123
tp246
a(I2
g125
tp247
a(I3
g123
tp248
a(I0
g123
tp249
a(I1
g93
tp250
a(I2
g123
tp251
a(I3
g123
tp252
a(I0
g125
tp253
a(I1
g95
tp254
a(I2
g123
tp255
a(I3
g95
tp256
a(I0
g149
tp257
a(I1
g123
tp258
a(I2
g123
tp259
a(I3
g95
tp260
a(I0
g125
tp261
a(I1
g93
tp262
a(I2
g95
tp263
a(I3
g95
tp264
a(I0
g93
tp265
a(I1
g125
tp266
a(I2
g95
tp267
a(I3
g95
tp268
a(I0
g93
tp269
a(I1
g125
tp270
a(I2
g123
tp271
a(I3
g95
tp272
a(I0
g93
tp273
a(I1
g93
tp274
a(I2
g123
tp275
a(I3
g123
tp276
a(I0
g93
tp277
a(I1
g93
tp278
a(I2
g95
tp279
a(I3
g95
tp280
a(I0
g93
tp281
a(I1
g149
tp282
a(I2
g125
tp283
a(I3
g93
tp284
a(I0
g93
tp285
a(I1
g93
tp286
a(I2
g125
tp287
a(I3
g125
tp288
a(I0
g93
tp289
a(I1
g93
tp290
a(I2
g125
tp291
a(I3
g125
tp292
a(I0
g125
tp293
a(I1
g93
tp294
a(I2
g125
tp295
a(I3
g125
tp296
a(I0
g125
tp297
a(I1
g93
tp298
a(I2
g93
tp299
a(I3
g123
tp300
a(I0
g125
tp301
a(I1
g149
tp302
a(I2
g123
tp303
a(I3
g123
tp304
a(I0
g125
tp305
a(I1
g93
tp306
a(I2
g123
tp307
a(I3
g125
tp308
a(I0
g95
tp309
a(I1
g93
tp310
a(I2
g93
tp311
a(I3
g125
tp312
a(I0
g93
tp313
a(I1
g149
tp314
a(I2
g93
tp315
a(I3
g123
tp316
a(I0
g95
tp317
a(I1
g93
tp318
a(I2
g93
tp319
a(I3
g125
tp320
a(I0
g95
tp321
a(I1
g149
tp322
a(I2
g93
tp323
a(I3
g123
tp324
a(I0
g125
tp325
a(I1
g149
tp326
a(I2
g125
tp327
a(I3
g125
tp328
a(I0
g95
tp329
a(I1
g93
tp330
a(I2
g95
tp331
a(I3
g123
tp332
a(I0
g93
tp333
a(I1
g93
tp334
a(I2
g93
tp335
a(I3
g125
tp336
a(I0
g123
tp337
a(I1
g93
tp338
a(I2
g125
tp339
a(I3
g125
tp340
a(I0
g93
tp341
a(I1
g123
tp342
a(I2
g125
tp343
a(I3
g123
tp344
a(I0
g95
tp345
a(I1
g149
tp346
a(I2
g125
tp347
a(I3
g123
tp348
a(I0
g93
tp349
a(I1
g125
tp350
a(I2
g95
tp351
a(I3
g125
tp352
a(I0
g95
tp353
a(I1
g95
tp354
a(I2
g95
tp355
a(I3
g123
tp356
a(I0
g125
tp357
a(I1
g95
tp358
a(I2
g95
tp359
a(I3
g125
tp360
a(I0
g123
tp361
a(I1
g93
tp362
a(I2
g95
tp363
a(I3
g123
tp364
a(I0
g125
tp365
a(I1
g93
tp366
a(I2
g95
tp367
a(I3
g125
tp368
a(I0
g95
tp369
a(I1
g123
tp370
a(I2
g95
tp371
a(I3
g123
tp372
a(I0
g93
tp373
a(I1
g149
tp374
a(I2
g95
tp375
a(I3
g125
tp376
a(I0
g123
tp377
a(I1
g123
tp378
a(I2
g125
tp379
a(I3
g123
tp380
a(I0
g125
tp381
a(I1
g95
tp382
a(I2
g125
tp383
a(I3
g125
tp384
a(I0
g123
tp385
a(I1
g93
tp386
a(I2
g125
tp387
a(I3
g123
tp388
a(I0
g125
tp389
a(I1
g95
tp390
a(I2
g125
tp391
a(I3
g125
tp392
a(I0
g95
tp393
a(I1
g93
tp394
a(I2
g95
tp395
a(I3
g123
tp396
a(I0
g93
tp397
a(I1
g125
tp398
a(I2
g95
tp399
a(I3
g125
tp400
a(I0
g123
tp401
a(I1
g93
tp402
a(I2
g123
tp403
a(I3
g123
tp404
a(I0
g93
tp405
a(I1
g93
tp406
a(I2
g95
tp407
a(I3
g125
tp408
a(I0
g95
tp409
a(I1
g93
tp410
a(I2
g125
tp411
a(I3
g123
tp412
a(I0
g93
tp413
a(I1
g125
tp414
a(I2
g95
tp415
a(I3
g125
tp416
a(I0
g93
tp417
a(I1
g123
tp418
a(I2
g125
tp419
a(I3
g123
tp420
a(I0
g95
tp421
a(I1
g95
tp422
a(I2
g125
tp423
a(I3
g125
tp424
a(I0
g93
tp425
a(I1
g93
tp426
a(I2
g93
tp427
a(I3
g123
tp428
a(I0
g95
tp429
a(I1
g95
tp430
a(I2
g95
tp431
a(I3
g125
tp432
a(I0
g93
tp433
a(I1
g93
tp434
a(I2
g123
tp435
a(I3
g123
tp436
a(I0
g95
tp437
a(I1
g125
tp438
a(I2
g125
tp439
a(I3
g125
tp440
a(I0
g93
tp441
a(I1
g123
tp442
a(I2
g93
tp443
a(I3
g123
tp444
a(I0
g95
tp445
a(I1
g95
tp446
a(I2
g95
tp447
a(I3
g125
tp448
a(I0
g95
tp449
a(I1
g95
tp450
a(I2
g125
tp451
a(I3
g125
tp452
a(I0
g125
tp453
a(I1
g93
tp454
a(I2
g123
tp455
a(I3
g125
tp456
a(I0
g93
tp457
a(I1
g93
tp458
a(I2
g93
tp459
a(I3
g123
tp460
a(I0
g149
tp461
a(I1
g95
tp462
a(I2
g93
tp463
a(I3
g125
tp464
a(I0
g125
tp465
a(I1
g93
tp466
a(I2
g93
tp467
a(I3
g123
tp468
a(I0
g125
tp469
a(I1
g95
tp470
a(I2
g93
tp471
a(I3
g123
tp472
a(I0
g125
tp473
a(I1
g95
tp474
a(I2
g93
tp475
a(I3
g123
tp476
a(I0
g93
tp477
a(I1
g93
tp478
a(I2
g123
tp479
a(I3
g123
tp480
a(I0
g93
tp481
a(I1
g93
tp482
a(I2
g123
tp483
a(I3
g123
tp484
a(I0
g93
tp485
a(I1
g95
tp486
a(I2
g93
tp487
a(I3
g123
tp488
a(I0
g93
tp489
a(I1
g93
tp490
a(I2
g93
tp491
a(I3
g93
tp492
a(I0
g93
tp493
a(I1
g95
tp494
a(I2
g93
tp495
a(I3
g123
tp496
a(I0
g93
tp497
a(I1
g95
tp498
a(I2
g95
tp499
a(I3
g123
tp500
a(I0
g93
tp501
a(I1
g95
tp502
a(I2
g95
tp503
a(I3
g95
tp504
a(I0
g125
tp505
a(I1
g93
tp506
a(I2
g95
tp507
a(I3
g95
tp508
a(I0
g125
tp509
a(I1
g95
tp510
a(I2
g95
tp511
a(I3
g95
tp512
a(I0
g125
tp513
a(I1
g123
tp514
a(I2
g123
tp515
a(I3
g93
tp516
a(I0
g125
tp517
a(I1
g125
tp518
a(I2
g95
tp519
a(I3
g93
tp520
a(I0
g95
tp521
a(I1
g93
tp522
a(I2
g95
tp523
a(I3
g93
tp524
a(I0
g125
tp525
a(I1
g95
tp526
a(I2
g95
tp527
a(I3
g125
tp528
a(I0
g125
tp529
a(I1
g93
tp530
a(I2
g125
tp531
a(I3
g95
tp532
a(I0
g125
tp533
a(I1
g93
tp534
a(I2
g93
tp535
a(I3
g95
tp536
a(I0
g125
tp537
a(I1
g93
tp538
a(I2
g93
tp539
a(I3
g95
tp540
a(I0
g125
tp541
a(I1
g95
tp542
a(I2
g93
tp543
a(I3
g95
tp544
a(I0
g93
tp545
a(I1
g95
tp546
a(I2
g93
tp547
a(I3
g95
tp548
a(I0
g93
tp549
a(I1
g95
tp550
a(I2
g125
tp551
a(I3
g95
tp552
a(I0
g93
tp553
a(I1
g125
tp554
a(I2
g125
tp555
a(I3
g95
tp556
a(I0
g93
tp557
a(I1
g95
tp558
a(I2
g95
tp559
a(I3
g123
tp560
a(I0
g93
tp561
a(I1
g95
tp562
a(I2
g95
tp563
a(I3
g123
tp564
a(I0
g125
tp565
a(I1
g95
tp566
a(I2
g95
tp567
a(I3
g123
tp568
a(I0
g123
tp569
a(I1
g123
tp570
a(I2
g95
tp571
a(I3
g123
tp572
a(I0
g95
tp573
a(I1
g123
tp574
a(I2
g95
tp575
a(I3
g93
tp576
a(I0
g95
tp577
a(I1
g95
tp578
a(I2
g125
tp579
a(I3
g123
tp580
a(I0
g95
tp581
a(I1
g95
tp582
a(I2
g123
tp583
a(I3
g123
tp584
a(I0
g95
tp585
a(I1
g95
tp586
a(I2
g123
tp587
a(I3
g123
tp588
a(I0
g95
tp589
a(I1
g95
tp590
a(I2
g95
tp591
a(I3
g123
tp592
a(I0
g125
tp593
a(I1
g95
tp594
a(I2
g95
tp595
a(I3
g123
tp596
a(I0
g125
tp597
a(I1
g125
tp598
a(I2
g125
tp599
a(I3
g123
tp600
a(I0
g93
tp601
a(I1
g125
tp602
a(I2
g125
tp603
a(I3
g123
tp604
a(I0
g125
tp605
a(I1
g93
tp606
a(I2
g123
tp607
a(I3
g95
tp608
a(I0
g125
tp609
a(I1
g125
tp610
a(I2
g123
tp611
a(I3
g95
tp612
a(I0
g95
tp613
a(I1
g125
tp614
a(I2
g123
tp615
a(I3
g95
tp616
a(I0
g95
tp617
a(I1
g95
tp618
a(I2
g93
tp619
a(I3
g123
tp620
a(I0
g95
tp621
a(I1
g95
tp622
a(I2
g93
tp623
a(I3
g125
tp624
a(I0
g95
tp625
a(I1
g95
tp626
a(I2
g93
tp627
a(I3
g95
tp628
a(I0
g95
tp629
a(I1
g95
tp630
a(I2
g123
tp631
a(I3
g95
tp632
a(I0
g95
tp633
a(I1
g95
tp634
a(I2
g93
tp635
a(I3
g95
tp636
a(I0
g123
tp637
a(I1
g95
tp638
a(I2
g125
tp639
a(I3
g95
tp640
a(I0
g123
tp641
a(I1
g123
tp642
a(I2
g95
tp643
a(I3
g95
tp644
a(I0
g93
tp645
a(I1
g93
tp646
a(I2
g123
tp647
a(I3
g95
tp648
a(I0
g93
tp649
a(I1
g123
tp650
a(I2
g123
tp651
a(I3
g95
tp652
a(I0
g93
tp653
a(I1
g93
tp654
a(I2
g95
tp655
a(I3
g95
tp656
a(I0
g93
tp657
a(I1
g93
tp658
a(I2
g95
tp659
a(I3
g123
tp660
a(I0
g93
tp661
a(I1
g93
tp662
a(I2
g95
tp663
a(I3
g123
tp664
a(I0
g93
tp665
a(I1
g93
tp666
a(I2
g95
tp667
a(I3
g123
tp668
a(I0
g125
tp669
a(I1
g93
tp670
a(I2
g95
tp671
a(I3
g95
tp672
a(I0
g125
tp673
a(I1
g125
tp674
a(I2
g95
tp675
a(I3
g95
tp676
a(I0
g95
tp677
a(I1
g125
tp678
a(I2
g125
tp679
a(I3
g123
tp680
a(I0
g95
tp681
a(I1
g95
tp682
a(I2
g93
tp683
a(I3
g95
tp684
a(I0
g95
tp685
a(I1
g95
tp686
a(I2
g123
tp687
a(I3
g95
tp688
a(I0
g95
tp689
a(I1
g95
tp690
a(I2
g93
tp691
a(I3
g123
tp692
a(I0
g95
tp693
a(I1
g95
tp694
a(I2
g93
tp695
a(I3
g95
tp696
a(I0
g123
tp697
a(I1
g95
tp698
a(I2
g93
tp699
a(I3
g95
tp700
a(I0
g95
tp701
a(I1
g95
tp702
a(I2
g93
tp703
a(I3
g123
tp704
a(I0
g123
tp705
a(I1
g123
tp706
a(I2
g93
tp707
a(I3
g123
tp708
a(I0
g93
tp709
a(I1
g93
tp710
a(I2
g123
tp711
a(I3
g123
tp712
a(I0
g93
tp713
a(I1
g123
tp714
a(I2
g125
tp715
a(I3
g123
tp716
a(I0
g93
tp717
a(I1
g93
tp718
a(I2
g125
tp719
a(I3
g123
tp720
a(I0
g93
tp721
a(I1
g93
tp722
a(I2
g125
tp723
a(I3
g125
tp724
a(I0
g93
tp725
a(I1
g93
tp726
a(I2
g95
tp727
a(I3
g125
tp728
a(I0
g93
tp729
a(I1
g93
tp730
a(I2
g95
tp731
a(I3
g125
tp732
a(I0
g125
tp733
a(I1
g93
tp734
a(I2
g125
tp735
a(I3
g123
tp736
a(I0
g93
tp737
a(I1
g93
tp738
a(I2
g95
tp739
a(I3
g125
tp740
a(I0
g93
tp741
a(I1
g93
tp742
a(I2
g123
tp743
a(I3
g123
tp744
a(I0
g93
tp745
a(I1
g93
tp746
a(I2
g125
tp747
a(I3
g125
tp748
a(I0
g125
tp749
a(I1
g125
tp750
a(I2
g125
tp751
a(I3
g125
tp752
a(I0
g93
tp753
a(I1
g125
tp754
a(I2
g125
tp755
a(I3
g123
tp756
a(I0
g93
tp757
a(I1
g93
tp758
a(I2
g125
tp759
a(I3
g123
tp760
a(I0
g93
tp761
a(I1
g93
tp762
a(I2
g95
tp763
a(I3
g123
tp764
a(I0
g93
tp765
a(I1
g93
tp766
a(I2
g95
tp767
a(I3
g123
tp768
a(I0
g123
tp769
a(I1
g93
tp770
a(I2
g95
tp771
a(I3
g123
tp772
a(I0
g123
tp773
a(I1
g123
tp774
a(I2
g95
tp775
a(I3
g95
tp776
a(I0
g123
tp777
a(I1
g123
tp778
a(I2
g95
tp779
a(I3
g95
tp780
a(I0
g123
tp781
a(I1
g123
tp782
a(I2
g95
tp783
a(I3
g123
tp784
a(I0
g95
tp785
a(I1
g123
tp786
a(I2
g95
tp787
a(I3
g123
tp788
a(I0
g123
tp789
a(I1
g95
tp790
a(I2
g125
tp791
a(I3
g95
tp792
a(I0
g123
tp793
a(I1
g93
tp794
a(I2
g125
tp795
a(I3
g125
tp796
a(I0
g123
tp797
a(I1
g125
tp798
a(I2
g125
tp799
a(I3
g125
tp800
a(I0
g149
tp801
a(I1
g149
tp802
a(I2
g95
tp803
a(I3
g125
tp804
a(I0
g149
tp805
a(I1
g93
tp806
a(I2
g95
tp807
a(I3
g125
tp808
a(I0
g125
tp809
a(I1
g93
tp810
a(I2
g95
tp811
a(I3
g125
tp812
a(I0
g93
tp813
a(I1
g95
tp814
a(I2
g125
tp815
a(I3
g125
tp816
a(I0
g93
tp817
a(I1
g95
tp818
a(I2
g95
tp819
a(I3
g123
tp820
a(I0
g93
tp821
a(I1
g123
tp822
a(I2
g125
tp823
a(I3
g123
tp824
a(I0
g93
tp825
a(I1
g95
tp826
a(I2
g125
tp827
a(I3
g93
tp828
a(I0
g125
tp829
a(I1
g93
tp830
a(I2
g123
tp831
a(I3
g123
tp832
a(I0
g125
tp833
a(I1
g125
tp834
a(I2
g123
tp835
a(I3
g123
tp836
a(I0
g125
tp837
a(I1
g93
tp838
a(I2
g95
tp839
a(I3
g123
tp840
a(I0
g125
tp841
a(I1
g93
tp842
a(I2
g95
tp843
a(I3
g123
tp844
a(I0
g125
tp845
a(I1
g93
tp846
a(I2
g93
tp847
a(I3
g93
tp848
a(I0
g123
tp849
a(I1
g125
tp850
a(I2
g95
tp851
a(I3
g93
tp852
a(I0
g93
tp853
a(I1
g123
tp854
a(I2
g95
tp855
a(I3
g93
tp856
a(I0
g93
tp857
a(I1
g125
tp858
a(I2
g95
tp859
a(I3
g93
tp860
a(I0
g93
tp861
a(I1
g149
tp862
a(I2
g123
tp863
a(I3
g93
tp864
a(I0
g93
tp865
a(I1
g149
tp866
a(I2
g123
tp867
a(I3
g125
tp868
a(I0
g93
tp869
a(I1
g123
tp870
a(I2
g93
tp871
a(I3
g125
tp872
a(I0
g93
tp873
a(I1
g125
tp874
a(I2
g93
tp875
a(I3
g95
tp876
a(I0
g93
tp877
a(I1
g123
tp878
a(I2
g93
tp879
a(I3
g125
tp880
a(I0
g125
tp881
a(I1
g125
tp882
a(I2
g93
tp883
a(I3
g125
tp884
a(I0
g125
tp885
a(I1
g123
tp886
a(I2
g93
tp887
a(I3
g125
tp888
a(I0
g125
tp889
a(I1
g95
tp890
a(I2
g125
tp891
a(I3
g125
tp892
a(I0
g125
tp893
a(I1
g93
tp894
a(I2
g125
tp895
a(I3
g123
tp896
a(I0
g93
tp897
a(I1
g95
tp898
a(I2
g95
tp899
a(I3
g125
tp900
a(I0
g93
tp901
a(I1
g93
tp902
a(I2
g125
tp903
a(I3
g123
tp904
a(I0
g93
tp905
a(I1
g125
tp906
a(I2
g125
tp907
a(I3
g125
tp908
a(I0
g93
tp909
a(I1
g125
tp910
a(I2
g93
tp911
a(I3
g123
tp912
a(I0
g93
tp913
a(I1
g149
tp914
a(I2
g95
tp915
a(I3
g125
tp916
a(I0
g93
tp917
a(I1
g123
tp918
a(I2
g125
tp919
a(I3
g125
tp920
a(I0
g93
tp921
a(I1
g123
tp922
a(I2
g123
tp923
a(I3
g123
tp924
a(I0
g125
tp925
a(I1
g125
tp926
a(I2
g93
tp927
a(I3
g123
tp928
a(I0
g125
tp929
a(I1
g123
tp930
a(I2
g95
tp931
a(I3
g125
tp932
a(I0
g125
tp933
a(I1
g149
tp934
a(I2
g123
tp935
a(I3
g123
tp936
a(I0
g125
tp937
a(I1
g95
tp938
a(I2
g125
tp939
a(I3
g125
tp940
a(I0
g125
tp941
a(I1
g95
tp942
a(I2
g93
tp943
a(I3
g123
tp944
a(I0
g149
tp945
a(I1
g95
tp946
a(I2
g95
tp947
a(I3
g125
tp948
a(I0
g123
tp949
a(I1
g123
tp950
a(I2
g123
tp951
a(I3
g123
tp952
a(I0
g125
tp953
a(I1
g125
tp954
a(I2
g125
tp955
a(I3
g125
tp956
a(I0
g149
tp957
a(I1
g123
tp958
a(I2
g125
tp959
a(I3
g125
tp960
a(I0
g149
tp961
a(I1
g95
tp962
a(I2
g123
tp963
a(I3
g123
tp964
a(I0
g149
tp965
a(I1
g93
tp966
a(I2
g93
tp967
a(I3
g123
tp968
a(I0
g93
tp969
a(I1
g125
tp970
a(I2
g95
tp971
a(I3
g125
tp972
a(I0
g95
tp973
a(I1
g93
tp974
a(I2
g125
tp975
a(I3
g125
tp976
a(I0
g149
tp977
a(I1
g93
tp978
a(I2
g123
tp979
a(I3
g123
tp980
a(I0
g149
tp981
a(I1
g93
tp982
a(I2
g93
tp983
a(I3
g123
tp984
a(I0
g93
tp985
a(I1
g149
tp986
a(I2
g95
tp987
a(I3
g125
tp988
a(I0
g95
tp989
a(I1
g125
tp990
a(I2
g123
tp991
a(I3
g123
tp992
a(I0
g93
tp993
a(I1
g123
tp994
a(I2
g125
tp995
a(I3
g125
tp996
a(I0
g95
tp997
a(I1
g95
tp998
a(I2
g93
tp999
a(I3
g123
tp1000
a(I0
g93
tp1001
a(I1
g93
tp1002
a(I2
g95
tp1003
a(I3
g125
tp1004
a(I0
g95
tp1005
a(I1
g95
tp1006
a(I2
g125
tp1007
a(I3
g125
tp1008
a(I0
g149
tp1009
a(I1
g93
tp1010
a(I2
g123
tp1011
a(I3
g123
tp1012
a(I0
g149
tp1013
a(I1
g125
tp1014
a(I2
g93
tp1015
a(I3
g123
tp1016
a(I0
g93
tp1017
a(I1
g149
tp1018
a(I2
g95
tp1019
a(I3
g125
tp1020
a(I0
g95
tp1021
a(I1
g125
tp1022
a(I2
g125
tp1023
a(I3
g125
tp1024
a(I0
g149
tp1025
a(I1
g123
tp1026
a(I2
g123
tp1027
a(I3
g123
tp1028
a(I0
g149
tp1029
a(I1
g123
tp1030
a(I2
g123
tp1031
a(I3
g123
tp1032
a(I0
g93
tp1033
a(I1
g125
tp1034
a(I2
g125
tp1035
a(I3
g125
tp1036
a(I0
g95
tp1037
a(I1
g123
tp1038
a(I2
g125
tp1039
a(I3
g125
tp1040
a(I0
g149
tp1041
a(I1
g95
tp1042
a(I2
g123
tp1043
a(I3
g123
tp1044
a(I0
g149
tp1045
a(I1
g93
tp1046
a(I2
g93
tp1047
a(I3
g123
tp1048
a(I0
g93
tp1049
a(I1
g125
tp1050
a(I2
g95
tp1051
a(I3
g125
tp1052
a(I0
g95
tp1053
a(I1
g125
tp1054
a(I2
g125
tp1055
a(I3
g125
tp1056
a(I0
g149
tp1057
a(I1
g149
tp1058
a(I2
g123
tp1059
a(I3
g123
tp1060
a(I0
g149
tp1061
a(I1
g123
tp1062
a(I2
g93
tp1063
a(I3
g123
tp1064
a(I0
g93
tp1065
a(I1
g149
tp1066
a(I2
g95
tp1067
a(I3
g125
tp1068
a(I0
g95
tp1069
a(I1
g123
tp1070
a(I2
g123
tp1071
a(I3
g123
tp1072
a(I0
g93
tp1073
a(I1
g125
tp1074
a(I2
g125
tp1075
a(I3
g125
tp1076
a(I0
g95
tp1077
a(I1
g149
tp1078
a(I2
g125
tp1079
a(I3
g125
tp1080
a(I0
g149
tp1081
a(I1
g149
tp1082
a(I2
g123
tp1083
a(I3
g123
tp1084
a(I0
g149
tp1085
a(I1
g149
tp1086
a(I2
g93
tp1087
a(I3
g123
tp1088
a(I0
g93
tp1089
a(I1
g149
tp1090
a(I2
g95
tp1091
a(I3
g125
tp1092
a(I0
g95
tp1093
a(I1
g125
tp1094
a(I2
g125
tp1095
a(I3
g125
tp1096
a(I0
g149
tp1097
a(I1
g149
tp1098
a(I2
g123
tp1099
a(I3
g123
tp1100
a(I0
g149
tp1101
a(I1
g149
tp1102
a(I2
g93
tp1103
a(I3
g123
tp1104
a(I0
g93
tp1105
a(I1
g123
tp1106
a(I2
g95
tp1107
a(I3
g125
tp1108
a(I0
g95
tp1109
a(I1
g123
tp1110
a(I2
g123
tp1111
a(I3
g123
tp1112
a(I0
g93
tp1113
a(I1
g95
tp1114
a(I2
g125
tp1115
a(I3
g125
tp1116
a(I0
g95
tp1117
a(I1
g93
tp1118
a(I2
g125
tp1119
a(I3
g125
tp1120
a(I0
g149
tp1121
a(I1
g95
tp1122
a(I2
g123
tp1123
a(I3
g123
tp1124
a(I0
g149
tp1125
a(I1
g93
tp1126
a(I2
g93
tp1127
a(I3
g123
tp1128
a(I0
g93
tp1129
a(I1
g149
tp1130
a(I2
g95
tp1131
a(I3
g125
tp1132
a(I0
g95
tp1133
a(I1
g95
tp1134
a(I2
g123
tp1135
a(I3
g123
tp1136
a(I0
g93
tp1137
a(I1
g93
tp1138
a(I2
g125
tp1139
a(I3
g125
tp1140
a(I0
g95
tp1141
a(I1
g125
tp1142
a(I2
g93
tp1143
a(I3
g123
tp1144
a(I0
g93
tp1145
a(I1
g149
tp1146
a(I2
g95
tp1147
a(I3
g125
tp1148
a(I0
g95
tp1149
a(I1
g125
tp1150
a(I2
g123
tp1151
a(I3
g123
tp1152
a(I0
g93
tp1153
a(I1
g123
tp1154
a(I2
g125
tp1155
a(I3
g125
tp1156
a(I0
g95
tp1157
a(I1
g123
tp1158
a(I2
g93
tp1159
a(I3
g123
tp1160
a(I0
g93
tp1161
a(I1
g125
tp1162
a(I2
g95
tp1163
a(I3
g125
tp1164
a(I0
g95
tp1165
a(I1
g123
tp1166
a(I2
g125
tp1167
a(I3
g125
tp1168
a(I0
g149
tp1169
a(I1
g95
tp1170
a(I2
g123
tp1171
a(I3
g123
tp1172
a(I0
g149
tp1173
a(I1
g93
tp1174
a(I2
g123
tp1175
a(I3
g123
tp1176
a(I0
g93
tp1177
a(I1
g125
tp1178
a(I2
g125
tp1179
a(I3
g125
tp1180
a(I0
g95
tp1181
a(I1
g125
tp1182
a(I2
g93
tp1183
a(I3
g123
tp1184
a(I0
g93
tp1185
a(I1
g123
tp1186
a(I2
g95
tp1187
a(I3
g125
tp1188
a(I0
g95
tp1189
a(I1
g125
tp1190
a(I2
g123
tp1191
a(I3
g123
tp1192
a(I0
g93
tp1193
a(I1
g123
tp1194
a(I2
g125
tp1195
a(I3
g125
tp1196
a(I0
g95
tp1197
a(I1
g123
tp1198
a(I2
g93
tp1199
a(I3
g123
tp1200
a(I0
g93
tp1201
a(I1
g95
tp1202
a(I2
g95
tp1203
a(I3
g125
tp1204
a(I0
g95
tp1205
a(I1
g93
tp1206
a(I2
g125
tp1207
a(I3
g125
tp1208
a(I0
g149
tp1209
a(I1
g149
tp1210
a(I2
g123
tp1211
a(I3
g123
tp1212
a(I0
g149
tp1213
a(I1
g125
tp1214
a(I2
g123
tp1215
a(I3
g123
tp1216
a(I0
g93
tp1217
a(I1
g125
tp1218
a(I2
g125
tp1219
a(I3
g125
tp1220
a(I0
g95
tp1221
a(I1
g123
tp1222
a(I2
g125
tp1223
a(I3
g125
tp1224
a(I0
g149
tp1225
a(I1
g123
tp1226
a(I2
g123
tp1227
a(I3
g123
tp1228
a(I0
g149
tp1229
a(I1
g125
tp1230
a(I2
g123
tp1231
a(I3
g123
tp1232
a(I0
g93
tp1233
a(I1
g123
tp1234
a(I2
g125
tp1235
a(I3
g125
tp1236
a(I0
g95
tp1237
a(I1
g95
tp1238
a(I2
g93
tp1239
a(I3
g123
tp1240
a(I0
g93
tp1241
a(I1
g93
tp1242
a(I2
g95
tp1243
a(I3
g125
tp1244
a(I0
g95
tp1245
a(I1
g125
tp1246
a(I2
g125
tp1247
a(I3
g125
tp1248
a(I0
g149
tp1249
a(I1
g125
tp1250
a(I2
g123
tp1251
a(I3
g123
tp1252
a(I0
g149
tp1253
a(I1
g149
tp1254
a(I2
g123
tp1255
a(I3
g123
tp1256
a(I0
g93
tp1257
a(I1
g123
tp1258
a(I2
g125
tp1259
a(I3
g125
tp1260
a(I0
g95
tp1261
a(I1
g123
tp1262
a(I2
g125
tp1263
a(I3
g125
tp1264
a(I0
g149
tp1265
a(I1
g149
tp1266
a(I2
g123
tp1267
a(I3
g123
tp1268
a(I0
g149
tp1269
a(I1
g125
tp1270
a(I2
g93
tp1271
a(I3
g123
tp1272
a(I0
g93
tp1273
a(I1
g123
tp1274
a(I2
g95
tp1275
a(I3
g125
tp1276
a(I0
g95
tp1277
a(I1
g95
tp1278
a(I2
g125
tp1279
a(I3
g125
tp1280
a(I0
g149
tp1281
a(I1
g95
tp1282
a(I2
g123
tp1283
a(I3
g123
tp1284
a(I0
g149
tp1285
a(I1
g93
tp1286
a(I2
g93
tp1287
a(I3
g123
tp1288
a(I0
g93
tp1289
a(I1
g95
tp1290
a(I2
g95
tp1291
a(I3
g125
tp1292
a(I0
g95
tp1293
a(I1
g93
tp1294
a(I2
g125
tp1295
a(I3
g125
tp1296
a(I0
g149
tp1297
asS'length'
p1298
I1200
sS'agents'
p1299
(lp1300
(igame
Agent
p1301
(dp1302
S'index'
p1303
I0
sba(igame
Agent
p1304
(dp1305
g1303
I0
sba(igame
Agent
p1306
(dp1307
g1303
I0
sba(igame
Agent
p1308
(dp1309
g1303
I0
sbasS'redTeamName'
p1310
S'Red'
p1311
s.