(dp1
S'layout'
p2
(ilayout
Layout
p3
(dp4
S'capsules'
p5
(lp6
sS'numGhosts'
p7
I4
sS'food'
p8
(igame
Grid
p9
(dp10
S'CELLS_PER_INT'
p11
I30
sS'width'
p12
I18
sS'data'
p13
(lp14
(lp15
I00
aI00
aI00
aI00
aI00
aI00
aI00
aI00
aI00
aI00
aI00
aI00
aI00
aI00
aI00
aI00
aI00
aI00
aI00
aI00
aa(lp16
I00
aI00
aI00
aI00
aI00
aI00
aI00
aI00
aI00
aI00
aI00
aI00
aI00
aI00
aI00
aI00
aI00
aI00
aI00
aI00
aa(lp17
I00
aI00
aI00
aI00
aI00
aI00
aI00
aI00
aI00
aI00
aI00
aI00
aI00
aI00
aI00
aI00
aI00
aI00
aI00
aI00
aa(lp18
I00
aI01
aI00
aI01
aI01
aI01
aI01
aI00
aI01
aI00
aI00
aI01
aI00
aI01
aI01
aI01
aI01
aI01
aI00
aI00
aa(lp19
I00
aI01
aI00
aI00
aI01
aI00
aI00
aI00
aI01
aI00
aI00
aI01
aI00
aI00
aI00
aI00
aI01
aI01
aI00
aI00
aa(lp20
I00
aI01
aI00
aI00
aI01
aI00
aI00
aI00
aI00
aI00
aI00
aI00
aI00
aI00
aI00
aI00
aI01
aI01
aI00
aI00
aa(lp21
I00
aI01
aI00
aI00
aI01
aI00
aI00
aI00
aI00
aI00
aI00
aI00
aI01
aI01
aI00
aI00
aI01
aI01
aI00
aI00
aa(lp22
I00
aI00
aI00
aI00
aI01
aI01
aI00
aI00
aI01
aI01
aI01
aI01
aI00
aI00
aI01
aI00
aI01
aI01
aI00
aI00
aa(lp23
I00
aI00
aI00
aI00
aI00
aI00
aI00
aI00
aI00
aI00
aI00
aI00
aI00
aI00
aI00
aI00
aI00
aI00
aI00
aI00
aa(lp24
I00
aI00
aI00
aI00
aI00
aI00
aI00
aI00
aI00
aI00
aI00
aI00
aI00
aI00
aI00
aI00
aI00
aI00
aI00
aI00
aa(lp25
I00
aI00
aI00
aI00
aI01
aI01
aI00
aI00
aI01
aI01
aI01
aI01
aI00
aI00
aI01
aI00
aI01
aI01
aI00
aI00
aa(lp26
I00
aI01
aI00
aI00
aI01
aI00
aI00
aI00
aI00
aI00
aI00
aI00
aI01
aI01
aI00
aI00
aI01
aI01
aI00
aI00
aa(lp27
I00
aI01
aI00
aI00
aI01
aI00
aI00
aI00
aI00
aI00
aI00
aI00
aI00
aI00
aI00
aI00
aI01
aI01
aI00
aI00
aa(lp28
I00
aI01
aI00
aI00
aI01
aI00
aI00
aI00
aI01
aI00
aI00
aI01
aI00
aI00
aI00
aI00
aI01
aI01
aI00
aI00
aa(lp29
I00
aI01
aI00
aI01
aI01
aI01
aI01
aI00
aI01
aI00
aI00
aI01
aI00
aI01
aI01
aI01
aI01
aI01
aI00
aI00
aa(lp30
I00
aI00
aI00
aI00
aI00
aI00
aI00
aI00
aI00
aI00
aI00
aI00
aI00
aI00
aI00
aI00
aI00
aI00
aI00
aI00
aa(lp31
I00
aI00
aI00
aI00
aI00
aI00
aI00
aI00
aI00
aI00
aI00
aI00
aI00
aI00
aI00
aI00
aI00
aI00
aI00
aI00
aa(lp32
I00
aI00
aI00
aI00
aI00
aI00
aI00
aI00
aI00
aI00
aI00
aI00
aI00
aI00
aI00
aI00
aI00
aI00
aI00
aI00
aasS'height'
p33
I20
sbsS'agentPositions'
p34
(lp35
(I00
(I1
I18
tp36
tp37
a(I00
(I16
I18
tp38
tp39
a(I00
(I1
I1
tp40
tp41
a(I00
(I16
I1
tp42
tp43
asg33
I20
sg12
I18
sS'walls'
p44
(igame
Grid
p45
(dp46
g11
I30
sg12
I18
sg13
(lp47
(lp48
I01
aI01
aI01
aI01
aI01
aI01
aI01
aI01
aI01
aI01
aI01
aI01
aI01
aI01
aI01
aI01
aI01
aI01
aI01
aI01
aa(lp49
I01
aI00
aI00
aI00
aI00
aI00
aI00
aI00
aI00
aI01
aI01
aI00
aI00
aI00
aI00
aI00
aI00
aI00
aI00
aI01
aa(lp50
I01
aI01
aI01
aI01
aI01
aI01
aI01
aI01
aI00
aI01
aI01
aI00
aI01
aI01
aI01
aI01
aI01
aI01
aI01
aI01
aa(lp51
I01
aI00
aI00
aI00
aI00
aI00
aI00
aI00
aI00
aI01
aI01
aI00
aI00
aI00
aI00
aI00
aI00
aI00
aI01
aI01
aa(lp52
I01
aI00
aI01
aI01
aI00
aI01
aI01
aI01
aI00
aI00
aI00
aI00
aI01
aI01
aI01
aI01
aI00
aI00
aI01
aI01
aa(lp53
I01
aI00
aI01
aI01
aI00
aI00
aI00
aI00
aI00
aI00
aI00
aI00
aI00
aI00
aI00
aI00
aI00
aI00
aI01
aI01
aa(lp54
I01
aI00
aI00
aI00
aI00
aI01
aI01
aI00
aI01
aI01
aI01
aI01
aI00
aI00
aI00
aI01
aI00
aI00
aI01
aI01
aa(lp55
I01
aI00
aI01
aI01
aI00
aI00
aI01
aI00
aI00
aI00
aI00
aI00
aI00
aI01
aI00
aI01
aI00
aI00
aI01
aI01
aa(lp56
I01
aI00
aI00
aI00
aI00
aI00
aI01
aI00
aI01
aI01
aI01
aI01
aI00
aI01
aI00
aI01
aI00
aI00
aI01
aI01
aa(lp57
I01
aI00
aI00
aI00
aI00
aI00
aI01
aI00
aI01
aI01
aI01
aI01
aI00
aI01
aI00
aI01
aI00
aI00
aI01
aI01
aa(lp58
I01
aI00
aI01
aI01
aI00
aI00
aI01
aI00
aI00
aI00
aI00
aI00
aI00
aI01
aI00
aI01
aI00
aI00
aI01
aI01
aa(lp59
I01
aI00
aI00
aI00
aI00
aI01
aI01
aI00
aI01
aI01
aI01
aI01
aI00
aI00
aI00
aI01
aI00
aI00
aI01
aI01
aa(lp60
I01
aI00
aI01
aI01
aI00
aI00
aI00
aI00
aI00
aI00
aI00
aI00
aI00
aI00
aI00
aI00
aI00
aI00
aI01
aI01
aa(lp61
I01
aI00
aI01
aI01
aI00
aI01
aI01
aI01
aI00
aI00
aI00
aI00
aI01
aI01
aI01
aI01
aI00
aI00
aI01
aI01
aa(lp62
I01
aI00
aI00
aI00
aI00
aI00
aI00
aI00
aI00
aI01
aI01
aI00
aI00
aI00
aI00
aI00
aI00
aI00
aI01
aI01
aa(lp63
I01
aI01
aI01
aI01
aI01
aI01
aI01
aI01
aI00
aI01
aI01
aI00
aI01
aI01
aI01
aI01
aI01
aI01
aI01
aI01
aa(lp64
I01
aI00
aI00
aI00
aI00
aI00
aI00
aI00
aI00
aI01
aI01
aI00
aI00
aI00
aI00
aI00
aI00
aI00
aI00
aI01
aa(lp65
I01
aI01
aI01
aI01
aI01
aI01
aI01
aI01
aI01
aI01
aI01
aI01
aI01
aI01
aI01
aI01
aI01
aI01
aI01
aI01
aasg33
I20
sbsS'totalFood'
p66
I74
sS'layoutText'
p67
(lp68
S'%%%%%%%%%%%%%%%%%%'
p69
aS'%1%%%%%%%%%%%%%%2%'
p70
aS'% %.....  .....% %'
p71
aS'% %.....  .....% %'
p72
aS'% %.% %%%%%% %.% %'
p73
aS'% %.%  .  .  %.% %'
p74
aS'% %.% .%%%%. %.% %'
p75
aS'% % % .    . % % %'
p76
aS'%  .. %.%%.% ..  %'
p77
aS'%%%%  %.%%.%  %%%%'
p78
aS'%%%%  %.%%.%  %%%%'
p79
aS'%  .. %.%%.% ..  %'
p80
aS'% % %        % % %'
p81
aS'% %.% %%%%%% %.% %'
p82
aS'% %.% %.  .% %.% %'
p83
aS'% %.....  .....% %'
p84
aS'% %.%% %  % %%.% %'
p85
aS'% % %% %  % %% % %'
p86
aS'%3%....    ....%4%'
p87
aS'%%%%%%%%%%%%%%%%%%'
p88
asbsS'blueTeamName'
p89
S'Blue'
p90
sS'actions'
p91
(lp92
(I1
S'South'
p93
tp94
a(I2
S'North'
p95
tp96
a(I3
g95
tp97
a(I0
g93
tp98
a(I1
g93
tp99
a(I2
g95
tp100
a(I3
g95
tp101
a(I0
g93
tp102
a(I1
g93
tp103
a(I2
g95
tp104
a(I3
g95
tp105
a(I0
g93
tp106
a(I1
g93
tp107
a(I2
g95
tp108
a(I3
g95
tp109
a(I0
g93
tp110
a(I1
g93
tp111
a(I2
g95
tp112
a(I3
g95
tp113
a(I0
g93
tp114
a(I1
g93
tp115
a(I2
g95
tp116
a(I3
g95
tp117
a(I0
g93
tp118
a(I1
g93
tp119
a(I2
g95
tp120
a(I3
g95
tp121
a(I0
g93
tp122
a(I1
S'West'
p123
tp124
a(I2
S'East'
p125
tp126
a(I3
g123
tp127
a(I0
g125
tp128
a(I1
g123
tp129
a(I2
g125
tp130
a(I3
g123
tp131
a(I0
g125
tp132
a(I1
g123
tp133
a(I2
g125
tp134
a(I3
g123
tp135
a(I0
g125
tp136
a(I1
g123
tp137
a(I2
g125
tp138
a(I3
g123
tp139
a(I0
g125
tp140
a(I1
g95
tp141
a(I2
g93
tp142
a(I3
g93
tp143
a(I0
g95
tp144
a(I1
g123
tp145
a(I2
g125
tp146
a(I3
g123
tp147
a(I0
g95
tp148
a(I1
g95
tp149
a(I2
g125
tp150
a(I3
g123
tp151
a(I0
g95
tp152
a(I1
g95
tp153
a(I2
g125
tp154
a(I3
g95
tp155
a(I0
g95
tp156
a(I1
g123
tp157
a(I2
g123
tp158
a(I3
g95
tp159
a(I0
g95
tp160
a(I1
g123
tp161
a(I2
g95
tp162
a(I3
g95
tp163
a(I0
g125
tp164
a(I1
g123
tp165
a(I2
g95
tp166
a(I3
g95
tp167
a(I0
g123
tp168
a(I1
g123
tp169
a(I2
g95
tp170
a(I3
g95
tp171
a(I0
g93
tp172
a(I1
g125
tp173
a(I2
g95
tp174
a(I3
g93
tp175
a(I0
g93
tp176
a(I1
g125
tp177
a(I2
g95
tp178
a(I3
g93
tp179
a(I0
g93
tp180
a(I1
g125
tp181
a(I2
g125
tp182
a(I3
g93
tp183
a(I0
g93
tp184
a(I1
g125
tp185
a(I2
g123
tp186
a(I3
g93
tp187
a(I0
g125
tp188
a(I1
g93
tp189
a(I2
g93
tp190
a(I3
g93
tp191
a(I0
g125
tp192
a(I1
g125
tp193
a(I2
g93
tp194
a(I3
g95
tp195
a(I0
g123
tp196
a(I1
g95
tp197
a(I2
g93
tp198
a(I3
g95
tp199
a(I0
g95
tp200
a(I1
g95
tp201
a(I2
g93
tp202
a(I3
g95
tp203
a(I0
g123
tp204
a(I1
g95
tp205
a(I2
g93
tp206
a(I3
g95
tp207
a(I0
g95
tp208
a(I1
g123
tp209
a(I2
g125
tp210
a(I3
g95
tp211
a(I0
g125
tp212
a(I1
g123
tp213
a(I2
g123
tp214
a(I3
g93
tp215
a(I0
g125
tp216
a(I1
g95
tp217
a(I2
g95
tp218
a(I3
g93
tp219
a(I0
g125
tp220
a(I1
g123
tp221
a(I2
g95
tp222
a(I3
g93
tp223
a(I0
g125
tp224
a(I1
g125
tp225
a(I2
g95
tp226
a(I3
g95
tp227
a(I0
g125
tp228
a(I1
g125
tp229
a(I2
g95
tp230
a(I3
g95
tp231
a(I0
g123
tp232
a(I1
g125
tp233
a(I2
g95
tp234
a(I3
g95
tp235
a(I0
g123
tp236
a(I1
g125
tp237
a(I2
g125
tp238
a(I3
g93
tp239
a(I0
g123
tp240
a(I1
g125
tp241
a(I2
g123
tp242
a(I3
g93
tp243
a(I0
g123
tp244
a(I1
g93
tp245
a(I2
g93
tp246
a(I3
g93
tp247
a(I0
g123
tp248
a(I1
g123
tp249
a(I2
g93
tp250
a(I3
g93
tp251
a(I0
g95
tp252
a(I1
g95
tp253
a(I2
g93
tp254
a(I3
g93
tp255
a(I0
g95
tp256
a(I1
g123
tp257
a(I2
g93
tp258
a(I3
g95
tp259
a(I0
g125
tp260
a(I1
g123
tp261
a(I2
g93
tp262
a(I3
g95
tp263
a(I0
g125
tp264
a(I1
g93
tp265
a(I2
g125
tp266
a(I3
g95
tp267
a(I0
g95
tp268
a(I1
g125
tp269
a(I2
g123
tp270
a(I3
g95
tp271
a(I0
g125
tp272
a(I1
g93
tp273
a(I2
g95
tp274
a(I3
g95
tp275
a(I0
g125
tp276
a(I1
g95
tp277
a(I2
g95
tp278
a(I3
g125
tp279
a(I0
g125
tp280
a(I1
g123
tp281
a(I2
g95
tp282
a(I3
g95
tp283
a(I0
g123
tp284
a(I1
g123
tp285
a(I2
g95
tp286
a(I3
g95
tp287
a(I0
g123
tp288
a(I1
g125
tp289
a(I2
g95
tp290
a(I3
g93
tp291
a(I0
g123
tp292
a(I1
g125
tp293
a(I2
g125
tp294
a(I3
g93
tp295
a(I0
g93
tp296
a(I1
g125
tp297
a(I2
g123
tp298
a(I3
g123
tp299
a(I0
g125
tp300
a(I1
g125
tp301
a(I2
g93
tp302
a(I3
g93
tp303
a(I0
g95
tp304
a(I1
g95
tp305
a(I2
g93
tp306
a(I3
g93
tp307
a(I0
g123
tp308
a(I1
g123
tp309
a(I2
g93
tp310
a(I3
g93
tp311
a(I0
g93
tp312
a(I1
g123
tp313
a(I2
g93
tp314
a(I3
g93
tp315
a(I0
g125
tp316
a(I1
g123
tp317
a(I2
g93
tp318
a(I3
g93
tp319
a(I0
g95
tp320
a(I1
g93
tp321
a(I2
g125
tp322
a(I3
g95
tp323
a(I0
g123
tp324
a(I1
g125
tp325
a(I2
g123
tp326
a(I3
g95
tp327
a(I0
g93
tp328
a(I1
g93
tp329
a(I2
g95
tp330
a(I3
g95
tp331
a(I0
g125
tp332
a(I1
g93
tp333
a(I2
g95
tp334
a(I3
g95
tp335
a(I0
g95
tp336
a(I1
g123
tp337
a(I2
g95
tp338
a(I3
g95
tp339
a(I0
g123
tp340
a(I1
g123
tp341
a(I2
g95
tp342
a(I3
g93
tp343
a(I0
g93
tp344
a(I1
g123
tp345
a(I2
g95
tp346
a(I3
g93
tp347
a(I0
g125
tp348
a(I1
g123
tp349
a(I2
g123
tp350
a(I3
g93
tp351
a(I0
g123
tp352
a(I1
g123
tp353
a(I2
g95
tp354
a(I3
g93
tp355
a(I0
g123
tp356
a(I1
g125
tp357
a(I2
g95
tp358
a(I3
g93
tp359
a(I0
g123
tp360
a(I1
g125
tp361
a(I2
g93
tp362
a(I3
g95
tp363
a(I0
g95
tp364
a(I1
g125
tp365
a(I2
g93
tp366
a(I3
g95
tp367
a(I0
g125
tp368
a(I1
g125
tp369
a(I2
g125
tp370
a(I3
g95
tp371
a(I0
g125
tp372
a(I1
g125
tp373
a(I2
g125
tp374
a(I3
g95
tp375
a(I0
g93
tp376
a(I1
g95
tp377
a(I2
g123
tp378
a(I3
g95
tp379
a(I0
g125
tp380
a(I1
g95
tp381
a(I2
g93
tp382
a(I3
g93
tp383
a(I0
g95
tp384
a(I1
g125
tp385
a(I2
g93
tp386
a(I3
g93
tp387
a(I0
g123
tp388
a(I1
g95
tp389
a(I2
g93
tp390
a(I3
g93
tp391
a(I0
g93
tp392
a(I1
g123
tp393
a(I2
g93
tp394
a(I3
g93
tp395
a(I0
g125
tp396
a(I1
g123
tp397
a(I2
g93
tp398
a(I3
g93
tp399
a(I0
g95
tp400
a(I1
g93
tp401
a(I2
g125
tp402
a(I3
g95
tp403
a(I0
g123
tp404
a(I1
g125
tp405
a(I2
g123
tp406
a(I3
g95
tp407
a(I0
g93
tp408
a(I1
g93
tp409
a(I2
g95
tp410
a(I3
g95
tp411
a(I0
g125
tp412
a(I1
g93
tp413
a(I2
g95
tp414
a(I3
g95
tp415
a(I0
g95
tp416
a(I1
g123
tp417
a(I2
g95
tp418
a(I3
g95
tp419
a(I0
g123
tp420
a(I1
g123
tp421
a(I2
g95
tp422
a(I3
g93
tp423
a(I0
g93
tp424
a(I1
g123
tp425
a(I2
g95
tp426
a(I3
g93
tp427
a(I0
g125
tp428
a(I1
g123
tp429
a(I2
g123
tp430
a(I3
g93
tp431
a(I0
g123
tp432
a(I1
g123
tp433
a(I2
g95
tp434
a(I3
g93
tp435
a(I0
g123
tp436
a(I1
g125
tp437
a(I2
g95
tp438
a(I3
g93
tp439
a(I0
g123
tp440
a(I1
g125
tp441
a(I2
g93
tp442
a(I3
g95
tp443
a(I0
g95
tp444
a(I1
g125
tp445
a(I2
g93
tp446
a(I3
g95
tp447
a(I0
g125
tp448
a(I1
g125
tp449
a(I2
g125
tp450
a(I3
g95
tp451
a(I0
g125
tp452
a(I1
g125
tp453
a(I2
g125
tp454
a(I3
g95
tp455
a(I0
g93
tp456
a(I1
g95
tp457
a(I2
g123
tp458
a(I3
g95
tp459
a(I0
g125
tp460
a(I1
g95
tp461
a(I2
g93
tp462
a(I3
g93
tp463
a(I0
g95
tp464
a(I1
g125
tp465
a(I2
g93
tp466
a(I3
g93
tp467
a(I0
g123
tp468
a(I1
g95
tp469
a(I2
g93
tp470
a(I3
g93
tp471
a(I0
g93
tp472
a(I1
g123
tp473
a(I2
g93
tp474
a(I3
g93
tp475
a(I0
g125
tp476
a(I1
g123
tp477
a(I2
g93
tp478
a(I3
g93
tp479
a(I0
g95
tp480
a(I1
g93
tp481
a(I2
g125
tp482
a(I3
g95
tp483
a(I0
g123
tp484
a(I1
g125
tp485
a(I2
g123
tp486
a(I3
g95
tp487
a(I0
g93
tp488
a(I1
g93
tp489
a(I2
g95
tp490
a(I3
g95
tp491
a(I0
g125
tp492
a(I1
g93
tp493
a(I2
g95
tp494
a(I3
g95
tp495
a(I0
g95
tp496
a(I1
g123
tp497
a(I2
g95
tp498
a(I3
g95
tp499
a(I0
g123
tp500
a(I1
g123
tp501
a(I2
g95
tp502
a(I3
g93
tp503
a(I0
g93
tp504
a(I1
g123
tp505
a(I2
g95
tp506
a(I3
g93
tp507
a(I0
g125
tp508
a(I1
g123
tp509
a(I2
g123
tp510
a(I3
g93
tp511
a(I0
g123
tp512
a(I1
g123
tp513
a(I2
g95
tp514
a(I3
g93
tp515
a(I0
g123
tp516
a(I1
g125
tp517
a(I2
g95
tp518
a(I3
g93
tp519
a(I0
g123
tp520
a(I1
g125
tp521
a(I2
g93
tp522
a(I3
g95
tp523
a(I0
g95
tp524
a(I1
g125
tp525
a(I2
g93
tp526
a(I3
g95
tp527
a(I0
g125
tp528
a(I1
g125
tp529
a(I2
g125
tp530
a(I3
g95
tp531
a(I0
g125
tp532
a(I1
g125
tp533
a(I2
g125
tp534
a(I3
g95
tp535
a(I0
g93
tp536
a(I1
g95
tp537
a(I2
g123
tp538
a(I3
g95
tp539
a(I0
g125
tp540
a(I1
g95
tp541
a(I2
g93
tp542
a(I3
g93
tp543
a(I0
g95
tp544
a(I1
g125
tp545
a(I2
g93
tp546
a(I3
g93
tp547
a(I0
g123
tp548
a(I1
g95
tp549
a(I2
g93
tp550
a(I3
g93
tp551
a(I0
g93
tp552
a(I1
g123
tp553
a(I2
g93
tp554
a(I3
g93
tp555
a(I0
g125
tp556
a(I1
g123
tp557
a(I2
g93
tp558
a(I3
g93
tp559
a(I0
g95
tp560
a(I1
g93
tp561
a(I2
g125
tp562
a(I3
g95
tp563
a(I0
g123
tp564
a(I1
g125
tp565
a(I2
g123
tp566
a(I3
g95
tp567
a(I0
g93
tp568
a(I1
g93
tp569
a(I2
g95
tp570
a(I3
g95
tp571
a(I0
g125
tp572
a(I1
g93
tp573
a(I2
g95
tp574
a(I3
g95
tp575
a(I0
g95
tp576
a(I1
g123
tp577
a(I2
g95
tp578
a(I3
g95
tp579
a(I0
g123
tp580
a(I1
g123
tp581
a(I2
g95
tp582
a(I3
g93
tp583
a(I0
g93
tp584
a(I1
g123
tp585
a(I2
g95
tp586
a(I3
g93
tp587
a(I0
g125
tp588
a(I1
g123
tp589
a(I2
g123
tp590
a(I3
g93
tp591
a(I0
g123
tp592
a(I1
g123
tp593
a(I2
g95
tp594
a(I3
g93
tp595
a(I0
g123
tp596
a(I1
g125
tp597
a(I2
g95
tp598
a(I3
g93
tp599
a(I0
g123
tp600
a(I1
g125
tp601
a(I2
g93
tp602
a(I3
g95
tp603
a(I0
g95
tp604
a(I1
g125
tp605
a(I2
g93
tp606
a(I3
g95
tp607
a(I0
g125
tp608
a(I1
g125
tp609
a(I2
g125
tp610
a(I3
g95
tp611
a(I0
g125
tp612
a(I1
g125
tp613
a(I2
g125
tp614
a(I3
g95
tp615
a(I0
g93
tp616
a(I1
g95
tp617
a(I2
g123
tp618
a(I3
g95
tp619
a(I0
g125
tp620
a(I1
g95
tp621
a(I2
g93
tp622
a(I3
g93
tp623
a(I0
g95
tp624
a(I1
g125
tp625
a(I2
g93
tp626
a(I3
g93
tp627
a(I0
g123
tp628
a(I1
g95
tp629
a(I2
g93
tp630
a(I3
g93
tp631
a(I0
g93
tp632
a(I1
g123
tp633
a(I2
g93
tp634
a(I3
g93
tp635
a(I0
g125
tp636
a(I1
g123
tp637
a(I2
g93
tp638
a(I3
g93
tp639
a(I0
g95
tp640
a(I1
g93
tp641
a(I2
g125
tp642
a(I3
g95
tp643
a(I0
g123
tp644
a(I1
g125
tp645
a(I2
g123
tp646
a(I3
g95
tp647
a(I0
g93
tp648
a(I1
g93
tp649
a(I2
g95
tp650
a(I3
g95
tp651
a(I0
g125
tp652
a(I1
g93
tp653
a(I2
g95
tp654
a(I3
g95
tp655
a(I0
g95
tp656
a(I1
g123
tp657
a(I2
g95
tp658
a(I3
g95
tp659
a(I0
g123
tp660
a(I1
g123
tp661
a(I2
g95
tp662
a(I3
g93
tp663
a(I0
g93
tp664
a(I1
g123
tp665
a(I2
g95
tp666
a(I3
g93
tp667
a(I0
g125
tp668
a(I1
g123
tp669
a(I2
g123
tp670
a(I3
g93
tp671
a(I0
g123
tp672
a(I1
g123
tp673
a(I2
g95
tp674
a(I3
g93
tp675
a(I0
g123
tp676
a(I1
g125
tp677
a(I2
g95
tp678
a(I3
g93
tp679
a(I0
g123
tp680
a(I1
g125
tp681
a(I2
g93
tp682
a(I3
g95
tp683
a(I0
g95
tp684
a(I1
g125
tp685
a(I2
g93
tp686
a(I3
g95
tp687
a(I0
g125
tp688
a(I1
g125
tp689
a(I2
g125
tp690
a(I3
g95
tp691
a(I0
g125
tp692
a(I1
g125
tp693
a(I2
g125
tp694
a(I3
g95
tp695
a(I0
g93
tp696
a(I1
g95
tp697
a(I2
g123
tp698
a(I3
g95
tp699
a(I0
g125
tp700
a(I1
g95
tp701
a(I2
g93
tp702
a(I3
g93
tp703
a(I0
g95
tp704
a(I1
g125
tp705
a(I2
g93
tp706
a(I3
g93
tp707
a(I0
g123
tp708
a(I1
g95
tp709
a(I2
g93
tp710
a(I3
g93
tp711
a(I0
g93
tp712
a(I1
g123
tp713
a(I2
g93
tp714
a(I3
g93
tp715
a(I0
g125
tp716
a(I1
g123
tp717
a(I2
g93
tp718
a(I3
g93
tp719
a(I0
g95
tp720
a(I1
g93
tp721
a(I2
g125
tp722
a(I3
g95
tp723
a(I0
g123
tp724
a(I1
g125
tp725
a(I2
g123
tp726
a(I3
g95
tp727
a(I0
g93
tp728
a(I1
g93
tp729
a(I2
g95
tp730
a(I3
g95
tp731
a(I0
g125
tp732
a(I1
g93
tp733
a(I2
g95
tp734
a(I3
g95
tp735
a(I0
g95
tp736
a(I1
g123
tp737
a(I2
g95
tp738
a(I3
g95
tp739
a(I0
g123
tp740
a(I1
g123
tp741
a(I2
g95
tp742
a(I3
g93
tp743
a(I0
g93
tp744
a(I1
g123
tp745
a(I2
g95
tp746
a(I3
g93
tp747
a(I0
g125
tp748
a(I1
g123
tp749
a(I2
g123
tp750
a(I3
g93
tp751
a(I0
g123
tp752
a(I1
g123
tp753
a(I2
g95
tp754
a(I3
g93
tp755
a(I0
g123
tp756
a(I1
g125
tp757
a(I2
g95
tp758
a(I3
g93
tp759
a(I0
g123
tp760
a(I1
g125
tp761
a(I2
g93
tp762
a(I3
g95
tp763
a(I0
g95
tp764
a(I1
g125
tp765
a(I2
g93
tp766
a(I3
g95
tp767
a(I0
g125
tp768
a(I1
g125
tp769
a(I2
g125
tp770
a(I3
g95
tp771
a(I0
g125
tp772
a(I1
g125
tp773
a(I2
g125
tp774
a(I3
g95
tp775
a(I0
g93
tp776
a(I1
g95
tp777
a(I2
g123
tp778
a(I3
g95
tp779
a(I0
g125
tp780
a(I1
g95
tp781
a(I2
g93
tp782
a(I3
g93
tp783
a(I0
g95
tp784
a(I1
g125
tp785
a(I2
g93
tp786
a(I3
g93
tp787
a(I0
g123
tp788
a(I1
g95
tp789
a(I2
g93
tp790
a(I3
g93
tp791
a(I0
g93
tp792
a(I1
g123
tp793
a(I2
g93
tp794
a(I3
g93
tp795
a(I0
g125
tp796
a(I1
g123
tp797
a(I2
g93
tp798
a(I3
g93
tp799
a(I0
g95
tp800
a(I1
g93
tp801
a(I2
g125
tp802
a(I3
g95
tp803
a(I0
g123
tp804
a(I1
g125
tp805
a(I2
g123
tp806
a(I3
g95
tp807
a(I0
g93
tp808
a(I1
g93
tp809
a(I2
g95
tp810
a(I3
g95
tp811
a(I0
g125
tp812
a(I1
g93
tp813
a(I2
g95
tp814
a(I3
g95
tp815
a(I0
g95
tp816
a(I1
g123
tp817
a(I2
g95
tp818
a(I3
g95
tp819
a(I0
g123
tp820
a(I1
g123
tp821
a(I2
g95
tp822
a(I3
g93
tp823
a(I0
g93
tp824
a(I1
g123
tp825
a(I2
g95
tp826
a(I3
g93
tp827
a(I0
g125
tp828
a(I1
g123
tp829
a(I2
g123
tp830
a(I3
g93
tp831
a(I0
g123
tp832
a(I1
g123
tp833
a(I2
g95
tp834
a(I3
g93
tp835
a(I0
g123
tp836
a(I1
g125
tp837
a(I2
g95
tp838
a(I3
g93
tp839
a(I0
g123
tp840
a(I1
g125
tp841
a(I2
g93
tp842
a(I3
g95
tp843
a(I0
g95
tp844
a(I1
g125
tp845
a(I2
g93
tp846
a(I3
g95
tp847
a(I0
g125
tp848
a(I1
g125
tp849
a(I2
g125
tp850
a(I3
g95
tp851
a(I0
g125
tp852
a(I1
g125
tp853
a(I2
g125
tp854
a(I3
g95
tp855
a(I0
g93
tp856
a(I1
g95
tp857
a(I2
g123
tp858
a(I3
g95
tp859
a(I0
g125
tp860
a(I1
g95
tp861
a(I2
g93
tp862
a(I3
g93
tp863
a(I0
g95
tp864
a(I1
g125
tp865
a(I2
g93
tp866
a(I3
g93
tp867
a(I0
g123
tp868
a(I1
g95
tp869
a(I2
g93
tp870
a(I3
g93
tp871
a(I0
g93
tp872
a(I1
g123
tp873
a(I2
g93
tp874
a(I3
g93
tp875
a(I0
g125
tp876
a(I1
g123
tp877
a(I2
g93
tp878
a(I3
g93
tp879
a(I0
g95
tp880
a(I1
g93
tp881
a(I2
g125
tp882
a(I3
g95
tp883
a(I0
g123
tp884
a(I1
g125
tp885
a(I2
g123
tp886
a(I3
g95
tp887
a(I0
g93
tp888
a(I1
g93
tp889
a(I2
g95
tp890
a(I3
g95
tp891
a(I0
g125
tp892
a(I1
g93
tp893
a(I2
g95
tp894
a(I3
g95
tp895
a(I0
g95
tp896
a(I1
g123
tp897
a(I2
g95
tp898
a(I3
g95
tp899
a(I0
g123
tp900
a(I1
g123
tp901
a(I2
g95
tp902
a(I3
g93
tp903
a(I0
g93
tp904
a(I1
g123
tp905
a(I2
g95
tp906
a(I3
g93
tp907
a(I0
g125
tp908
a(I1
g123
tp909
a(I2
g123
tp910
a(I3
g93
tp911
a(I0
g123
tp912
a(I1
g123
tp913
a(I2
g95
tp914
a(I3
g93
tp915
a(I0
g123
tp916
a(I1
g125
tp917
a(I2
g95
tp918
a(I3
g93
tp919
a(I0
g123
tp920
a(I1
g125
tp921
a(I2
g93
tp922
a(I3
g95
tp923
a(I0
g95
tp924
a(I1
g125
tp925
a(I2
g93
tp926
a(I3
g95
tp927
a(I0
g125
tp928
a(I1
g125
tp929
a(I2
g125
tp930
a(I3
g95
tp931
a(I0
g125
tp932
a(I1
g125
tp933
a(I2
g125
tp934
a(I3
g95
tp935
a(I0
g93
tp936
a(I1
g95
tp937
a(I2
g123
tp938
a(I3
g95
tp939
a(I0
g125
tp940
a(I1
g95
tp941
a(I2
g93
tp942
a(I3
g93
tp943
a(I0
g95
tp944
a(I1
g125
tp945
a(I2
g93
tp946
a(I3
g93
tp947
a(I0
g123
tp948
a(I1
g95
tp949
a(I2
g93
tp950
a(I3
g93
tp951
a(I0
g93
tp952
a(I1
g123
tp953
a(I2
g93
tp954
a(I3
g93
tp955
a(I0
g125
tp956
a(I1
g123
tp957
a(I2
g93
tp958
a(I3
g93
tp959
a(I0
g95
tp960
a(I1
g93
tp961
a(I2
g125
tp962
a(I3
g95
tp963
a(I0
g123
tp964
a(I1
g125
tp965
a(I2
g123
tp966
a(I3
g95
tp967
a(I0
g93
tp968
a(I1
g93
tp969
a(I2
g95
tp970
a(I3
g95
tp971
a(I0
g125
tp972
a(I1
g93
tp973
a(I2
g95
tp974
a(I3
g95
tp975
a(I0
g95
tp976
a(I1
g123
tp977
a(I2
g95
tp978
a(I3
g95
tp979
a(I0
g123
tp980
a(I1
g123
tp981
a(I2
g95
tp982
a(I3
g93
tp983
a(I0
g93
tp984
a(I1
g123
tp985
a(I2
g95
tp986
a(I3
g93
tp987
a(I0
g125
tp988
a(I1
g123
tp989
a(I2
g123
tp990
a(I3
g93
tp991
a(I0
g123
tp992
a(I1
g123
tp993
a(I2
g95
tp994
a(I3
g93
tp995
a(I0
g123
tp996
a(I1
g125
tp997
a(I2
g95
tp998
a(I3
g93
tp999
a(I0
g123
tp1000
a(I1
g125
tp1001
a(I2
g93
tp1002
a(I3
g95
tp1003
a(I0
g95
tp1004
a(I1
g125
tp1005
a(I2
g93
tp1006
a(I3
g95
tp1007
a(I0
g125
tp1008
a(I1
g125
tp1009
a(I2
g125
tp1010
a(I3
g95
tp1011
a(I0
g125
tp1012
a(I1
g125
tp1013
a(I2
g125
tp1014
a(I3
g95
tp1015
a(I0
g93
tp1016
a(I1
g95
tp1017
a(I2
g123
tp1018
a(I3
g95
tp1019
a(I0
g125
tp1020
a(I1
g95
tp1021
a(I2
g93
tp1022
a(I3
g93
tp1023
a(I0
g95
tp1024
a(I1
g125
tp1025
a(I2
g93
tp1026
a(I3
g93
tp1027
a(I0
g123
tp1028
a(I1
g95
tp1029
a(I2
g93
tp1030
a(I3
g93
tp1031
a(I0
g93
tp1032
a(I1
g123
tp1033
a(I2
g93
tp1034
a(I3
g93
tp1035
a(I0
g125
tp1036
a(I1
g123
tp1037
a(I2
g93
tp1038
a(I3
g93
tp1039
a(I0
g95
tp1040
a(I1
g93
tp1041
a(I2
g125
tp1042
a(I3
g95
tp1043
a(I0
g123
tp1044
a(I1
g125
tp1045
a(I2
g123
tp1046
a(I3
g95
tp1047
a(I0
g93
tp1048
a(I1
g93
tp1049
a(I2
g95
tp1050
a(I3
g95
tp1051
a(I0
g125
tp1052
a(I1
g93
tp1053
a(I2
g95
tp1054
a(I3
g95
tp1055
a(I0
g95
tp1056
a(I1
g123
tp1057
a(I2
g95
tp1058
a(I3
g95
tp1059
a(I0
g123
tp1060
a(I1
g123
tp1061
a(I2
g95
tp1062
a(I3
g93
tp1063
a(I0
g93
tp1064
a(I1
g123
tp1065
a(I2
g95
tp1066
a(I3
g93
tp1067
a(I0
g125
tp1068
a(I1
g123
tp1069
a(I2
g123
tp1070
a(I3
g93
tp1071
a(I0
g123
tp1072
a(I1
g123
tp1073
a(I2
g95
tp1074
a(I3
g93
tp1075
a(I0
g123
tp1076
a(I1
g125
tp1077
a(I2
g95
tp1078
a(I3
g93
tp1079
a(I0
g123
tp1080
a(I1
g125
tp1081
a(I2
g93
tp1082
a(I3
g95
tp1083
a(I0
g95
tp1084
a(I1
g125
tp1085
a(I2
g93
tp1086
a(I3
g95
tp1087
a(I0
g125
tp1088
a(I1
g125
tp1089
a(I2
g125
tp1090
a(I3
g95
tp1091
a(I0
g125
tp1092
a(I1
g125
tp1093
a(I2
g125
tp1094
a(I3
g95
tp1095
a(I0
g93
tp1096
a(I1
g95
tp1097
a(I2
g123
tp1098
a(I3
g95
tp1099
a(I0
g125
tp1100
a(I1
g95
tp1101
a(I2
g93
tp1102
a(I3
g93
tp1103
a(I0
g95
tp1104
a(I1
g125
tp1105
a(I2
g93
tp1106
a(I3
g93
tp1107
a(I0
g123
tp1108
a(I1
g95
tp1109
a(I2
g93
tp1110
a(I3
g93
tp1111
a(I0
g93
tp1112
a(I1
g123
tp1113
a(I2
g93
tp1114
a(I3
g93
tp1115
a(I0
g125
tp1116
a(I1
g123
tp1117
a(I2
g93
tp1118
a(I3
g93
tp1119
a(I0
g95
tp1120
a(I1
g93
tp1121
a(I2
g125
tp1122
a(I3
g95
tp1123
a(I0
g123
tp1124
a(I1
g125
tp1125
a(I2
g123
tp1126
a(I3
g95
tp1127
a(I0
g93
tp1128
a(I1
g93
tp1129
a(I2
g95
tp1130
a(I3
g95
tp1131
a(I0
g125
tp1132
a(I1
g93
tp1133
a(I2
g95
tp1134
a(I3
g95
tp1135
a(I0
g95
tp1136
a(I1
g123
tp1137
a(I2
g95
tp1138
a(I3
g95
tp1139
a(I0
g123
tp1140
a(I1
g123
tp1141
a(I2
g95
tp1142
a(I3
g93
tp1143
a(I0
g93
tp1144
a(I1
g123
tp1145
a(I2
g95
tp1146
a(I3
g93
tp1147
a(I0
g125
tp1148
a(I1
g123
tp1149
a(I2
g123
tp1150
a(I3
g93
tp1151
a(I0
g123
tp1152
a(I1
g123
tp1153
a(I2
g95
tp1154
a(I3
g93
tp1155
a(I0
g123
tp1156
a(I1
g125
tp1157
a(I2
g95
tp1158
a(I3
g93
tp1159
a(I0
g123
tp1160
a(I1
g125
tp1161
a(I2
g93
tp1162
a(I3
g95
tp1163
a(I0
g95
tp1164
a(I1
g125
tp1165
a(I2
g93
tp1166
a(I3
g95
tp1167
a(I0
g125
tp1168
a(I1
g125
tp1169
a(I2
g125
tp1170
a(I3
g95
tp1171
a(I0
g125
tp1172
a(I1
g125
tp1173
a(I2
g125
tp1174
a(I3
g95
tp1175
a(I0
g93
tp1176
a(I1
g95
tp1177
a(I2
g123
tp1178
a(I3
g95
tp1179
a(I0
g125
tp1180
a(I1
g95
tp1181
a(I2
g93
tp1182
a(I3
g93
tp1183
a(I0
g95
tp1184
a(I1
g125
tp1185
a(I2
g93
tp1186
a(I3
g93
tp1187
a(I0
g123
tp1188
a(I1
g95
tp1189
a(I2
g93
tp1190
a(I3
g93
tp1191
a(I0
g93
tp1192
a(I1
g123
tp1193
a(I2
g93
tp1194
a(I3
g93
tp1195
a(I0
g125
tp1196
a(I1
g123
tp1197
a(I2
g93
tp1198
a(I3
g93
tp1199
a(I0
g95
tp1200
a(I1
g93
tp1201
a(I2
g125
tp1202
a(I3
g95
tp1203
a(I0
g123
tp1204
a(I1
g125
tp1205
a(I2
g123
tp1206
a(I3
g95
tp1207
a(I0
g93
tp1208
a(I1
g93
tp1209
a(I2
g95
tp1210
a(I3
g95
tp1211
a(I0
g125
tp1212
a(I1
g93
tp1213
a(I2
g95
tp1214
a(I3
g95
tp1215
a(I0
g95
tp1216
a(I1
g123
tp1217
a(I2
g95
tp1218
a(I3
g95
tp1219
a(I0
g123
tp1220
a(I1
g123
tp1221
a(I2
g95
tp1222
a(I3
g93
tp1223
a(I0
g93
tp1224
a(I1
g123
tp1225
a(I2
g95
tp1226
a(I3
g93
tp1227
a(I0
g125
tp1228
a(I1
g123
tp1229
a(I2
g123
tp1230
a(I3
g93
tp1231
a(I0
g123
tp1232
a(I1
g123
tp1233
a(I2
g95
tp1234
a(I3
g93
tp1235
a(I0
g123
tp1236
a(I1
g125
tp1237
a(I2
g95
tp1238
a(I3
g93
tp1239
a(I0
g123
tp1240
a(I1
g125
tp1241
a(I2
g93
tp1242
a(I3
g95
tp1243
a(I0
g95
tp1244
a(I1
g125
tp1245
a(I2
g93
tp1246
a(I3
g95
tp1247
a(I0
g125
tp1248
a(I1
g125
tp1249
a(I2
g125
tp1250
a(I3
g95
tp1251
a(I0
g125
tp1252
a(I1
g125
tp1253
a(I2
g125
tp1254
a(I3
g95
tp1255
a(I0
g93
tp1256
a(I1
g95
tp1257
a(I2
g123
tp1258
a(I3
g95
tp1259
a(I0
g125
tp1260
a(I1
g95
tp1261
a(I2
g93
tp1262
a(I3
g93
tp1263
a(I0
g95
tp1264
a(I1
g125
tp1265
a(I2
g93
tp1266
a(I3
g93
tp1267
a(I0
g123
tp1268
a(I1
g95
tp1269
a(I2
g93
tp1270
a(I3
g93
tp1271
a(I0
g93
tp1272
a(I1
g123
tp1273
a(I2
g93
tp1274
a(I3
g93
tp1275
a(I0
g125
tp1276
a(I1
g123
tp1277
a(I2
g93
tp1278
a(I3
g93
tp1279
a(I0
g95
tp1280
a(I1
g93
tp1281
a(I2
g125
tp1282
a(I3
g95
tp1283
a(I0
g123
tp1284
a(I1
g125
tp1285
a(I2
g123
tp1286
a(I3
g95
tp1287
a(I0
g93
tp1288
a(I1
g93
tp1289
a(I2
g95
tp1290
a(I3
g95
tp1291
a(I0
g125
tp1292
a(I1
g93
tp1293
a(I2
g95
tp1294
a(I3
g95
tp1295
a(I0
g95
tp1296
asS'length'
p1297
I1200
sS'agents'
p1298
(lp1299
(igame
Agent
p1300
(dp1301
S'index'
p1302
I0
sba(igame
Agent
p1303
(dp1304
g1302
I0
sba(igame
Agent
p1305
(dp1306
g1302
I0
sba(igame
Agent
p1307
(dp1308
g1302
I0
sbasS'redTeamName'
p1309
S'Red'
p1310
s.