(dp1
S'layout'
p2
(ilayout
Layout
p3
(dp4
S'capsules'
p5
(lp6
sS'numGhosts'
p7
I4
sS'food'
p8
(igame
Grid
p9
(dp10
S'CELLS_PER_INT'
p11
I30
sS'width'
p12
I18
sS'data'
p13
(lp14
(lp15
I00
aI00
aI00
aI00
aI00
aI00
aI00
aI00
aI00
aI00
aI00
aI00
aI00
aI00
aI00
aI00
aI00
aI00
aI00
aI00
aa(lp16
I00
aI00
aI00
aI00
aI00
aI00
aI00
aI00
aI00
aI00
aI00
aI00
aI00
aI00
aI00
aI00
aI00
aI00
aI00
aI00
aa(lp17
I00
aI00
aI00
aI00
aI00
aI00
aI00
aI00
aI00
aI00
aI00
aI00
aI00
aI00
aI00
aI00
aI00
aI00
aI00
aI00
aa(lp18
I00
aI01
aI00
aI01
aI01
aI01
aI01
aI00
aI01
aI00
aI00
aI01
aI00
aI01
aI01
aI01
aI01
aI01
aI00
aI00
aa(lp19
I00
aI01
aI00
aI00
aI01
aI00
aI00
aI00
aI01
aI00
aI00
aI01
aI00
aI00
aI00
aI00
aI01
aI01
aI00
aI00
aa(lp20
I00
aI01
aI00
aI00
aI01
aI00
aI00
aI00
aI00
aI00
aI00
aI00
aI00
aI00
aI00
aI00
aI01
aI01
aI00
aI00
aa(lp21
I00
aI01
aI00
aI00
aI01
aI00
aI00
aI00
aI00
aI00
aI00
aI00
aI01
aI01
aI00
aI00
aI01
aI01
aI00
aI00
aa(lp22
I00
aI00
aI00
aI00
aI01
aI01
aI00
aI00
aI01
aI01
aI01
aI01
aI00
aI00
aI01
aI00
aI01
aI01
aI00
aI00
aa(lp23
I00
aI00
aI00
aI00
aI00
aI00
aI00
aI00
aI00
aI00
aI00
aI00
aI00
aI00
aI00
aI00
aI00
aI00
aI00
aI00
aa(lp24
I00
aI00
aI00
aI00
aI00
aI00
aI00
aI00
aI00
aI00
aI00
aI00
aI00
aI00
aI00
aI00
aI00
aI00
aI00
aI00
aa(lp25
I00
aI00
aI00
aI00
aI01
aI01
aI00
aI00
aI01
aI01
aI01
aI01
aI00
aI00
aI01
aI00
aI01
aI01
aI00
aI00
aa(lp26
I00
aI01
aI00
aI00
aI01
aI00
aI00
aI00
aI00
aI00
aI00
aI00
aI01
aI01
aI00
aI00
aI01
aI01
aI00
aI00
aa(lp27
I00
aI01
aI00
aI00
aI01
aI00
aI00
aI00
aI00
aI00
aI00
aI00
aI00
aI00
aI00
aI00
aI01
aI01
aI00
aI00
aa(lp28
I00
aI01
aI00
aI00
aI01
aI00
aI00
aI00
aI01
aI00
aI00
aI01
aI00
aI00
aI00
aI00
aI01
aI01
aI00
aI00
aa(lp29
I00
aI01
aI00
aI01
aI01
aI01
aI01
aI00
aI01
aI00
aI00
aI01
aI00
aI01
aI01
aI01
aI01
aI01
aI00
aI00
aa(lp30
I00
aI00
aI00
aI00
aI00
aI00
aI00
aI00
aI00
aI00
aI00
aI00
aI00
aI00
aI00
aI00
aI00
aI00
aI00
aI00
aa(lp31
I00
aI00
aI00
aI00
aI00
aI00
aI00
aI00
aI00
aI00
aI00
aI00
aI00
aI00
aI00
aI00
aI00
aI00
aI00
aI00
aa(lp32
I00
aI00
aI00
aI00
aI00
aI00
aI00
aI00
aI00
aI00
aI00
aI00
aI00
aI00
aI00
aI00
aI00
aI00
aI00
aI00
aasS'height'
p33
I20
sbsS'agentPositions'
p34
(lp35
(I00
(I1
I18
tp36
tp37
a(I00
(I16
I18
tp38
tp39
a(I00
(I1
I1
tp40
tp41
a(I00
(I16
I1
tp42
tp43
asg33
I20
sg12
I18
sS'walls'
p44
(igame
Grid
p45
(dp46
g11
I30
sg12
I18
sg13
(lp47
(lp48
I01
aI01
aI01
aI01
aI01
aI01
aI01
aI01
aI01
aI01
aI01
aI01
aI01
aI01
aI01
aI01
aI01
aI01
aI01
aI01
aa(lp49
I01
aI00
aI00
aI00
aI00
aI00
aI00
aI00
aI00
aI01
aI01
aI00
aI00
aI00
aI00
aI00
aI00
aI00
aI00
aI01
aa(lp50
I01
aI01
aI01
aI01
aI01
aI01
aI01
aI01
aI00
aI01
aI01
aI00
aI01
aI01
aI01
aI01
aI01
aI01
aI01
aI01
aa(lp51
I01
aI00
aI00
aI00
aI00
aI00
aI00
aI00
aI00
aI01
aI01
aI00
aI00
aI00
aI00
aI00
aI00
aI00
aI01
aI01
aa(lp52
I01
aI00
aI01
aI01
aI00
aI01
aI01
aI01
aI00
aI00
aI00
aI00
aI01
aI01
aI01
aI01
aI00
aI00
aI01
aI01
aa(lp53
I01
aI00
aI01
aI01
aI00
aI00
aI00
aI00
aI00
aI00
aI00
aI00
aI00
aI00
aI00
aI00
aI00
aI00
aI01
aI01
aa(lp54
I01
aI00
aI00
aI00
aI00
aI01
aI01
aI00
aI01
aI01
aI01
aI01
aI00
aI00
aI00
aI01
aI00
aI00
aI01
aI01
aa(lp55
I01
aI00
aI01
aI01
aI00
aI00
aI01
aI00
aI00
aI00
aI00
aI00
aI00
aI01
aI00
aI01
aI00
aI00
aI01
aI01
aa(lp56
I01
aI00
aI00
aI00
aI00
aI00
aI01
aI00
aI01
aI01
aI01
aI01
aI00
aI01
aI00
aI01
aI00
aI00
aI01
aI01
aa(lp57
I01
aI00
aI00
aI00
aI00
aI00
aI01
aI00
aI01
aI01
aI01
aI01
aI00
aI01
aI00
aI01
aI00
aI00
aI01
aI01
aa(lp58
I01
aI00
aI01
aI01
aI00
aI00
aI01
aI00
aI00
aI00
aI00
aI00
aI00
aI01
aI00
aI01
aI00
aI00
aI01
aI01
aa(lp59
I01
aI00
aI00
aI00
aI00
aI01
aI01
aI00
aI01
aI01
aI01
aI01
aI00
aI00
aI00
aI01
aI00
aI00
aI01
aI01
aa(lp60
I01
aI00
aI01
aI01
aI00
aI00
aI00
aI00
aI00
aI00
aI00
aI00
aI00
aI00
aI00
aI00
aI00
aI00
aI01
aI01
aa(lp61
I01
aI00
aI01
aI01
aI00
aI01
aI01
aI01
aI00
aI00
aI00
aI00
aI01
aI01
aI01
aI01
aI00
aI00
aI01
aI01
aa(lp62
I01
aI00
aI00
aI00
aI00
aI00
aI00
aI00
aI00
aI01
aI01
aI00
aI00
aI00
aI00
aI00
aI00
aI00
aI01
aI01
aa(lp63
I01
aI01
aI01
aI01
aI01
aI01
aI01
aI01
aI00
aI01
aI01
aI00
aI01
aI01
aI01
aI01
aI01
aI01
aI01
aI01
aa(lp64
I01
aI00
aI00
aI00
aI00
aI00
aI00
aI00
aI00
aI01
aI01
aI00
aI00
aI00
aI00
aI00
aI00
aI00
aI00
aI01
aa(lp65
I01
aI01
aI01
aI01
aI01
aI01
aI01
aI01
aI01
aI01
aI01
aI01
aI01
aI01
aI01
aI01
aI01
aI01
aI01
aI01
aasg33
I20
sbsS'totalFood'
p66
I74
sS'layoutText'
p67
(lp68
S'%%%%%%%%%%%%%%%%%%'
p69
aS'%1%%%%%%%%%%%%%%2%'
p70
aS'% %.....  .....% %'
p71
aS'% %.....  .....% %'
p72
aS'% %.% %%%%%% %.% %'
p73
aS'% %.%  .  .  %.% %'
p74
aS'% %.% .%%%%. %.% %'
p75
aS'% % % .    . % % %'
p76
aS'%  .. %.%%.% ..  %'
p77
aS'%%%%  %.%%.%  %%%%'
p78
aS'%%%%  %.%%.%  %%%%'
p79
aS'%  .. %.%%.% ..  %'
p80
aS'% % %        % % %'
p81
aS'% %.% %%%%%% %.% %'
p82
aS'% %.% %.  .% %.% %'
p83
aS'% %.....  .....% %'
p84
aS'% %.%% %  % %%.% %'
p85
aS'% % %% %  % %% % %'
p86
aS'%3%....    ....%4%'
p87
aS'%%%%%%%%%%%%%%%%%%'
p88
asbsS'blueTeamName'
p89
S'Blue'
p90
sS'actions'
p91
(lp92
(I0
S'South'
p93
tp94
a(I1
g93
tp95
a(I2
S'North'
p96
tp97
a(I3
g96
tp98
a(I0
g93
tp99
a(I1
g93
tp100
a(I2
g96
tp101
a(I3
g96
tp102
a(I0
g93
tp103
a(I1
g93
tp104
a(I2
g96
tp105
a(I3
g96
tp106
a(I0
g93
tp107
a(I1
g93
tp108
a(I2
g96
tp109
a(I3
g96
tp110
a(I0
g93
tp111
a(I1
g93
tp112
a(I2
g96
tp113
a(I3
g96
tp114
a(I0
g93
tp115
a(I1
g93
tp116
a(I2
g96
tp117
a(I3
g96
tp118
a(I0
g93
tp119
a(I1
g93
tp120
a(I2
g96
tp121
a(I3
g96
tp122
a(I0
S'East'
p123
tp124
a(I1
S'West'
p125
tp126
a(I2
g123
tp127
a(I3
g125
tp128
a(I0
g123
tp129
a(I1
g125
tp130
a(I2
g123
tp131
a(I3
g125
tp132
a(I0
g123
tp133
a(I1
g125
tp134
a(I2
g123
tp135
a(I3
g125
tp136
a(I0
g123
tp137
a(I1
g125
tp138
a(I2
g123
tp139
a(I3
g125
tp140
a(I0
g96
tp141
a(I1
g93
tp142
a(I2
g96
tp143
a(I3
g93
tp144
a(I0
g123
tp145
a(I1
S'Stop'
p146
tp147
a(I2
g125
tp148
a(I3
g125
tp149
a(I0
g123
tp150
a(I1
g93
tp151
a(I2
g93
tp152
a(I3
g125
tp153
a(I0
g123
tp154
a(I1
g93
tp155
a(I2
g125
tp156
a(I3
g125
tp157
a(I0
g123
tp158
a(I1
g96
tp159
a(I2
g93
tp160
a(I3
g125
tp161
a(I0
g123
tp162
a(I1
g96
tp163
a(I2
g96
tp164
a(I3
g125
tp165
a(I0
g93
tp166
a(I1
g96
tp167
a(I2
g123
tp168
a(I3
g96
tp169
a(I0
g93
tp170
a(I1
g96
tp171
a(I2
g123
tp172
a(I3
g96
tp173
a(I0
g93
tp174
a(I1
g125
tp175
a(I2
g93
tp176
a(I3
g96
tp177
a(I0
g93
tp178
a(I1
g125
tp179
a(I2
g123
tp180
a(I3
g96
tp181
a(I0
g93
tp182
a(I1
g93
tp183
a(I2
g123
tp184
a(I3
g96
tp185
a(I0
g123
tp186
a(I1
g93
tp187
a(I2
g96
tp188
a(I3
g123
tp189
a(I0
g123
tp190
a(I1
g93
tp191
a(I2
g96
tp192
a(I3
g123
tp193
a(I0
g96
tp194
a(I1
g93
tp195
a(I2
g96
tp196
a(I3
g125
tp197
a(I0
g123
tp198
a(I1
g93
tp199
a(I2
g96
tp200
a(I3
g123
tp201
a(I0
g123
tp202
a(I1
g123
tp203
a(I2
g96
tp204
a(I3
g123
tp205
a(I0
g93
tp206
a(I1
g123
tp207
a(I2
g123
tp208
a(I3
g125
tp209
a(I0
g93
tp210
a(I1
g96
tp211
a(I2
g123
tp212
a(I3
g125
tp213
a(I0
g93
tp214
a(I1
g123
tp215
a(I2
g96
tp216
a(I3
g125
tp217
a(I0
g93
tp218
a(I1
g123
tp219
a(I2
g96
tp220
a(I3
g125
tp221
a(I0
g125
tp222
a(I1
g93
tp223
a(I2
g96
tp224
a(I3
g96
tp225
a(I0
g125
tp226
a(I1
g93
tp227
a(I2
g96
tp228
a(I3
g96
tp229
a(I0
g125
tp230
a(I1
g93
tp231
a(I2
g96
tp232
a(I3
g123
tp233
a(I0
g125
tp234
a(I1
g93
tp235
a(I2
g96
tp236
a(I3
g125
tp237
a(I0
g96
tp238
a(I1
g125
tp239
a(I2
g96
tp240
a(I3
g125
tp241
a(I0
g146
tp242
a(I1
g125
tp243
a(I2
g123
tp244
a(I3
g96
tp245
a(I0
g125
tp246
a(I1
g125
tp247
a(I2
g123
tp248
a(I3
g96
tp249
a(I0
g125
tp250
a(I1
g93
tp251
a(I2
g93
tp252
a(I3
g123
tp253
a(I0
g125
tp254
a(I1
g93
tp255
a(I2
g93
tp256
a(I3
g123
tp257
a(I0
g123
tp258
a(I1
g93
tp259
a(I2
g93
tp260
a(I3
g123
tp261
a(I0
g123
tp262
a(I1
g123
tp263
a(I2
g93
tp264
a(I3
g123
tp265
a(I0
g93
tp266
a(I1
g123
tp267
a(I2
g123
tp268
a(I3
g125
tp269
a(I0
g93
tp270
a(I1
g125
tp271
a(I2
g123
tp272
a(I3
g125
tp273
a(I0
g93
tp274
a(I1
g125
tp275
a(I2
g123
tp276
a(I3
g96
tp277
a(I0
g93
tp278
a(I1
g125
tp279
a(I2
g123
tp280
a(I3
g125
tp281
a(I0
g123
tp282
a(I1
g123
tp283
a(I2
g123
tp284
a(I3
g125
tp285
a(I0
g93
tp286
a(I1
g123
tp287
a(I2
g125
tp288
a(I3
g125
tp289
a(I0
g93
tp290
a(I1
g123
tp291
a(I2
g125
tp292
a(I3
g123
tp293
a(I0
g93
tp294
a(I1
g125
tp295
a(I2
g125
tp296
a(I3
g123
tp297
a(I0
g93
tp298
a(I1
g123
tp299
a(I2
g96
tp300
a(I3
g123
tp301
a(I0
g93
tp302
a(I1
g146
tp303
a(I2
g96
tp304
a(I3
g123
tp305
a(I0
g93
tp306
a(I1
g125
tp307
a(I2
g96
tp308
a(I3
g123
tp309
a(I0
g93
tp310
a(I1
g125
tp311
a(I2
g96
tp312
a(I3
g125
tp313
a(I0
g123
tp314
a(I1
g123
tp315
a(I2
g96
tp316
a(I3
g125
tp317
a(I0
g123
tp318
a(I1
g146
tp319
a(I2
g96
tp320
a(I3
g125
tp321
a(I0
g123
tp322
a(I1
g125
tp323
a(I2
g96
tp324
a(I3
g125
tp325
a(I0
g123
tp326
a(I1
g123
tp327
a(I2
g96
tp328
a(I3
g125
tp329
a(I0
g96
tp330
a(I1
g146
tp331
a(I2
g123
tp332
a(I3
g125
tp333
a(I0
g123
tp334
a(I1
g125
tp335
a(I2
g96
tp336
a(I3
g93
tp337
a(I0
g123
tp338
a(I1
g146
tp339
a(I2
g125
tp340
a(I3
g93
tp341
a(I0
g123
tp342
a(I1
g123
tp343
a(I2
g96
tp344
a(I3
g93
tp345
a(I0
g123
tp346
a(I1
g125
tp347
a(I2
g96
tp348
a(I3
g93
tp349
a(I0
g123
tp350
a(I1
g123
tp351
a(I2
g96
tp352
a(I3
g93
tp353
a(I0
g123
tp354
a(I1
g125
tp355
a(I2
g96
tp356
a(I3
g93
tp357
a(I0
g96
tp358
a(I1
g96
tp359
a(I2
g123
tp360
a(I3
g123
tp361
a(I0
g96
tp362
a(I1
g96
tp363
a(I2
g93
tp364
a(I3
g93
tp365
a(I0
g125
tp366
a(I1
g96
tp367
a(I2
g125
tp368
a(I3
g123
tp369
a(I0
g123
tp370
a(I1
g123
tp371
a(I2
g93
tp372
a(I3
g93
tp373
a(I0
g123
tp374
a(I1
g96
tp375
a(I2
g93
tp376
a(I3
g93
tp377
a(I0
g96
tp378
a(I1
g96
tp379
a(I2
g93
tp380
a(I3
g93
tp381
a(I0
g96
tp382
a(I1
g96
tp383
a(I2
g123
tp384
a(I3
g123
tp385
a(I0
g125
tp386
a(I1
g96
tp387
a(I2
g93
tp388
a(I3
g123
tp389
a(I0
g125
tp390
a(I1
g96
tp391
a(I2
g123
tp392
a(I3
g123
tp393
a(I0
g96
tp394
a(I1
g96
tp395
a(I2
g93
tp396
a(I3
g123
tp397
a(I0
g123
tp398
a(I1
g96
tp399
a(I2
g93
tp400
a(I3
g125
tp401
a(I0
g123
tp402
a(I1
g96
tp403
a(I2
g93
tp404
a(I3
g123
tp405
a(I0
g123
tp406
a(I1
g96
tp407
a(I2
g93
tp408
a(I3
g125
tp409
a(I0
g123
tp410
a(I1
g96
tp411
a(I2
g93
tp412
a(I3
g123
tp413
a(I0
g93
tp414
a(I1
g96
tp415
a(I2
g125
tp416
a(I3
g125
tp417
a(I0
g93
tp418
a(I1
g96
tp419
a(I2
g123
tp420
a(I3
g123
tp421
a(I0
g93
tp422
a(I1
g123
tp423
a(I2
g96
tp424
a(I3
g125
tp425
a(I0
g93
tp426
a(I1
g123
tp427
a(I2
g93
tp428
a(I3
g123
tp429
a(I0
g93
tp430
a(I1
g93
tp431
a(I2
g123
tp432
a(I3
g123
tp433
a(I0
g93
tp434
a(I1
g93
tp435
a(I2
g125
tp436
a(I3
g125
tp437
a(I0
g125
tp438
a(I1
g93
tp439
a(I2
g125
tp440
a(I3
g125
tp441
a(I0
g125
tp442
a(I1
g93
tp443
a(I2
g123
tp444
a(I3
g123
tp445
a(I0
g96
tp446
a(I1
g93
tp447
a(I2
g123
tp448
a(I3
g123
tp449
a(I0
g96
tp450
a(I1
g125
tp451
a(I2
g125
tp452
a(I3
g125
tp453
a(I0
g96
tp454
a(I1
g125
tp455
a(I2
g96
tp456
a(I3
g125
tp457
a(I0
g96
tp458
a(I1
g96
tp459
a(I2
g93
tp460
a(I3
g123
tp461
a(I0
g96
tp462
a(I1
g96
tp463
a(I2
g125
tp464
a(I3
g125
tp465
a(I0
g123
tp466
a(I1
g96
tp467
a(I2
g123
tp468
a(I3
g123
tp469
a(I0
g123
tp470
a(I1
g96
tp471
a(I2
g96
tp472
a(I3
g125
tp473
a(I0
g93
tp474
a(I1
g96
tp475
a(I2
g93
tp476
a(I3
g123
tp477
a(I0
g93
tp478
a(I1
g123
tp479
a(I2
g123
tp480
a(I3
g123
tp481
a(I0
g93
tp482
a(I1
g123
tp483
a(I2
g125
tp484
a(I3
g125
tp485
a(I0
g93
tp486
a(I1
g93
tp487
a(I2
g125
tp488
a(I3
g125
tp489
a(I0
g93
tp490
a(I1
g93
tp491
a(I2
g123
tp492
a(I3
g123
tp493
a(I0
g125
tp494
a(I1
g93
tp495
a(I2
g123
tp496
a(I3
g123
tp497
a(I0
g93
tp498
a(I1
g93
tp499
a(I2
g125
tp500
a(I3
g125
tp501
a(I0
g93
tp502
a(I1
g93
tp503
a(I2
g96
tp504
a(I3
g125
tp505
a(I0
g93
tp506
a(I1
g125
tp507
a(I2
g93
tp508
a(I3
g123
tp509
a(I0
g123
tp510
a(I1
g93
tp511
a(I2
g123
tp512
a(I3
g123
tp513
a(I0
g93
tp514
a(I1
g93
tp515
a(I2
g125
tp516
a(I3
g125
tp517
a(I0
g93
tp518
a(I1
g93
tp519
a(I2
g125
tp520
a(I3
g125
tp521
a(I0
g93
tp522
a(I1
g123
tp523
a(I2
g123
tp524
a(I3
g123
tp525
a(I0
g93
tp526
a(I1
g93
tp527
a(I2
g123
tp528
a(I3
g123
tp529
a(I0
g93
tp530
a(I1
g93
tp531
a(I2
g125
tp532
a(I3
g125
tp533
a(I0
g93
tp534
a(I1
g93
tp535
a(I2
g125
tp536
a(I3
g125
tp537
a(I0
g93
tp538
a(I1
g93
tp539
a(I2
g123
tp540
a(I3
g123
tp541
a(I0
g125
tp542
a(I1
g93
tp543
a(I2
g125
tp544
a(I3
g125
tp545
a(I0
g125
tp546
a(I1
g93
tp547
a(I2
g125
tp548
a(I3
g123
tp549
a(I0
g125
tp550
a(I1
g93
tp551
a(I2
g96
tp552
a(I3
g125
tp553
a(I0
g125
tp554
a(I1
g125
tp555
a(I2
g125
tp556
a(I3
g125
tp557
a(I0
g125
tp558
a(I1
g125
tp559
a(I2
g125
tp560
a(I3
g125
tp561
a(I0
g125
tp562
asS'length'
p563
I1200
sS'agents'
p564
(lp565
(igame
Agent
p566
(dp567
S'index'
p568
I0
sba(igame
Agent
p569
(dp570
g568
I0
sba(igame
Agent
p571
(dp572
g568
I0
sba(igame
Agent
p573
(dp574
g568
I0
sbasS'redTeamName'
p575
S'Red'
p576
s.