(dp1
S'layout'
p2
(ilayout
Layout
p3
(dp4
S'capsules'
p5
(lp6
sS'numGhosts'
p7
I4
sS'food'
p8
(igame
Grid
p9
(dp10
S'CELLS_PER_INT'
p11
I30
sS'width'
p12
I18
sS'data'
p13
(lp14
(lp15
I00
aI00
aI00
aI00
aI00
aI00
aI00
aI00
aI00
aI00
aI00
aI00
aI00
aI00
aI00
aI00
aI00
aI00
aI00
aI00
aa(lp16
I00
aI00
aI00
aI00
aI00
aI00
aI00
aI00
aI00
aI00
aI00
aI00
aI00
aI00
aI00
aI00
aI00
aI00
aI00
aI00
aa(lp17
I00
aI00
aI00
aI00
aI00
aI00
aI00
aI00
aI00
aI00
aI00
aI00
aI00
aI00
aI00
aI00
aI00
aI00
aI00
aI00
aa(lp18
I00
aI01
aI00
aI01
aI01
aI01
aI01
aI00
aI01
aI00
aI00
aI01
aI00
aI01
aI01
aI01
aI01
aI01
aI00
aI00
aa(lp19
I00
aI01
aI00
aI00
aI01
aI00
aI00
aI00
aI01
aI00
aI00
aI01
aI00
aI00
aI00
aI00
aI01
aI01
aI00
aI00
aa(lp20
I00
aI01
aI00
aI00
aI01
aI00
aI00
aI00
aI00
aI00
aI00
aI00
aI00
aI00
aI00
aI00
aI01
aI01
aI00
aI00
aa(lp21
I00
aI01
aI00
aI00
aI01
aI00
aI00
aI00
aI00
aI00
aI00
aI00
aI01
aI01
aI00
aI00
aI01
aI01
aI00
aI00
aa(lp22
I00
aI00
aI00
aI00
aI01
aI01
aI00
aI00
aI01
aI01
aI01
aI01
aI00
aI00
aI01
aI00
aI01
aI01
aI00
aI00
aa(lp23
I00
aI00
aI00
aI00
aI00
aI00
aI00
aI00
aI00
aI00
aI00
aI00
aI00
aI00
aI00
aI00
aI00
aI00
aI00
aI00
aa(lp24
I00
aI00
aI00
aI00
aI00
aI00
aI00
aI00
aI00
aI00
aI00
aI00
aI00
aI00
aI00
aI00
aI00
aI00
aI00
aI00
aa(lp25
I00
aI00
aI00
aI00
aI01
aI01
aI00
aI00
aI01
aI01
aI01
aI01
aI00
aI00
aI01
aI00
aI01
aI01
aI00
aI00
aa(lp26
I00
aI01
aI00
aI00
aI01
aI00
aI00
aI00
aI00
aI00
aI00
aI00
aI01
aI01
aI00
aI00
aI01
aI01
aI00
aI00
aa(lp27
I00
aI01
aI00
aI00
aI01
aI00
aI00
aI00
aI00
aI00
aI00
aI00
aI00
aI00
aI00
aI00
aI01
aI01
aI00
aI00
aa(lp28
I00
aI01
aI00
aI00
aI01
aI00
aI00
aI00
aI01
aI00
aI00
aI01
aI00
aI00
aI00
aI00
aI01
aI01
aI00
aI00
aa(lp29
I00
aI01
aI00
aI01
aI01
aI01
aI01
aI00
aI01
aI00
aI00
aI01
aI00
aI01
aI01
aI01
aI01
aI01
aI00
aI00
aa(lp30
I00
aI00
aI00
aI00
aI00
aI00
aI00
aI00
aI00
aI00
aI00
aI00
aI00
aI00
aI00
aI00
aI00
aI00
aI00
aI00
aa(lp31
I00
aI00
aI00
aI00
aI00
aI00
aI00
aI00
aI00
aI00
aI00
aI00
aI00
aI00
aI00
aI00
aI00
aI00
aI00
aI00
aa(lp32
I00
aI00
aI00
aI00
aI00
aI00
aI00
aI00
aI00
aI00
aI00
aI00
aI00
aI00
aI00
aI00
aI00
aI00
aI00
aI00
aasS'height'
p33
I20
sbsS'agentPositions'
p34
(lp35
(I00
(I1
I18
tp36
tp37
a(I00
(I16
I18
tp38
tp39
a(I00
(I1
I1
tp40
tp41
a(I00
(I16
I1
tp42
tp43
asg33
I20
sg12
I18
sS'walls'
p44
(igame
Grid
p45
(dp46
g11
I30
sg12
I18
sg13
(lp47
(lp48
I01
aI01
aI01
aI01
aI01
aI01
aI01
aI01
aI01
aI01
aI01
aI01
aI01
aI01
aI01
aI01
aI01
aI01
aI01
aI01
aa(lp49
I01
aI00
aI00
aI00
aI00
aI00
aI00
aI00
aI00
aI01
aI01
aI00
aI00
aI00
aI00
aI00
aI00
aI00
aI00
aI01
aa(lp50
I01
aI01
aI01
aI01
aI01
aI01
aI01
aI01
aI00
aI01
aI01
aI00
aI01
aI01
aI01
aI01
aI01
aI01
aI01
aI01
aa(lp51
I01
aI00
aI00
aI00
aI00
aI00
aI00
aI00
aI00
aI01
aI01
aI00
aI00
aI00
aI00
aI00
aI00
aI00
aI01
aI01
aa(lp52
I01
aI00
aI01
aI01
aI00
aI01
aI01
aI01
aI00
aI00
aI00
aI00
aI01
aI01
aI01
aI01
aI00
aI00
aI01
aI01
aa(lp53
I01
aI00
aI01
aI01
aI00
aI00
aI00
aI00
aI00
aI00
aI00
aI00
aI00
aI00
aI00
aI00
aI00
aI00
aI01
aI01
aa(lp54
I01
aI00
aI00
aI00
aI00
aI01
aI01
aI00
aI01
aI01
aI01
aI01
aI00
aI00
aI00
aI01
aI00
aI00
aI01
aI01
aa(lp55
I01
aI00
aI01
aI01
aI00
aI00
aI01
aI00
aI00
aI00
aI00
aI00
aI00
aI01
aI00
aI01
aI00
aI00
aI01
aI01
aa(lp56
I01
aI00
aI00
aI00
aI00
aI00
aI01
aI00
aI01
aI01
aI01
aI01
aI00
aI01
aI00
aI01
aI00
aI00
aI01
aI01
aa(lp57
I01
aI00
aI00
aI00
aI00
aI00
aI01
aI00
aI01
aI01
aI01
aI01
aI00
aI01
aI00
aI01
aI00
aI00
aI01
aI01
aa(lp58
I01
aI00
aI01
aI01
aI00
aI00
aI01
aI00
aI00
aI00
aI00
aI00
aI00
aI01
aI00
aI01
aI00
aI00
aI01
aI01
aa(lp59
I01
aI00
aI00
aI00
aI00
aI01
aI01
aI00
aI01
aI01
aI01
aI01
aI00
aI00
aI00
aI01
aI00
aI00
aI01
aI01
aa(lp60
I01
aI00
aI01
aI01
aI00
aI00
aI00
aI00
aI00
aI00
aI00
aI00
aI00
aI00
aI00
aI00
aI00
aI00
aI01
aI01
aa(lp61
I01
aI00
aI01
aI01
aI00
aI01
aI01
aI01
aI00
aI00
aI00
aI00
aI01
aI01
aI01
aI01
aI00
aI00
aI01
aI01
aa(lp62
I01
aI00
aI00
aI00
aI00
aI00
aI00
aI00
aI00
aI01
aI01
aI00
aI00
aI00
aI00
aI00
aI00
aI00
aI01
aI01
aa(lp63
I01
aI01
aI01
aI01
aI01
aI01
aI01
aI01
aI00
aI01
aI01
aI00
aI01
aI01
aI01
aI01
aI01
aI01
aI01
aI01
aa(lp64
I01
aI00
aI00
aI00
aI00
aI00
aI00
aI00
aI00
aI01
aI01
aI00
aI00
aI00
aI00
aI00
aI00
aI00
aI00
aI01
aa(lp65
I01
aI01
aI01
aI01
aI01
aI01
aI01
aI01
aI01
aI01
aI01
aI01
aI01
aI01
aI01
aI01
aI01
aI01
aI01
aI01
aasg33
I20
sbsS'totalFood'
p66
I74
sS'layoutText'
p67
(lp68
S'%%%%%%%%%%%%%%%%%%'
p69
aS'%1%%%%%%%%%%%%%%2%'
p70
aS'% %.....  .....% %'
p71
aS'% %.....  .....% %'
p72
aS'% %.% %%%%%% %.% %'
p73
aS'% %.%  .  .  %.% %'
p74
aS'% %.% .%%%%. %.% %'
p75
aS'% % % .    . % % %'
p76
aS'%  .. %.%%.% ..  %'
p77
aS'%%%%  %.%%.%  %%%%'
p78
aS'%%%%  %.%%.%  %%%%'
p79
aS'%  .. %.%%.% ..  %'
p80
aS'% % %        % % %'
p81
aS'% %.% %%%%%% %.% %'
p82
aS'% %.% %.  .% %.% %'
p83
aS'% %.....  .....% %'
p84
aS'% %.%% %  % %%.% %'
p85
aS'% % %% %  % %% % %'
p86
aS'%3%....    ....%4%'
p87
aS'%%%%%%%%%%%%%%%%%%'
p88
asbsS'blueTeamName'
p89
S'Blue'
p90
sS'actions'
p91
(lp92
(I1
S'South'
p93
tp94
a(I2
S'North'
p95
tp96
a(I3
g95
tp97
a(I0
g93
tp98
a(I1
g93
tp99
a(I2
g95
tp100
a(I3
g95
tp101
a(I0
g93
tp102
a(I1
g93
tp103
a(I2
g95
tp104
a(I3
g95
tp105
a(I0
g93
tp106
a(I1
g93
tp107
a(I2
g95
tp108
a(I3
g95
tp109
a(I0
g93
tp110
a(I1
g93
tp111
a(I2
g95
tp112
a(I3
g95
tp113
a(I0
g93
tp114
a(I1
g93
tp115
a(I2
g95
tp116
a(I3
g95
tp117
a(I0
g93
tp118
a(I1
g93
tp119
a(I2
g95
tp120
a(I3
g95
tp121
a(I0
g93
tp122
a(I1
S'West'
p123
tp124
a(I2
S'East'
p125
tp126
a(I3
g123
tp127
a(I0
g125
tp128
a(I1
g123
tp129
a(I2
g125
tp130
a(I3
g123
tp131
a(I0
g125
tp132
a(I1
g123
tp133
a(I2
g125
tp134
a(I3
g93
tp135
a(I0
g125
tp136
a(I1
g123
tp137
a(I2
g125
tp138
a(I3
g93
tp139
a(I0
g125
tp140
a(I1
g95
tp141
a(I2
g93
tp142
a(I3
g93
tp143
a(I0
g95
tp144
a(I1
g123
tp145
a(I2
g125
tp146
a(I3
g93
tp147
a(I0
g125
tp148
a(I1
g95
tp149
a(I2
g125
tp150
a(I3
g123
tp151
a(I0
g125
tp152
a(I1
g95
tp153
a(I2
g125
tp154
a(I3
g123
tp155
a(I0
g125
tp156
a(I1
g123
tp157
a(I2
g123
tp158
a(I3
g123
tp159
a(I0
g125
tp160
a(I1
g123
tp161
a(I2
g95
tp162
a(I3
g125
tp163
a(I0
g125
tp164
a(I1
g123
tp165
a(I2
g95
tp166
a(I3
g95
tp167
a(I0
g125
tp168
a(I1
g123
tp169
a(I2
g95
tp170
a(I3
g95
tp171
a(I0
g95
tp172
a(I1
g123
tp173
a(I2
g95
tp174
a(I3
g95
tp175
a(I0
g95
tp176
a(I1
g93
tp177
a(I2
g95
tp178
a(I3
g123
tp179
a(I0
g123
tp180
a(I1
S'Stop'
p181
tp182
a(I2
g123
tp183
a(I3
g123
tp184
a(I0
g123
tp185
a(I1
g95
tp186
a(I2
g95
tp187
a(I3
g95
tp188
a(I0
g123
tp189
a(I1
g123
tp190
a(I2
g95
tp191
a(I3
g95
tp192
a(I0
g123
tp193
a(I1
g95
tp194
a(I2
g123
tp195
a(I3
g95
tp196
a(I0
g123
tp197
a(I1
g95
tp198
a(I2
g95
tp199
a(I3
g95
tp200
a(I0
g123
tp201
a(I1
g95
tp202
a(I2
g95
tp203
a(I3
g95
tp204
a(I0
g95
tp205
a(I1
g125
tp206
a(I2
g95
tp207
a(I3
g123
tp208
a(I0
g95
tp209
a(I1
g125
tp210
a(I2
g125
tp211
a(I3
g125
tp212
a(I0
g125
tp213
a(I1
g93
tp214
a(I2
g125
tp215
a(I3
g93
tp216
a(I0
g125
tp217
a(I1
g93
tp218
a(I2
g93
tp219
a(I3
g93
tp220
a(I0
g125
tp221
a(I1
g93
tp222
a(I2
g123
tp223
a(I3
g93
tp224
a(I0
g125
tp225
a(I1
g93
tp226
a(I2
g123
tp227
a(I3
g93
tp228
a(I0
g125
tp229
a(I1
g93
tp230
a(I2
g93
tp231
a(I3
g93
tp232
a(I0
g95
tp233
a(I1
g93
tp234
a(I2
g93
tp235
a(I3
g123
tp236
a(I0
g125
tp237
a(I1
g93
tp238
a(I2
g125
tp239
a(I3
g125
tp240
a(I0
g93
tp241
a(I1
g93
tp242
a(I2
g93
tp243
a(I3
g95
tp244
a(I0
g125
tp245
a(I1
g123
tp246
a(I2
g93
tp247
a(I3
g95
tp248
a(I0
g95
tp249
a(I1
g123
tp250
a(I2
g125
tp251
a(I3
g95
tp252
a(I0
g125
tp253
a(I1
g181
tp254
a(I2
g125
tp255
a(I3
g95
tp256
a(I0
g125
tp257
a(I1
g125
tp258
a(I2
g123
tp259
a(I3
g95
tp260
a(I0
g93
tp261
a(I1
g181
tp262
a(I2
g93
tp263
a(I3
g125
tp264
a(I0
g93
tp265
a(I1
g123
tp266
a(I2
g93
tp267
a(I3
g95
tp268
a(I0
g95
tp269
a(I1
g123
tp270
a(I2
g93
tp271
a(I3
g125
tp272
a(I0
g95
tp273
a(I1
g123
tp274
a(I2
g93
tp275
a(I3
g95
tp276
a(I0
g123
tp277
a(I1
g95
tp278
a(I2
g93
tp279
a(I3
g95
tp280
a(I0
g93
tp281
a(I1
g123
tp282
a(I2
g125
tp283
a(I3
g95
tp284
a(I0
g123
tp285
a(I1
g123
tp286
a(I2
g123
tp287
a(I3
g123
tp288
a(I0
g93
tp289
a(I1
g123
tp290
a(I2
g95
tp291
a(I3
g123
tp292
a(I0
g93
tp293
a(I1
g123
tp294
a(I2
g95
tp295
a(I3
g123
tp296
a(I0
g93
tp297
a(I1
g123
tp298
a(I2
g95
tp299
a(I3
g95
tp300
a(I0
g93
tp301
a(I1
g123
tp302
a(I2
g95
tp303
a(I3
g125
tp304
a(I0
g93
tp305
a(I1
g95
tp306
a(I2
g95
tp307
a(I3
g125
tp308
a(I0
g93
tp309
a(I1
g95
tp310
a(I2
g123
tp311
a(I3
g93
tp312
a(I0
g93
tp313
a(I1
g123
tp314
a(I2
g123
tp315
a(I3
g123
tp316
a(I0
g125
tp317
a(I1
g95
tp318
a(I2
g95
tp319
a(I3
g123
tp320
a(I0
g125
tp321
a(I1
g95
tp322
a(I2
g95
tp323
a(I3
g95
tp324
a(I0
g125
tp325
a(I1
g123
tp326
a(I2
g95
tp327
a(I3
g125
tp328
a(I0
g125
tp329
a(I1
g123
tp330
a(I2
g95
tp331
a(I3
g125
tp332
a(I0
g95
tp333
a(I1
g95
tp334
a(I2
g123
tp335
a(I3
g125
tp336
a(I0
g95
tp337
a(I1
g181
tp338
a(I2
g95
tp339
a(I3
g93
tp340
a(I0
g95
tp341
a(I1
g93
tp342
a(I2
g123
tp343
a(I3
g123
tp344
a(I0
g95
tp345
a(I1
g93
tp346
a(I2
g93
tp347
a(I3
g123
tp348
a(I0
g95
tp349
a(I1
g93
tp350
a(I2
g93
tp351
a(I3
g95
tp352
a(I0
g123
tp353
a(I1
g93
tp354
a(I2
g93
tp355
a(I3
g125
tp356
a(I0
g123
tp357
a(I1
g93
tp358
a(I2
g93
tp359
a(I3
g125
tp360
a(I0
g93
tp361
a(I1
g93
tp362
a(I2
g93
tp363
a(I3
g93
tp364
a(I0
g93
tp365
a(I1
g125
tp366
a(I2
g93
tp367
a(I3
g125
tp368
a(I0
g93
tp369
a(I1
g93
tp370
a(I2
g125
tp371
a(I3
g125
tp372
a(I0
g93
tp373
a(I1
g93
tp374
a(I2
g93
tp375
a(I3
g95
tp376
a(I0
g93
tp377
a(I1
g93
tp378
a(I2
g93
tp379
a(I3
g123
tp380
a(I0
g125
tp381
a(I1
g123
tp382
a(I2
g93
tp383
a(I3
g93
tp384
a(I0
g93
tp385
a(I1
g93
tp386
a(I2
g123
tp387
a(I3
g125
tp388
a(I0
g93
tp389
a(I1
g93
tp390
a(I2
g93
tp391
a(I3
g95
tp392
a(I0
g93
tp393
a(I1
g93
tp394
a(I2
g93
tp395
a(I3
g123
tp396
a(I0
g123
tp397
a(I1
g93
tp398
a(I2
g93
tp399
a(I3
g123
tp400
a(I0
g93
tp401
a(I1
g125
tp402
a(I2
g93
tp403
a(I3
g123
tp404
a(I0
g93
tp405
a(I1
g125
tp406
a(I2
g125
tp407
a(I3
g93
tp408
a(I0
g93
tp409
a(I1
g125
tp410
a(I2
g125
tp411
a(I3
g125
tp412
a(I0
g93
tp413
a(I1
g125
tp414
a(I2
g125
tp415
a(I3
g125
tp416
a(I0
g125
tp417
a(I1
g95
tp418
a(I2
g125
tp419
a(I3
g95
tp420
a(I0
g125
tp421
a(I1
g125
tp422
a(I2
g125
tp423
a(I3
g123
tp424
a(I0
g125
tp425
a(I1
g125
tp426
a(I2
g123
tp427
a(I3
g93
tp428
a(I0
g123
tp429
a(I1
g125
tp430
a(I2
g123
tp431
a(I3
g125
tp432
a(I0
g95
tp433
a(I1
g123
tp434
a(I2
g123
tp435
a(I3
g95
tp436
a(I0
g95
tp437
a(I1
g123
tp438
a(I2
g125
tp439
a(I3
g125
tp440
a(I0
g93
tp441
a(I1
g123
tp442
a(I2
g125
tp443
a(I3
g93
tp444
a(I0
g93
tp445
a(I1
g93
tp446
a(I2
g123
tp447
a(I3
g93
tp448
a(I0
g125
tp449
a(I1
g93
tp450
a(I2
g123
tp451
a(I3
g93
tp452
a(I0
g125
tp453
a(I1
g93
tp454
a(I2
g95
tp455
a(I3
g93
tp456
a(I0
g125
tp457
a(I1
g93
tp458
a(I2
g95
tp459
a(I3
g93
tp460
a(I0
g125
tp461
a(I1
g93
tp462
a(I2
g95
tp463
a(I3
g93
tp464
a(I0
g125
tp465
a(I1
g93
tp466
a(I2
g95
tp467
a(I3
g123
tp468
a(I0
g125
tp469
a(I1
g93
tp470
a(I2
g95
tp471
a(I3
g93
tp472
a(I0
g125
tp473
a(I1
g93
tp474
a(I2
g95
tp475
a(I3
g93
tp476
a(I0
g125
tp477
a(I1
g123
tp478
a(I2
g95
tp479
a(I3
g123
tp480
a(I0
g125
tp481
a(I1
g123
tp482
a(I2
g95
tp483
a(I3
g95
tp484
a(I0
g95
tp485
a(I1
g123
tp486
a(I2
g125
tp487
a(I3
g95
tp488
a(I0
g95
tp489
a(I1
g123
tp490
a(I2
g125
tp491
a(I3
g95
tp492
a(I0
g95
tp493
a(I1
g93
tp494
a(I2
g125
tp495
a(I3
g93
tp496
a(I0
g95
tp497
a(I1
g93
tp498
a(I2
g123
tp499
a(I3
g125
tp500
a(I0
g125
tp501
a(I1
g93
tp502
a(I2
g93
tp503
a(I3
g93
tp504
a(I0
g125
tp505
a(I1
g93
tp506
a(I2
g93
tp507
a(I3
g93
tp508
a(I0
g93
tp509
a(I1
g123
tp510
a(I2
g93
tp511
a(I3
g93
tp512
a(I0
g93
tp513
a(I1
g123
tp514
a(I2
g93
tp515
a(I3
g125
tp516
a(I0
g93
tp517
a(I1
g123
tp518
a(I2
g93
tp519
a(I3
g125
tp520
a(I0
g93
tp521
a(I1
g181
tp522
a(I2
g125
tp523
a(I3
g125
tp524
a(I0
g93
tp525
a(I1
g123
tp526
a(I2
g123
tp527
a(I3
g93
tp528
a(I0
g93
tp529
a(I1
g93
tp530
a(I2
g95
tp531
a(I3
g93
tp532
a(I0
g93
tp533
a(I1
g93
tp534
a(I2
g95
tp535
a(I3
g93
tp536
a(I0
g95
tp537
a(I1
g93
tp538
a(I2
g95
tp539
a(I3
g93
tp540
a(I0
g93
tp541
a(I1
g93
tp542
a(I2
g95
tp543
a(I3
g93
tp544
a(I0
g95
tp545
a(I1
g93
tp546
a(I2
g95
tp547
a(I3
g93
tp548
a(I0
g93
tp549
a(I1
g93
tp550
a(I2
g125
tp551
a(I3
g93
tp552
a(I0
g93
tp553
a(I1
g93
tp554
a(I2
g123
tp555
a(I3
g95
tp556
a(I0
g93
tp557
a(I1
g123
tp558
a(I2
g93
tp559
a(I3
g95
tp560
a(I0
g93
tp561
a(I1
g123
tp562
a(I2
g93
tp563
a(I3
g95
tp564
a(I0
g93
tp565
a(I1
g123
tp566
a(I2
g93
tp567
a(I3
g95
tp568
a(I0
g93
tp569
a(I1
g123
tp570
a(I2
g93
tp571
a(I3
g95
tp572
a(I0
g93
tp573
a(I1
g95
tp574
a(I2
g93
tp575
a(I3
g95
tp576
a(I0
g125
tp577
a(I1
g123
tp578
a(I2
g125
tp579
a(I3
g95
tp580
a(I0
g125
tp581
a(I1
g123
tp582
a(I2
g123
tp583
a(I3
g123
tp584
a(I0
g125
tp585
a(I1
g123
tp586
a(I2
g95
tp587
a(I3
g123
tp588
a(I0
g125
tp589
a(I1
g123
tp590
a(I2
g95
tp591
a(I3
g93
tp592
a(I0
g95
tp593
a(I1
g123
tp594
a(I2
g95
tp595
a(I3
g93
tp596
a(I0
g125
tp597
a(I1
g93
tp598
a(I2
g95
tp599
a(I3
g93
tp600
a(I0
g125
tp601
a(I1
g93
tp602
a(I2
g95
tp603
a(I3
g93
tp604
a(I0
g125
tp605
a(I1
g93
tp606
a(I2
g125
tp607
a(I3
g93
tp608
a(I0
g125
tp609
a(I1
g93
tp610
a(I2
g123
tp611
a(I3
g93
tp612
a(I0
g125
tp613
a(I1
g93
tp614
a(I2
g93
tp615
a(I3
g93
tp616
a(I0
g93
tp617
a(I1
g93
tp618
a(I2
g93
tp619
a(I3
g123
tp620
a(I0
g93
tp621
a(I1
g93
tp622
a(I2
g93
tp623
a(I3
g123
tp624
a(I0
g93
tp625
a(I1
g93
tp626
a(I2
g93
tp627
a(I3
g123
tp628
a(I0
g93
tp629
a(I1
g123
tp630
a(I2
g93
tp631
a(I3
g123
tp632
a(I0
g93
tp633
a(I1
g123
tp634
a(I2
g125
tp635
a(I3
g123
tp636
a(I0
g125
tp637
a(I1
g123
tp638
a(I2
g123
tp639
a(I3
g95
tp640
a(I0
g125
tp641
a(I1
g123
tp642
a(I2
g95
tp643
a(I3
g95
tp644
a(I0
g95
tp645
a(I1
g95
tp646
a(I2
g95
tp647
a(I3
g95
tp648
a(I0
g125
tp649
a(I1
g123
tp650
a(I2
g95
tp651
a(I3
g125
tp652
a(I0
g95
tp653
a(I1
g123
tp654
a(I2
g95
tp655
a(I3
g125
tp656
a(I0
g123
tp657
a(I1
g123
tp658
a(I2
g95
tp659
a(I3
g125
tp660
a(I0
g95
tp661
a(I1
g181
tp662
a(I2
g125
tp663
a(I3
g95
tp664
a(I0
g125
tp665
a(I1
g123
tp666
a(I2
g123
tp667
a(I3
g95
tp668
a(I0
g95
tp669
a(I1
g93
tp670
a(I2
g93
tp671
a(I3
g95
tp672
a(I0
g125
tp673
a(I1
g93
tp674
a(I2
g93
tp675
a(I3
g123
tp676
a(I0
g95
tp677
a(I1
g93
tp678
a(I2
g93
tp679
a(I3
g125
tp680
a(I0
g95
tp681
a(I1
g93
tp682
a(I2
g93
tp683
a(I3
g95
tp684
a(I0
g95
tp685
a(I1
g93
tp686
a(I2
g93
tp687
a(I3
g125
tp688
a(I0
g95
tp689
a(I1
g93
tp690
a(I2
g125
tp691
a(I3
g95
tp692
a(I0
g95
tp693
a(I1
g93
tp694
a(I2
g123
tp695
a(I3
g95
tp696
a(I0
g123
tp697
a(I1
g123
tp698
a(I2
g95
tp699
a(I3
g123
tp700
a(I0
g95
tp701
a(I1
g123
tp702
a(I2
g95
tp703
a(I3
g95
tp704
a(I0
g123
tp705
a(I1
g123
tp706
a(I2
g95
tp707
a(I3
g125
tp708
a(I0
g123
tp709
a(I1
g123
tp710
a(I2
g95
tp711
a(I3
g125
tp712
a(I0
g123
tp713
a(I1
g95
tp714
a(I2
g95
tp715
a(I3
g95
tp716
a(I0
g123
tp717
a(I1
g123
tp718
a(I2
g125
tp719
a(I3
g95
tp720
a(I0
g123
tp721
a(I1
g125
tp722
a(I2
g123
tp723
a(I3
g95
tp724
a(I0
g123
tp725
a(I1
g123
tp726
a(I2
g93
tp727
a(I3
g95
tp728
a(I0
g123
tp729
a(I1
g123
tp730
a(I2
g93
tp731
a(I3
g95
tp732
a(I0
g123
tp733
a(I1
g123
tp734
a(I2
g93
tp735
a(I3
g95
tp736
a(I0
g123
tp737
a(I1
g123
tp738
a(I2
g95
tp739
a(I3
g123
tp740
a(I0
g93
tp741
a(I1
g123
tp742
a(I2
g95
tp743
a(I3
g123
tp744
a(I0
g125
tp745
a(I1
g125
tp746
a(I2
g95
tp747
a(I3
g123
tp748
a(I0
g93
tp749
a(I1
g125
tp750
a(I2
g93
tp751
a(I3
g123
tp752
a(I0
g95
tp753
a(I1
g123
tp754
a(I2
g95
tp755
a(I3
g123
tp756
a(I0
g93
tp757
a(I1
g123
tp758
a(I2
g93
tp759
a(I3
g93
tp760
a(I0
g93
tp761
a(I1
g93
tp762
a(I2
g93
tp763
a(I3
g125
tp764
a(I0
g125
tp765
a(I1
g93
tp766
a(I2
g93
tp767
a(I3
g95
tp768
a(I0
g125
tp769
a(I1
g93
tp770
a(I2
g93
tp771
a(I3
g125
tp772
a(I0
g125
tp773
a(I1
g93
tp774
a(I2
g93
tp775
a(I3
g93
tp776
a(I0
g123
tp777
a(I1
g93
tp778
a(I2
g125
tp779
a(I3
g125
tp780
a(I0
g123
tp781
a(I1
g93
tp782
a(I2
g123
tp783
a(I3
g125
tp784
a(I0
g93
tp785
a(I1
g93
tp786
a(I2
g95
tp787
a(I3
g125
tp788
a(I0
g93
tp789
a(I1
g123
tp790
a(I2
g95
tp791
a(I3
g95
tp792
a(I0
g125
tp793
a(I1
g123
tp794
a(I2
g95
tp795
a(I3
g123
tp796
a(I0
g125
tp797
a(I1
g123
tp798
a(I2
g95
tp799
a(I3
g93
tp800
a(I0
g125
tp801
a(I1
g123
tp802
a(I2
g95
tp803
a(I3
g123
tp804
a(I0
g123
tp805
a(I1
g125
tp806
a(I2
g125
tp807
a(I3
g95
tp808
a(I0
g123
tp809
a(I1
g123
tp810
a(I2
g123
tp811
a(I3
g123
tp812
a(I0
g123
tp813
a(I1
g95
tp814
a(I2
g93
tp815
a(I3
g123
tp816
a(I0
g95
tp817
a(I1
g123
tp818
a(I2
g93
tp819
a(I3
g93
tp820
a(I0
g95
tp821
a(I1
g123
tp822
a(I2
g93
tp823
a(I3
g125
tp824
a(I0
g125
tp825
a(I1
g123
tp826
a(I2
g93
tp827
a(I3
g125
tp828
a(I0
g125
tp829
a(I1
g123
tp830
a(I2
g95
tp831
a(I3
g93
tp832
a(I0
g123
tp833
a(I1
g123
tp834
a(I2
g95
tp835
a(I3
g93
tp836
a(I0
g123
tp837
a(I1
g181
tp838
a(I2
g95
tp839
a(I3
g123
tp840
a(I0
g93
tp841
a(I1
g125
tp842
a(I2
g95
tp843
a(I3
g123
tp844
a(I0
g93
tp845
a(I1
g125
tp846
a(I2
g93
tp847
a(I3
g123
tp848
a(I0
g123
tp849
a(I1
g123
tp850
a(I2
g95
tp851
a(I3
g125
tp852
a(I0
g125
tp853
a(I1
g125
tp854
a(I2
g93
tp855
a(I3
g125
tp856
a(I0
g95
tp857
a(I1
g123
tp858
a(I2
g95
tp859
a(I3
g125
tp860
a(I0
g93
tp861
a(I1
g125
tp862
a(I2
g93
tp863
a(I3
g95
tp864
a(I0
g123
tp865
a(I1
g123
tp866
a(I2
g95
tp867
a(I3
g95
tp868
a(I0
g125
tp869
a(I1
g125
tp870
a(I2
g93
tp871
a(I3
g125
tp872
a(I0
g95
tp873
a(I1
g123
tp874
a(I2
g95
tp875
a(I3
g95
tp876
a(I0
g93
tp877
a(I1
g125
tp878
a(I2
g93
tp879
a(I3
g123
tp880
a(I0
g123
tp881
a(I1
g123
tp882
a(I2
g95
tp883
a(I3
g93
tp884
a(I0
g125
tp885
a(I1
g125
tp886
a(I2
g93
tp887
a(I3
g125
tp888
a(I0
g95
tp889
a(I1
g123
tp890
a(I2
g95
tp891
a(I3
g125
tp892
a(I0
g93
tp893
a(I1
g125
tp894
a(I2
g93
tp895
a(I3
g95
tp896
a(I0
g123
tp897
a(I1
g123
tp898
a(I2
g95
tp899
a(I3
g123
tp900
a(I0
g125
tp901
a(I1
g125
tp902
a(I2
g93
tp903
a(I3
g93
tp904
a(I0
g95
tp905
a(I1
g123
tp906
a(I2
g95
tp907
a(I3
g125
tp908
a(I0
g93
tp909
a(I1
g125
tp910
a(I2
g93
tp911
a(I3
g95
tp912
a(I0
g123
tp913
a(I1
g123
tp914
a(I2
g95
tp915
a(I3
g123
tp916
a(I0
g125
tp917
a(I1
g125
tp918
a(I2
g93
tp919
a(I3
g123
tp920
a(I0
g95
tp921
a(I1
g123
tp922
a(I2
g95
tp923
a(I3
g93
tp924
a(I0
g93
tp925
a(I1
g125
tp926
a(I2
g93
tp927
a(I3
g93
tp928
a(I0
g123
tp929
a(I1
g123
tp930
a(I2
g95
tp931
a(I3
g93
tp932
a(I0
g125
tp933
a(I1
g125
tp934
a(I2
g93
tp935
a(I3
g93
tp936
a(I0
g95
tp937
a(I1
g123
tp938
a(I2
g95
tp939
a(I3
g123
tp940
a(I0
g93
tp941
a(I1
g125
tp942
a(I2
g93
tp943
a(I3
g95
tp944
a(I0
g123
tp945
a(I1
g123
tp946
a(I2
g95
tp947
a(I3
g125
tp948
a(I0
g125
tp949
a(I1
g125
tp950
a(I2
g93
tp951
a(I3
g93
tp952
a(I0
g95
tp953
a(I1
g123
tp954
a(I2
g95
tp955
a(I3
g123
tp956
a(I0
g93
tp957
a(I1
g125
tp958
a(I2
g93
tp959
a(I3
g93
tp960
a(I0
g123
tp961
a(I1
g123
tp962
a(I2
g95
tp963
a(I3
g123
tp964
a(I0
g125
tp965
a(I1
g125
tp966
a(I2
g93
tp967
a(I3
g93
tp968
a(I0
g95
tp969
a(I1
g123
tp970
a(I2
g95
tp971
a(I3
g93
tp972
a(I0
g93
tp973
a(I1
g125
tp974
a(I2
g93
tp975
a(I3
g93
tp976
a(I0
g123
tp977
a(I1
g123
tp978
a(I2
g95
tp979
a(I3
g93
tp980
a(I0
g125
tp981
a(I1
g125
tp982
a(I2
g93
tp983
a(I3
g93
tp984
a(I0
g95
tp985
a(I1
g123
tp986
a(I2
g95
tp987
a(I3
g125
tp988
a(I0
g93
tp989
a(I1
g125
tp990
a(I2
g93
tp991
a(I3
g125
tp992
a(I0
g123
tp993
a(I1
g123
tp994
a(I2
g95
tp995
a(I3
g95
tp996
a(I0
g125
tp997
a(I1
g125
tp998
a(I2
g93
tp999
a(I3
g95
tp1000
a(I0
g95
tp1001
a(I1
g123
tp1002
a(I2
g95
tp1003
a(I3
g125
tp1004
a(I0
g93
tp1005
a(I1
g125
tp1006
a(I2
g93
tp1007
a(I3
g95
tp1008
a(I0
g123
tp1009
a(I1
g123
tp1010
a(I2
g95
tp1011
a(I3
g95
tp1012
a(I0
g125
tp1013
a(I1
g125
tp1014
a(I2
g93
tp1015
a(I3
g125
tp1016
a(I0
g95
tp1017
a(I1
g123
tp1018
a(I2
g95
tp1019
a(I3
g95
tp1020
a(I0
g93
tp1021
a(I1
g125
tp1022
a(I2
g93
tp1023
a(I3
g95
tp1024
a(I0
g123
tp1025
a(I1
g123
tp1026
a(I2
g95
tp1027
a(I3
g95
tp1028
a(I0
g125
tp1029
a(I1
g125
tp1030
a(I2
g93
tp1031
a(I3
g95
tp1032
a(I0
g95
tp1033
a(I1
g123
tp1034
a(I2
g95
tp1035
a(I3
g95
tp1036
a(I0
g93
tp1037
a(I1
g125
tp1038
a(I2
g93
tp1039
a(I3
g123
tp1040
a(I0
g123
tp1041
a(I1
g123
tp1042
a(I2
g95
tp1043
a(I3
g95
tp1044
a(I0
g125
tp1045
a(I1
g125
tp1046
a(I2
g93
tp1047
a(I3
g125
tp1048
a(I0
g95
tp1049
a(I1
g123
tp1050
a(I2
g95
tp1051
a(I3
g93
tp1052
a(I0
g93
tp1053
a(I1
g125
tp1054
a(I2
g93
tp1055
a(I3
g93
tp1056
a(I0
g123
tp1057
a(I1
g123
tp1058
a(I2
g95
tp1059
a(I3
g93
tp1060
a(I0
g125
tp1061
a(I1
g125
tp1062
a(I2
g93
tp1063
a(I3
g93
tp1064
a(I0
g95
tp1065
a(I1
g123
tp1066
a(I2
g95
tp1067
a(I3
g93
tp1068
a(I0
g93
tp1069
a(I1
g125
tp1070
a(I2
g93
tp1071
a(I3
g93
tp1072
a(I0
g123
tp1073
a(I1
g123
tp1074
a(I2
g95
tp1075
a(I3
g125
tp1076
a(I0
g125
tp1077
a(I1
g125
tp1078
a(I2
g93
tp1079
a(I3
g125
tp1080
a(I0
g95
tp1081
a(I1
g123
tp1082
a(I2
g95
tp1083
a(I3
g95
tp1084
a(I0
g93
tp1085
a(I1
g125
tp1086
a(I2
g93
tp1087
a(I3
g95
tp1088
a(I0
g123
tp1089
a(I1
g123
tp1090
a(I2
g95
tp1091
a(I3
g95
tp1092
a(I0
g125
tp1093
a(I1
g125
tp1094
a(I2
g93
tp1095
a(I3
g95
tp1096
a(I0
g95
tp1097
a(I1
g123
tp1098
a(I2
g95
tp1099
a(I3
g95
tp1100
a(I0
g93
tp1101
a(I1
g125
tp1102
a(I2
g93
tp1103
a(I3
g95
tp1104
a(I0
g123
tp1105
a(I1
g123
tp1106
a(I2
g95
tp1107
a(I3
g95
tp1108
a(I0
g125
tp1109
a(I1
g125
tp1110
a(I2
g93
tp1111
a(I3
g93
tp1112
a(I0
g95
tp1113
a(I1
g123
tp1114
a(I2
g95
tp1115
a(I3
g93
tp1116
a(I0
g93
tp1117
a(I1
g125
tp1118
a(I2
g93
tp1119
a(I3
g93
tp1120
a(I0
g123
tp1121
a(I1
g123
tp1122
a(I2
g95
tp1123
a(I3
g93
tp1124
a(I0
g125
tp1125
a(I1
g125
tp1126
a(I2
g93
tp1127
a(I3
g93
tp1128
a(I0
g95
tp1129
a(I1
g123
tp1130
a(I2
g95
tp1131
a(I3
g93
tp1132
a(I0
g93
tp1133
a(I1
g125
tp1134
a(I2
g93
tp1135
a(I3
g93
tp1136
a(I0
g123
tp1137
a(I1
g123
tp1138
a(I2
g95
tp1139
a(I3
g123
tp1140
a(I0
g125
tp1141
a(I1
g125
tp1142
a(I2
g93
tp1143
a(I3
g123
tp1144
a(I0
g95
tp1145
a(I1
g123
tp1146
a(I2
g95
tp1147
a(I3
g123
tp1148
a(I0
g93
tp1149
a(I1
g125
tp1150
a(I2
g93
tp1151
a(I3
g123
tp1152
a(I0
g123
tp1153
a(I1
g123
tp1154
a(I2
g95
tp1155
a(I3
g93
tp1156
a(I0
g125
tp1157
a(I1
g125
tp1158
a(I2
g93
tp1159
a(I3
g125
tp1160
a(I0
g95
tp1161
a(I1
g123
tp1162
a(I2
g95
tp1163
a(I3
g93
tp1164
a(I0
g93
tp1165
a(I1
g125
tp1166
a(I2
g93
tp1167
a(I3
g123
tp1168
a(I0
g123
tp1169
a(I1
g123
tp1170
a(I2
g95
tp1171
a(I3
g93
tp1172
a(I0
g125
tp1173
a(I1
g125
tp1174
a(I2
g93
tp1175
a(I3
g125
tp1176
a(I0
g95
tp1177
a(I1
g123
tp1178
a(I2
g95
tp1179
a(I3
g125
tp1180
a(I0
g93
tp1181
a(I1
g125
tp1182
a(I2
g93
tp1183
a(I3
g125
tp1184
a(I0
g123
tp1185
a(I1
g123
tp1186
a(I2
g95
tp1187
a(I3
g125
tp1188
a(I0
g125
tp1189
a(I1
g125
tp1190
a(I2
g93
tp1191
a(I3
g93
tp1192
a(I0
g95
tp1193
a(I1
g123
tp1194
a(I2
g95
tp1195
a(I3
g93
tp1196
a(I0
g93
tp1197
a(I1
g125
tp1198
a(I2
g93
tp1199
a(I3
g93
tp1200
a(I0
g123
tp1201
a(I1
g123
tp1202
a(I2
g95
tp1203
a(I3
g93
tp1204
a(I0
g125
tp1205
a(I1
g125
tp1206
a(I2
g93
tp1207
a(I3
g93
tp1208
a(I0
g95
tp1209
a(I1
g123
tp1210
a(I2
g95
tp1211
a(I3
g93
tp1212
a(I0
g93
tp1213
a(I1
g125
tp1214
a(I2
g93
tp1215
a(I3
g93
tp1216
a(I0
g123
tp1217
a(I1
g123
tp1218
a(I2
g95
tp1219
a(I3
g95
tp1220
a(I0
g125
tp1221
a(I1
g125
tp1222
a(I2
g93
tp1223
a(I3
g95
tp1224
a(I0
g95
tp1225
a(I1
g123
tp1226
a(I2
g95
tp1227
a(I3
g95
tp1228
a(I0
g93
tp1229
a(I1
g125
tp1230
a(I2
g93
tp1231
a(I3
g95
tp1232
a(I0
g123
tp1233
a(I1
g123
tp1234
a(I2
g95
tp1235
a(I3
g95
tp1236
a(I0
g125
tp1237
a(I1
g125
tp1238
a(I2
g93
tp1239
a(I3
g95
tp1240
a(I0
g95
tp1241
a(I1
g123
tp1242
a(I2
g95
tp1243
a(I3
g95
tp1244
a(I0
g93
tp1245
a(I1
g125
tp1246
a(I2
g93
tp1247
a(I3
g123
tp1248
a(I0
g123
tp1249
a(I1
g123
tp1250
a(I2
g95
tp1251
a(I3
g123
tp1252
a(I0
g125
tp1253
a(I1
g125
tp1254
a(I2
g93
tp1255
a(I3
g93
tp1256
a(I0
g95
tp1257
a(I1
g123
tp1258
a(I2
g95
tp1259
a(I3
g93
tp1260
a(I0
g93
tp1261
a(I1
g125
tp1262
a(I2
g93
tp1263
a(I3
g93
tp1264
a(I0
g123
tp1265
a(I1
g123
tp1266
a(I2
g95
tp1267
a(I3
g93
tp1268
a(I0
g125
tp1269
a(I1
g125
tp1270
a(I2
g93
tp1271
a(I3
g123
tp1272
a(I0
g95
tp1273
a(I1
g123
tp1274
a(I2
g95
tp1275
a(I3
g123
tp1276
a(I0
g93
tp1277
a(I1
g125
tp1278
a(I2
g93
tp1279
a(I3
g123
tp1280
a(I0
g123
tp1281
a(I1
g123
tp1282
a(I2
g95
tp1283
a(I3
g123
tp1284
a(I0
g125
tp1285
a(I1
g125
tp1286
a(I2
g93
tp1287
a(I3
g123
tp1288
a(I0
g95
tp1289
a(I1
g123
tp1290
a(I2
g95
tp1291
a(I3
g93
tp1292
a(I0
g93
tp1293
a(I1
g125
tp1294
a(I2
g93
tp1295
a(I3
g93
tp1296
a(I0
g123
tp1297
asS'length'
p1298
I1200
sS'agents'
p1299
(lp1300
(igame
Agent
p1301
(dp1302
S'index'
p1303
I0
sba(igame
Agent
p1304
(dp1305
g1303
I0
sba(igame
Agent
p1306
(dp1307
g1303
I0
sba(igame
Agent
p1308
(dp1309
g1303
I0
sbasS'redTeamName'
p1310
S'Red'
p1311
s.