(dp1
S'layout'
p2
(ilayout
Layout
p3
(dp4
S'capsules'
p5
(lp6
sS'numGhosts'
p7
I4
sS'food'
p8
(igame
Grid
p9
(dp10
S'CELLS_PER_INT'
p11
I30
sS'width'
p12
I18
sS'data'
p13
(lp14
(lp15
I00
aI00
aI00
aI00
aI00
aI00
aI00
aI00
aI00
aI00
aI00
aI00
aI00
aI00
aI00
aI00
aI00
aI00
aI00
aI00
aa(lp16
I00
aI00
aI00
aI00
aI00
aI00
aI00
aI00
aI00
aI00
aI00
aI00
aI00
aI00
aI00
aI00
aI00
aI00
aI00
aI00
aa(lp17
I00
aI00
aI00
aI00
aI00
aI00
aI00
aI00
aI00
aI00
aI00
aI00
aI00
aI00
aI00
aI00
aI00
aI00
aI00
aI00
aa(lp18
I00
aI01
aI00
aI01
aI01
aI01
aI01
aI00
aI01
aI00
aI00
aI01
aI00
aI01
aI01
aI01
aI01
aI01
aI00
aI00
aa(lp19
I00
aI01
aI00
aI00
aI01
aI00
aI00
aI00
aI01
aI00
aI00
aI01
aI00
aI00
aI00
aI00
aI01
aI01
aI00
aI00
aa(lp20
I00
aI01
aI00
aI00
aI01
aI00
aI00
aI00
aI00
aI00
aI00
aI00
aI00
aI00
aI00
aI00
aI01
aI01
aI00
aI00
aa(lp21
I00
aI01
aI00
aI00
aI01
aI00
aI00
aI00
aI00
aI00
aI00
aI00
aI01
aI01
aI00
aI00
aI01
aI01
aI00
aI00
aa(lp22
I00
aI00
aI00
aI00
aI01
aI01
aI00
aI00
aI01
aI01
aI01
aI01
aI00
aI00
aI01
aI00
aI01
aI01
aI00
aI00
aa(lp23
I00
aI00
aI00
aI00
aI00
aI00
aI00
aI00
aI00
aI00
aI00
aI00
aI00
aI00
aI00
aI00
aI00
aI00
aI00
aI00
aa(lp24
I00
aI00
aI00
aI00
aI00
aI00
aI00
aI00
aI00
aI00
aI00
aI00
aI00
aI00
aI00
aI00
aI00
aI00
aI00
aI00
aa(lp25
I00
aI00
aI00
aI00
aI01
aI01
aI00
aI00
aI01
aI01
aI01
aI01
aI00
aI00
aI01
aI00
aI01
aI01
aI00
aI00
aa(lp26
I00
aI01
aI00
aI00
aI01
aI00
aI00
aI00
aI00
aI00
aI00
aI00
aI01
aI01
aI00
aI00
aI01
aI01
aI00
aI00
aa(lp27
I00
aI01
aI00
aI00
aI01
aI00
aI00
aI00
aI00
aI00
aI00
aI00
aI00
aI00
aI00
aI00
aI01
aI01
aI00
aI00
aa(lp28
I00
aI01
aI00
aI00
aI01
aI00
aI00
aI00
aI01
aI00
aI00
aI01
aI00
aI00
aI00
aI00
aI01
aI01
aI00
aI00
aa(lp29
I00
aI01
aI00
aI01
aI01
aI01
aI01
aI00
aI01
aI00
aI00
aI01
aI00
aI01
aI01
aI01
aI01
aI01
aI00
aI00
aa(lp30
I00
aI00
aI00
aI00
aI00
aI00
aI00
aI00
aI00
aI00
aI00
aI00
aI00
aI00
aI00
aI00
aI00
aI00
aI00
aI00
aa(lp31
I00
aI00
aI00
aI00
aI00
aI00
aI00
aI00
aI00
aI00
aI00
aI00
aI00
aI00
aI00
aI00
aI00
aI00
aI00
aI00
aa(lp32
I00
aI00
aI00
aI00
aI00
aI00
aI00
aI00
aI00
aI00
aI00
aI00
aI00
aI00
aI00
aI00
aI00
aI00
aI00
aI00
aasS'height'
p33
I20
sbsS'agentPositions'
p34
(lp35
(I00
(I1
I18
tp36
tp37
a(I00
(I16
I18
tp38
tp39
a(I00
(I1
I1
tp40
tp41
a(I00
(I16
I1
tp42
tp43
asg33
I20
sg12
I18
sS'walls'
p44
(igame
Grid
p45
(dp46
g11
I30
sg12
I18
sg13
(lp47
(lp48
I01
aI01
aI01
aI01
aI01
aI01
aI01
aI01
aI01
aI01
aI01
aI01
aI01
aI01
aI01
aI01
aI01
aI01
aI01
aI01
aa(lp49
I01
aI00
aI00
aI00
aI00
aI00
aI00
aI00
aI00
aI01
aI01
aI00
aI00
aI00
aI00
aI00
aI00
aI00
aI00
aI01
aa(lp50
I01
aI01
aI01
aI01
aI01
aI01
aI01
aI01
aI00
aI01
aI01
aI00
aI01
aI01
aI01
aI01
aI01
aI01
aI01
aI01
aa(lp51
I01
aI00
aI00
aI00
aI00
aI00
aI00
aI00
aI00
aI01
aI01
aI00
aI00
aI00
aI00
aI00
aI00
aI00
aI01
aI01
aa(lp52
I01
aI00
aI01
aI01
aI00
aI01
aI01
aI01
aI00
aI00
aI00
aI00
aI01
aI01
aI01
aI01
aI00
aI00
aI01
aI01
aa(lp53
I01
aI00
aI01
aI01
aI00
aI00
aI00
aI00
aI00
aI00
aI00
aI00
aI00
aI00
aI00
aI00
aI00
aI00
aI01
aI01
aa(lp54
I01
aI00
aI00
aI00
aI00
aI01
aI01
aI00
aI01
aI01
aI01
aI01
aI00
aI00
aI00
aI01
aI00
aI00
aI01
aI01
aa(lp55
I01
aI00
aI01
aI01
aI00
aI00
aI01
aI00
aI00
aI00
aI00
aI00
aI00
aI01
aI00
aI01
aI00
aI00
aI01
aI01
aa(lp56
I01
aI00
aI00
aI00
aI00
aI00
aI01
aI00
aI01
aI01
aI01
aI01
aI00
aI01
aI00
aI01
aI00
aI00
aI01
aI01
aa(lp57
I01
aI00
aI00
aI00
aI00
aI00
aI01
aI00
aI01
aI01
aI01
aI01
aI00
aI01
aI00
aI01
aI00
aI00
aI01
aI01
aa(lp58
I01
aI00
aI01
aI01
aI00
aI00
aI01
aI00
aI00
aI00
aI00
aI00
aI00
aI01
aI00
aI01
aI00
aI00
aI01
aI01
aa(lp59
I01
aI00
aI00
aI00
aI00
aI01
aI01
aI00
aI01
aI01
aI01
aI01
aI00
aI00
aI00
aI01
aI00
aI00
aI01
aI01
aa(lp60
I01
aI00
aI01
aI01
aI00
aI00
aI00
aI00
aI00
aI00
aI00
aI00
aI00
aI00
aI00
aI00
aI00
aI00
aI01
aI01
aa(lp61
I01
aI00
aI01
aI01
aI00
aI01
aI01
aI01
aI00
aI00
aI00
aI00
aI01
aI01
aI01
aI01
aI00
aI00
aI01
aI01
aa(lp62
I01
aI00
aI00
aI00
aI00
aI00
aI00
aI00
aI00
aI01
aI01
aI00
aI00
aI00
aI00
aI00
aI00
aI00
aI01
aI01
aa(lp63
I01
aI01
aI01
aI01
aI01
aI01
aI01
aI01
aI00
aI01
aI01
aI00
aI01
aI01
aI01
aI01
aI01
aI01
aI01
aI01
aa(lp64
I01
aI00
aI00
aI00
aI00
aI00
aI00
aI00
aI00
aI01
aI01
aI00
aI00
aI00
aI00
aI00
aI00
aI00
aI00
aI01
aa(lp65
I01
aI01
aI01
aI01
aI01
aI01
aI01
aI01
aI01
aI01
aI01
aI01
aI01
aI01
aI01
aI01
aI01
aI01
aI01
aI01
aasg33
I20
sbsS'totalFood'
p66
I74
sS'layoutText'
p67
(lp68
S'%%%%%%%%%%%%%%%%%%'
p69
aS'%1%%%%%%%%%%%%%%2%'
p70
aS'% %.....  .....% %'
p71
aS'% %.....  .....% %'
p72
aS'% %.% %%%%%% %.% %'
p73
aS'% %.%  .  .  %.% %'
p74
aS'% %.% .%%%%. %.% %'
p75
aS'% % % .    . % % %'
p76
aS'%  .. %.%%.% ..  %'
p77
aS'%%%%  %.%%.%  %%%%'
p78
aS'%%%%  %.%%.%  %%%%'
p79
aS'%  .. %.%%.% ..  %'
p80
aS'% % %        % % %'
p81
aS'% %.% %%%%%% %.% %'
p82
aS'% %.% %.  .% %.% %'
p83
aS'% %.....  .....% %'
p84
aS'% %.%% %  % %%.% %'
p85
aS'% % %% %  % %% % %'
p86
aS'%3%....    ....%4%'
p87
aS'%%%%%%%%%%%%%%%%%%'
p88
asbsS'blueTeamName'
p89
S'Blue'
p90
sS'actions'
p91
(lp92
(I1
S'South'
p93
tp94
a(I2
S'North'
p95
tp96
a(I3
g95
tp97
a(I0
g93
tp98
a(I1
g93
tp99
a(I2
g95
tp100
a(I3
g95
tp101
a(I0
g93
tp102
a(I1
g93
tp103
a(I2
g95
tp104
a(I3
g95
tp105
a(I0
g93
tp106
a(I1
g93
tp107
a(I2
g95
tp108
a(I3
g95
tp109
a(I0
g93
tp110
a(I1
g93
tp111
a(I2
g95
tp112
a(I3
g95
tp113
a(I0
g93
tp114
a(I1
g93
tp115
a(I2
g95
tp116
a(I3
g95
tp117
a(I0
g93
tp118
a(I1
g93
tp119
a(I2
g95
tp120
a(I3
g95
tp121
a(I0
g93
tp122
a(I1
S'West'
p123
tp124
a(I2
S'East'
p125
tp126
a(I3
g123
tp127
a(I0
g125
tp128
a(I1
g123
tp129
a(I2
g125
tp130
a(I3
g123
tp131
a(I0
g125
tp132
a(I1
g123
tp133
a(I2
g125
tp134
a(I3
g123
tp135
a(I0
g125
tp136
a(I1
g123
tp137
a(I2
g95
tp138
a(I3
g123
tp139
a(I0
g125
tp140
a(I1
g95
tp141
a(I2
g95
tp142
a(I3
g93
tp143
a(I0
g95
tp144
a(I1
g123
tp145
a(I2
g125
tp146
a(I3
g123
tp147
a(I0
g125
tp148
a(I1
g123
tp149
a(I2
g93
tp150
a(I3
g123
tp151
a(I0
g95
tp152
a(I1
g123
tp153
a(I2
g123
tp154
a(I3
g123
tp155
a(I0
g95
tp156
a(I1
g125
tp157
a(I2
g93
tp158
a(I3
g123
tp159
a(I0
g125
tp160
a(I1
g123
tp161
a(I2
g125
tp162
a(I3
g125
tp163
a(I0
g125
tp164
a(I1
g123
tp165
a(I2
g95
tp166
a(I3
g123
tp167
a(I0
g125
tp168
a(I1
g123
tp169
a(I2
g95
tp170
a(I3
g123
tp171
a(I0
g125
tp172
a(I1
g123
tp173
a(I2
g95
tp174
a(I3
g123
tp175
a(I0
g125
tp176
a(I1
g95
tp177
a(I2
g95
tp178
a(I3
g123
tp179
a(I0
g93
tp180
a(I1
g95
tp181
a(I2
g125
tp182
a(I3
g93
tp183
a(I0
g93
tp184
a(I1
g125
tp185
a(I2
g95
tp186
a(I3
g93
tp187
a(I0
g123
tp188
a(I1
g125
tp189
a(I2
g95
tp190
a(I3
g93
tp191
a(I0
g93
tp192
a(I1
g125
tp193
a(I2
g123
tp194
a(I3
g123
tp195
a(I0
g93
tp196
a(I1
g125
tp197
a(I2
g95
tp198
a(I3
g123
tp199
a(I0
g93
tp200
a(I1
g125
tp201
a(I2
g95
tp202
a(I3
g93
tp203
a(I0
g93
tp204
a(I1
g93
tp205
a(I2
g125
tp206
a(I3
g93
tp207
a(I0
g93
tp208
a(I1
g93
tp209
a(I2
g95
tp210
a(I3
g93
tp211
a(I0
g125
tp212
a(I1
g123
tp213
a(I2
g125
tp214
a(I3
g125
tp215
a(I0
g125
tp216
a(I1
g93
tp217
a(I2
g93
tp218
a(I3
g125
tp219
a(I0
g95
tp220
a(I1
g93
tp221
a(I2
g125
tp222
a(I3
g125
tp223
a(I0
g125
tp224
a(I1
g93
tp225
a(I2
g95
tp226
a(I3
g125
tp227
a(I0
g125
tp228
a(I1
g93
tp229
a(I2
g123
tp230
a(I3
g125
tp231
a(I0
g93
tp232
a(I1
g93
tp233
a(I2
g123
tp234
a(I3
g125
tp235
a(I0
g93
tp236
a(I1
g125
tp237
a(I2
g93
tp238
a(I3
g95
tp239
a(I0
g93
tp240
a(I1
g125
tp241
a(I2
g125
tp242
a(I3
g95
tp243
a(I0
g93
tp244
a(I1
g93
tp245
a(I2
g125
tp246
a(I3
g95
tp247
a(I0
g123
tp248
a(I1
g93
tp249
a(I2
g95
tp250
a(I3
g125
tp251
a(I0
g125
tp252
a(I1
g93
tp253
a(I2
g123
tp254
a(I3
g125
tp255
a(I0
g93
tp256
a(I1
g125
tp257
a(I2
g123
tp258
a(I3
g125
tp259
a(I0
g93
tp260
a(I1
g125
tp261
a(I2
g123
tp262
a(I3
g125
tp263
a(I0
g93
tp264
a(I1
g93
tp265
a(I2
g93
tp266
a(I3
g125
tp267
a(I0
g123
tp268
a(I1
g93
tp269
a(I2
g93
tp270
a(I3
g93
tp271
a(I0
g123
tp272
a(I1
g93
tp273
a(I2
g93
tp274
a(I3
g93
tp275
a(I0
g123
tp276
a(I1
g123
tp277
a(I2
g125
tp278
a(I3
g93
tp279
a(I0
g95
tp280
a(I1
g123
tp281
a(I2
g93
tp282
a(I3
g123
tp283
a(I0
g95
tp284
a(I1
g123
tp285
a(I2
g123
tp286
a(I3
g123
tp287
a(I0
g95
tp288
a(I1
g95
tp289
a(I2
g93
tp290
a(I3
g123
tp291
a(I0
g123
tp292
a(I1
g95
tp293
a(I2
g125
tp294
a(I3
g95
tp295
a(I0
g95
tp296
a(I1
g95
tp297
a(I2
g125
tp298
a(I3
g95
tp299
a(I0
S'Stop'
p300
tp301
a(I1
g123
tp302
a(I2
g93
tp303
a(I3
g95
tp304
a(I0
g123
tp305
a(I1
g123
tp306
a(I2
g93
tp307
a(I3
g123
tp308
a(I0
g123
tp309
a(I1
g123
tp310
a(I2
g93
tp311
a(I3
g95
tp312
a(I0
g93
tp313
a(I1
g93
tp314
a(I2
g93
tp315
a(I3
g123
tp316
a(I0
g123
tp317
a(I1
g93
tp318
a(I2
g93
tp319
a(I3
g93
tp320
a(I0
g95
tp321
a(I1
g93
tp322
a(I2
g125
tp323
a(I3
g93
tp324
a(I0
g300
tp325
a(I1
g93
tp326
a(I2
g123
tp327
a(I3
g93
tp328
a(I0
g93
tp329
a(I1
g93
tp330
a(I2
g123
tp331
a(I3
g93
tp332
a(I0
g125
tp333
a(I1
g93
tp334
a(I2
g123
tp335
a(I3
g125
tp336
a(I0
g125
tp337
a(I1
g93
tp338
a(I2
g95
tp339
a(I3
g123
tp340
a(I0
g125
tp341
a(I1
g123
tp342
a(I2
g123
tp343
a(I3
g95
tp344
a(I0
g125
tp345
a(I1
g123
tp346
a(I2
g123
tp347
a(I3
g95
tp348
a(I0
g125
tp349
a(I1
g123
tp350
a(I2
g93
tp351
a(I3
g95
tp352
a(I0
g95
tp353
a(I1
g123
tp354
a(I2
g93
tp355
a(I3
g125
tp356
a(I0
g95
tp357
a(I1
g93
tp358
a(I2
g93
tp359
a(I3
g125
tp360
a(I0
g95
tp361
a(I1
g93
tp362
a(I2
g93
tp363
a(I3
g125
tp364
a(I0
g123
tp365
a(I1
g93
tp366
a(I2
g93
tp367
a(I3
g95
tp368
a(I0
g123
tp369
a(I1
g93
tp370
a(I2
g93
tp371
a(I3
g95
tp372
a(I0
g95
tp373
a(I1
g123
tp374
a(I2
g93
tp375
a(I3
g95
tp376
a(I0
g95
tp377
a(I1
g123
tp378
a(I2
g125
tp379
a(I3
g123
tp380
a(I0
g95
tp381
a(I1
g95
tp382
a(I2
g125
tp383
a(I3
g123
tp384
a(I0
g95
tp385
a(I1
g95
tp386
a(I2
g125
tp387
a(I3
g95
tp388
a(I0
g95
tp389
a(I1
g95
tp390
a(I2
g95
tp391
a(I3
g95
tp392
a(I0
g125
tp393
a(I1
g95
tp394
a(I2
g95
tp395
a(I3
g95
tp396
a(I0
g125
tp397
a(I1
g95
tp398
a(I2
g95
tp399
a(I3
g95
tp400
a(I0
g93
tp401
a(I1
g125
tp402
a(I2
g123
tp403
a(I3
g95
tp404
a(I0
g125
tp405
a(I1
g125
tp406
a(I2
g95
tp407
a(I3
g125
tp408
a(I0
g125
tp409
a(I1
g93
tp410
a(I2
g95
tp411
a(I3
g125
tp412
a(I0
g95
tp413
a(I1
g125
tp414
a(I2
g95
tp415
a(I3
g93
tp416
a(I0
g95
tp417
a(I1
g125
tp418
a(I2
g125
tp419
a(I3
g125
tp420
a(I0
g95
tp421
a(I1
g95
tp422
a(I2
g125
tp423
a(I3
g125
tp424
a(I0
g95
tp425
a(I1
g95
tp426
a(I2
g125
tp427
a(I3
g95
tp428
a(I0
g95
tp429
a(I1
g95
tp430
a(I2
g123
tp431
a(I3
g95
tp432
a(I0
g123
tp433
a(I1
g95
tp434
a(I2
g95
tp435
a(I3
g95
tp436
a(I0
g123
tp437
a(I1
g95
tp438
a(I2
g95
tp439
a(I3
g95
tp440
a(I0
g123
tp441
a(I1
g123
tp442
a(I2
g95
tp443
a(I3
g95
tp444
a(I0
g95
tp445
a(I1
g123
tp446
a(I2
g95
tp447
a(I3
g95
tp448
a(I0
g123
tp449
a(I1
g95
tp450
a(I2
g95
tp451
a(I3
g123
tp452
a(I0
g93
tp453
a(I1
g123
tp454
a(I2
g125
tp455
a(I3
g123
tp456
a(I0
g300
tp457
a(I1
g123
tp458
a(I2
g123
tp459
a(I3
g93
tp460
a(I0
g123
tp461
a(I1
g123
tp462
a(I2
g93
tp463
a(I3
g123
tp464
a(I0
g123
tp465
a(I1
g93
tp466
a(I2
g93
tp467
a(I3
g123
tp468
a(I0
g95
tp469
a(I1
g125
tp470
a(I2
g93
tp471
a(I3
g123
tp472
a(I0
g300
tp473
a(I1
g125
tp474
a(I2
g93
tp475
a(I3
g95
tp476
a(I0
g123
tp477
a(I1
g125
tp478
a(I2
g93
tp479
a(I3
g125
tp480
a(I0
g123
tp481
a(I1
g123
tp482
a(I2
g123
tp483
a(I3
g93
tp484
a(I0
g300
tp485
a(I1
g123
tp486
a(I2
g123
tp487
a(I3
g125
tp488
a(I0
g300
tp489
a(I1
g125
tp490
a(I2
g93
tp491
a(I3
g123
tp492
a(I0
g125
tp493
a(I1
g125
tp494
a(I2
g93
tp495
a(I3
g95
tp496
a(I0
g93
tp497
a(I1
g95
tp498
a(I2
g93
tp499
a(I3
g123
tp500
a(I0
g123
tp501
a(I1
g123
tp502
a(I2
g123
tp503
a(I3
g93
tp504
a(I0
g95
tp505
a(I1
g93
tp506
a(I2
g123
tp507
a(I3
g125
tp508
a(I0
g300
tp509
a(I1
g123
tp510
a(I2
g95
tp511
a(I3
g125
tp512
a(I0
g300
tp513
a(I1
g125
tp514
a(I2
g95
tp515
a(I3
g123
tp516
a(I0
g300
tp517
a(I1
g123
tp518
a(I2
g95
tp519
a(I3
g125
tp520
a(I0
g300
tp521
a(I1
g125
tp522
a(I2
g95
tp523
a(I3
g123
tp524
a(I0
g123
tp525
a(I1
g123
tp526
a(I2
g125
tp527
a(I3
g123
tp528
a(I0
g123
tp529
a(I1
g123
tp530
a(I2
g95
tp531
a(I3
g123
tp532
a(I0
g125
tp533
a(I1
g125
tp534
a(I2
g95
tp535
a(I3
g123
tp536
a(I0
g125
tp537
a(I1
g125
tp538
a(I2
g95
tp539
a(I3
g95
tp540
a(I0
g125
tp541
a(I1
g125
tp542
a(I2
g123
tp543
a(I3
g95
tp544
a(I0
g125
tp545
a(I1
g93
tp546
a(I2
g123
tp547
a(I3
g95
tp548
a(I0
g125
tp549
a(I1
g93
tp550
a(I2
g123
tp551
a(I3
g95
tp552
a(I0
g125
tp553
a(I1
g93
tp554
a(I2
g95
tp555
a(I3
g95
tp556
a(I0
g125
tp557
a(I1
g93
tp558
a(I2
g95
tp559
a(I3
g95
tp560
a(I0
g125
tp561
a(I1
g93
tp562
a(I2
g93
tp563
a(I3
g95
tp564
a(I0
g123
tp565
a(I1
g125
tp566
a(I2
g93
tp567
a(I3
g95
tp568
a(I0
g123
tp569
a(I1
g93
tp570
a(I2
g125
tp571
a(I3
g123
tp572
a(I0
g123
tp573
a(I1
g123
tp574
a(I2
g125
tp575
a(I3
g123
tp576
a(I0
g123
tp577
asS'length'
p578
I1200
sS'agents'
p579
(lp580
(igame
Agent
p581
(dp582
S'index'
p583
I0
sba(igame
Agent
p584
(dp585
g583
I0
sba(igame
Agent
p586
(dp587
g583
I0
sba(igame
Agent
p588
(dp589
g583
I0
sbasS'redTeamName'
p590
S'Red'
p591
s.