(dp1
S'layout'
p2
(ilayout
Layout
p3
(dp4
S'capsules'
p5
(lp6
sS'numGhosts'
p7
I4
sS'food'
p8
(igame
Grid
p9
(dp10
S'CELLS_PER_INT'
p11
I30
sS'width'
p12
I18
sS'data'
p13
(lp14
(lp15
I00
aI00
aI00
aI00
aI00
aI00
aI00
aI00
aI00
aI00
aI00
aI00
aI00
aI00
aI00
aI00
aI00
aI00
aI00
aI00
aa(lp16
I00
aI00
aI00
aI00
aI00
aI00
aI00
aI00
aI00
aI00
aI00
aI00
aI00
aI00
aI00
aI00
aI00
aI00
aI00
aI00
aa(lp17
I00
aI00
aI00
aI00
aI00
aI00
aI00
aI00
aI00
aI00
aI00
aI00
aI00
aI00
aI00
aI00
aI00
aI00
aI00
aI00
aa(lp18
I00
aI01
aI00
aI01
aI01
aI01
aI01
aI00
aI01
aI00
aI00
aI01
aI00
aI01
aI01
aI01
aI01
aI01
aI00
aI00
aa(lp19
I00
aI01
aI00
aI00
aI01
aI00
aI00
aI00
aI01
aI00
aI00
aI01
aI00
aI00
aI00
aI00
aI01
aI01
aI00
aI00
aa(lp20
I00
aI01
aI00
aI00
aI01
aI00
aI00
aI00
aI00
aI00
aI00
aI00
aI00
aI00
aI00
aI00
aI01
aI01
aI00
aI00
aa(lp21
I00
aI01
aI00
aI00
aI01
aI00
aI00
aI00
aI00
aI00
aI00
aI00
aI01
aI01
aI00
aI00
aI01
aI01
aI00
aI00
aa(lp22
I00
aI00
aI00
aI00
aI01
aI01
aI00
aI00
aI01
aI01
aI01
aI01
aI00
aI00
aI01
aI00
aI01
aI01
aI00
aI00
aa(lp23
I00
aI00
aI00
aI00
aI00
aI00
aI00
aI00
aI00
aI00
aI00
aI00
aI00
aI00
aI00
aI00
aI00
aI00
aI00
aI00
aa(lp24
I00
aI00
aI00
aI00
aI00
aI00
aI00
aI00
aI00
aI00
aI00
aI00
aI00
aI00
aI00
aI00
aI00
aI00
aI00
aI00
aa(lp25
I00
aI00
aI00
aI00
aI01
aI01
aI00
aI00
aI01
aI01
aI01
aI01
aI00
aI00
aI01
aI00
aI01
aI01
aI00
aI00
aa(lp26
I00
aI01
aI00
aI00
aI01
aI00
aI00
aI00
aI00
aI00
aI00
aI00
aI01
aI01
aI00
aI00
aI01
aI01
aI00
aI00
aa(lp27
I00
aI01
aI00
aI00
aI01
aI00
aI00
aI00
aI00
aI00
aI00
aI00
aI00
aI00
aI00
aI00
aI01
aI01
aI00
aI00
aa(lp28
I00
aI01
aI00
aI00
aI01
aI00
aI00
aI00
aI01
aI00
aI00
aI01
aI00
aI00
aI00
aI00
aI01
aI01
aI00
aI00
aa(lp29
I00
aI01
aI00
aI01
aI01
aI01
aI01
aI00
aI01
aI00
aI00
aI01
aI00
aI01
aI01
aI01
aI01
aI01
aI00
aI00
aa(lp30
I00
aI00
aI00
aI00
aI00
aI00
aI00
aI00
aI00
aI00
aI00
aI00
aI00
aI00
aI00
aI00
aI00
aI00
aI00
aI00
aa(lp31
I00
aI00
aI00
aI00
aI00
aI00
aI00
aI00
aI00
aI00
aI00
aI00
aI00
aI00
aI00
aI00
aI00
aI00
aI00
aI00
aa(lp32
I00
aI00
aI00
aI00
aI00
aI00
aI00
aI00
aI00
aI00
aI00
aI00
aI00
aI00
aI00
aI00
aI00
aI00
aI00
aI00
aasS'height'
p33
I20
sbsS'agentPositions'
p34
(lp35
(I00
(I1
I18
tp36
tp37
a(I00
(I16
I18
tp38
tp39
a(I00
(I1
I1
tp40
tp41
a(I00
(I16
I1
tp42
tp43
asg33
I20
sg12
I18
sS'walls'
p44
(igame
Grid
p45
(dp46
g11
I30
sg12
I18
sg13
(lp47
(lp48
I01
aI01
aI01
aI01
aI01
aI01
aI01
aI01
aI01
aI01
aI01
aI01
aI01
aI01
aI01
aI01
aI01
aI01
aI01
aI01
aa(lp49
I01
aI00
aI00
aI00
aI00
aI00
aI00
aI00
aI00
aI01
aI01
aI00
aI00
aI00
aI00
aI00
aI00
aI00
aI00
aI01
aa(lp50
I01
aI01
aI01
aI01
aI01
aI01
aI01
aI01
aI00
aI01
aI01
aI00
aI01
aI01
aI01
aI01
aI01
aI01
aI01
aI01
aa(lp51
I01
aI00
aI00
aI00
aI00
aI00
aI00
aI00
aI00
aI01
aI01
aI00
aI00
aI00
aI00
aI00
aI00
aI00
aI01
aI01
aa(lp52
I01
aI00
aI01
aI01
aI00
aI01
aI01
aI01
aI00
aI00
aI00
aI00
aI01
aI01
aI01
aI01
aI00
aI00
aI01
aI01
aa(lp53
I01
aI00
aI01
aI01
aI00
aI00
aI00
aI00
aI00
aI00
aI00
aI00
aI00
aI00
aI00
aI00
aI00
aI00
aI01
aI01
aa(lp54
I01
aI00
aI00
aI00
aI00
aI01
aI01
aI00
aI01
aI01
aI01
aI01
aI00
aI00
aI00
aI01
aI00
aI00
aI01
aI01
aa(lp55
I01
aI00
aI01
aI01
aI00
aI00
aI01
aI00
aI00
aI00
aI00
aI00
aI00
aI01
aI00
aI01
aI00
aI00
aI01
aI01
aa(lp56
I01
aI00
aI00
aI00
aI00
aI00
aI01
aI00
aI01
aI01
aI01
aI01
aI00
aI01
aI00
aI01
aI00
aI00
aI01
aI01
aa(lp57
I01
aI00
aI00
aI00
aI00
aI00
aI01
aI00
aI01
aI01
aI01
aI01
aI00
aI01
aI00
aI01
aI00
aI00
aI01
aI01
aa(lp58
I01
aI00
aI01
aI01
aI00
aI00
aI01
aI00
aI00
aI00
aI00
aI00
aI00
aI01
aI00
aI01
aI00
aI00
aI01
aI01
aa(lp59
I01
aI00
aI00
aI00
aI00
aI01
aI01
aI00
aI01
aI01
aI01
aI01
aI00
aI00
aI00
aI01
aI00
aI00
aI01
aI01
aa(lp60
I01
aI00
aI01
aI01
aI00
aI00
aI00
aI00
aI00
aI00
aI00
aI00
aI00
aI00
aI00
aI00
aI00
aI00
aI01
aI01
aa(lp61
I01
aI00
aI01
aI01
aI00
aI01
aI01
aI01
aI00
aI00
aI00
aI00
aI01
aI01
aI01
aI01
aI00
aI00
aI01
aI01
aa(lp62
I01
aI00
aI00
aI00
aI00
aI00
aI00
aI00
aI00
aI01
aI01
aI00
aI00
aI00
aI00
aI00
aI00
aI00
aI01
aI01
aa(lp63
I01
aI01
aI01
aI01
aI01
aI01
aI01
aI01
aI00
aI01
aI01
aI00
aI01
aI01
aI01
aI01
aI01
aI01
aI01
aI01
aa(lp64
I01
aI00
aI00
aI00
aI00
aI00
aI00
aI00
aI00
aI01
aI01
aI00
aI00
aI00
aI00
aI00
aI00
aI00
aI00
aI01
aa(lp65
I01
aI01
aI01
aI01
aI01
aI01
aI01
aI01
aI01
aI01
aI01
aI01
aI01
aI01
aI01
aI01
aI01
aI01
aI01
aI01
aasg33
I20
sbsS'totalFood'
p66
I74
sS'layoutText'
p67
(lp68
S'%%%%%%%%%%%%%%%%%%'
p69
aS'%1%%%%%%%%%%%%%%2%'
p70
aS'% %.....  .....% %'
p71
aS'% %.....  .....% %'
p72
aS'% %.% %%%%%% %.% %'
p73
aS'% %.%  .  .  %.% %'
p74
aS'% %.% .%%%%. %.% %'
p75
aS'% % % .    . % % %'
p76
aS'%  .. %.%%.% ..  %'
p77
aS'%%%%  %.%%.%  %%%%'
p78
aS'%%%%  %.%%.%  %%%%'
p79
aS'%  .. %.%%.% ..  %'
p80
aS'% % %        % % %'
p81
aS'% %.% %%%%%% %.% %'
p82
aS'% %.% %.  .% %.% %'
p83
aS'% %.....  .....% %'
p84
aS'% %.%% %  % %%.% %'
p85
aS'% % %% %  % %% % %'
p86
aS'%3%....    ....%4%'
p87
aS'%%%%%%%%%%%%%%%%%%'
p88
asbsS'blueTeamName'
p89
S'Blue'
p90
sS'actions'
p91
(lp92
(I0
S'South'
p93
tp94
a(I1
g93
tp95
a(I2
S'North'
p96
tp97
a(I3
g96
tp98
a(I0
g93
tp99
a(I1
g93
tp100
a(I2
g96
tp101
a(I3
g96
tp102
a(I0
g93
tp103
a(I1
g93
tp104
a(I2
g96
tp105
a(I3
g96
tp106
a(I0
g93
tp107
a(I1
g93
tp108
a(I2
g96
tp109
a(I3
g96
tp110
a(I0
g93
tp111
a(I1
g93
tp112
a(I2
g96
tp113
a(I3
g96
tp114
a(I0
g93
tp115
a(I1
g93
tp116
a(I2
g96
tp117
a(I3
g96
tp118
a(I0
g93
tp119
a(I1
g93
tp120
a(I2
g96
tp121
a(I3
g96
tp122
a(I0
S'East'
p123
tp124
a(I1
S'West'
p125
tp126
a(I2
g123
tp127
a(I3
g125
tp128
a(I0
g123
tp129
a(I1
g125
tp130
a(I2
g123
tp131
a(I3
g125
tp132
a(I0
g123
tp133
a(I1
g125
tp134
a(I2
g123
tp135
a(I3
g125
tp136
a(I0
g123
tp137
a(I1
g93
tp138
a(I2
g123
tp139
a(I3
g125
tp140
a(I0
g96
tp141
a(I1
S'Stop'
p142
tp143
a(I2
g93
tp144
a(I3
g93
tp145
a(I0
g123
tp146
a(I1
g93
tp147
a(I2
g123
tp148
a(I3
g125
tp149
a(I0
g96
tp150
a(I1
g125
tp151
a(I2
g123
tp152
a(I3
g125
tp153
a(I0
g96
tp154
a(I1
g93
tp155
a(I2
g123
tp156
a(I3
g125
tp157
a(I0
g125
tp158
a(I1
g142
tp159
a(I2
g125
tp160
a(I3
g123
tp161
a(I0
g96
tp162
a(I1
g93
tp163
a(I2
g96
tp164
a(I3
g125
tp165
a(I0
g96
tp166
a(I1
g93
tp167
a(I2
g96
tp168
a(I3
g125
tp169
a(I0
g93
tp170
a(I1
g93
tp171
a(I2
g93
tp172
a(I3
g125
tp173
a(I0
g93
tp174
a(I1
g93
tp175
a(I2
g93
tp176
a(I3
g96
tp177
a(I0
g123
tp178
a(I1
g125
tp179
a(I2
g96
tp180
a(I3
g96
tp181
a(I0
g123
tp182
a(I1
g142
tp183
a(I2
g96
tp184
a(I3
g96
tp185
a(I0
g123
tp186
a(I1
g125
tp187
a(I2
g96
tp188
a(I3
g96
tp189
a(I0
g123
tp190
a(I1
g123
tp191
a(I2
g96
tp192
a(I3
g96
tp193
a(I0
g123
tp194
a(I1
g123
tp195
a(I2
g96
tp196
a(I3
g96
tp197
a(I0
g123
tp198
a(I1
g96
tp199
a(I2
g123
tp200
a(I3
g96
tp201
a(I0
g93
tp202
a(I1
g96
tp203
a(I2
g125
tp204
a(I3
g125
tp205
a(I0
g93
tp206
a(I1
g96
tp207
a(I2
g93
tp208
a(I3
g125
tp209
a(I0
g125
tp210
a(I1
g96
tp211
a(I2
g93
tp212
a(I3
g125
tp213
a(I0
g93
tp214
a(I1
g93
tp215
a(I2
g93
tp216
a(I3
g125
tp217
a(I0
g96
tp218
a(I1
g96
tp219
a(I2
g93
tp220
a(I3
g93
tp221
a(I0
g125
tp222
a(I1
g96
tp223
a(I2
g93
tp224
a(I3
g125
tp225
a(I0
g125
tp226
a(I1
g93
tp227
a(I2
g123
tp228
a(I3
g125
tp229
a(I0
g125
tp230
a(I1
g142
tp231
a(I2
g125
tp232
a(I3
g125
tp233
a(I0
g125
tp234
a(I1
g142
tp235
a(I2
g96
tp236
a(I3
g125
tp237
a(I0
g123
tp238
a(I1
g93
tp239
a(I2
g93
tp240
a(I3
g123
tp241
a(I0
g123
tp242
a(I1
g93
tp243
a(I2
g96
tp244
a(I3
g125
tp245
a(I0
g125
tp246
a(I1
g93
tp247
a(I2
g93
tp248
a(I3
g123
tp249
a(I0
g125
tp250
a(I1
g93
tp251
a(I2
g96
tp252
a(I3
g125
tp253
a(I0
g123
tp254
a(I1
g125
tp255
a(I2
g93
tp256
a(I3
g123
tp257
a(I0
g123
tp258
a(I1
g93
tp259
a(I2
g96
tp260
a(I3
g125
tp261
a(I0
g125
tp262
a(I1
g93
tp263
a(I2
g93
tp264
a(I3
g123
tp265
a(I0
g125
tp266
a(I1
g93
tp267
a(I2
g96
tp268
a(I3
g125
tp269
a(I0
g123
tp270
a(I1
g142
tp271
a(I2
g93
tp272
a(I3
g123
tp273
a(I0
g123
tp274
a(I1
g96
tp275
a(I2
g96
tp276
a(I3
g125
tp277
a(I0
g125
tp278
a(I1
g96
tp279
a(I2
g93
tp280
a(I3
g123
tp281
a(I0
g125
tp282
a(I1
g93
tp283
a(I2
g96
tp284
a(I3
g125
tp285
a(I0
g123
tp286
a(I1
g96
tp287
a(I2
g93
tp288
a(I3
g123
tp289
a(I0
g123
tp290
a(I1
g93
tp291
a(I2
g96
tp292
a(I3
g125
tp293
a(I0
g125
tp294
a(I1
g93
tp295
a(I2
g93
tp296
a(I3
g123
tp297
a(I0
g125
tp298
a(I1
g123
tp299
a(I2
g96
tp300
a(I3
g125
tp301
a(I0
g123
tp302
a(I1
g125
tp303
a(I2
g93
tp304
a(I3
g123
tp305
a(I0
g123
tp306
a(I1
g142
tp307
a(I2
g96
tp308
a(I3
g125
tp309
a(I0
g125
tp310
a(I1
g96
tp311
a(I2
g93
tp312
a(I3
g123
tp313
a(I0
g125
tp314
a(I1
g93
tp315
a(I2
g96
tp316
a(I3
g125
tp317
a(I0
g123
tp318
a(I1
g123
tp319
a(I2
g93
tp320
a(I3
g123
tp321
a(I0
g123
tp322
a(I1
g125
tp323
a(I2
g96
tp324
a(I3
g125
tp325
a(I0
g125
tp326
a(I1
g123
tp327
a(I2
g93
tp328
a(I3
g123
tp329
a(I0
g125
tp330
a(I1
g125
tp331
a(I2
g96
tp332
a(I3
g125
tp333
a(I0
g123
tp334
a(I1
g123
tp335
a(I2
g93
tp336
a(I3
g123
tp337
a(I0
g123
tp338
a(I1
g123
tp339
a(I2
g96
tp340
a(I3
g125
tp341
a(I0
g125
tp342
a(I1
g125
tp343
a(I2
g93
tp344
a(I3
g123
tp345
a(I0
g125
tp346
a(I1
g125
tp347
a(I2
g96
tp348
a(I3
g125
tp349
a(I0
g123
tp350
a(I1
g123
tp351
a(I2
g93
tp352
a(I3
g123
tp353
a(I0
g123
tp354
a(I1
g142
tp355
a(I2
g96
tp356
a(I3
g125
tp357
a(I0
g125
tp358
a(I1
g125
tp359
a(I2
g93
tp360
a(I3
g123
tp361
a(I0
g125
tp362
a(I1
g96
tp363
a(I2
g96
tp364
a(I3
g125
tp365
a(I0
g123
tp366
a(I1
g96
tp367
a(I2
g93
tp368
a(I3
g123
tp369
a(I0
g123
tp370
a(I1
g96
tp371
a(I2
g96
tp372
a(I3
g125
tp373
a(I0
g125
tp374
a(I1
g125
tp375
a(I2
g93
tp376
a(I3
g123
tp377
a(I0
g125
tp378
a(I1
g123
tp379
a(I2
g96
tp380
a(I3
g125
tp381
a(I0
g123
tp382
a(I1
g142
tp383
a(I2
g93
tp384
a(I3
g123
tp385
a(I0
g123
tp386
a(I1
g93
tp387
a(I2
g96
tp388
a(I3
g125
tp389
a(I0
g125
tp390
a(I1
g96
tp391
a(I2
g93
tp392
a(I3
g123
tp393
a(I0
g125
tp394
a(I1
g142
tp395
a(I2
g96
tp396
a(I3
g125
tp397
a(I0
g123
tp398
a(I1
g93
tp399
a(I2
g93
tp400
a(I3
g123
tp401
a(I0
g123
tp402
a(I1
g93
tp403
a(I2
g96
tp404
a(I3
g125
tp405
a(I0
g125
tp406
a(I1
g93
tp407
a(I2
g93
tp408
a(I3
g123
tp409
a(I0
g125
tp410
a(I1
g123
tp411
a(I2
g96
tp412
a(I3
g125
tp413
a(I0
g123
tp414
a(I1
g142
tp415
a(I2
g93
tp416
a(I3
g123
tp417
a(I0
g123
tp418
a(I1
g125
tp419
a(I2
g96
tp420
a(I3
g125
tp421
a(I0
g125
tp422
a(I1
g142
tp423
a(I2
g93
tp424
a(I3
g123
tp425
a(I0
g125
tp426
a(I1
g96
tp427
a(I2
g96
tp428
a(I3
g125
tp429
a(I0
g123
tp430
a(I1
g96
tp431
a(I2
g93
tp432
a(I3
g123
tp433
a(I0
g123
tp434
a(I1
g96
tp435
a(I2
g96
tp436
a(I3
g125
tp437
a(I0
g125
tp438
a(I1
g93
tp439
a(I2
g93
tp440
a(I3
g123
tp441
a(I0
g125
tp442
a(I1
g93
tp443
a(I2
g96
tp444
a(I3
g125
tp445
a(I0
g123
tp446
a(I1
g93
tp447
a(I2
g93
tp448
a(I3
g123
tp449
a(I0
g123
tp450
a(I1
g96
tp451
a(I2
g96
tp452
a(I3
g125
tp453
a(I0
g125
tp454
a(I1
g93
tp455
a(I2
g93
tp456
a(I3
g123
tp457
a(I0
g125
tp458
a(I1
g123
tp459
a(I2
g96
tp460
a(I3
g125
tp461
a(I0
g123
tp462
a(I1
g125
tp463
a(I2
g93
tp464
a(I3
g123
tp465
a(I0
g123
tp466
a(I1
g96
tp467
a(I2
g96
tp468
a(I3
g125
tp469
a(I0
g125
tp470
a(I1
g93
tp471
a(I2
g93
tp472
a(I3
g123
tp473
a(I0
g125
tp474
a(I1
g96
tp475
a(I2
g96
tp476
a(I3
g125
tp477
a(I0
g123
tp478
a(I1
g93
tp479
a(I2
g93
tp480
a(I3
g123
tp481
a(I0
g123
tp482
a(I1
g96
tp483
a(I2
g96
tp484
a(I3
g125
tp485
a(I0
g125
tp486
a(I1
g93
tp487
a(I2
g93
tp488
a(I3
g123
tp489
a(I0
g125
tp490
a(I1
g142
tp491
a(I2
g96
tp492
a(I3
g125
tp493
a(I0
g123
tp494
a(I1
g96
tp495
a(I2
g93
tp496
a(I3
g123
tp497
a(I0
g123
tp498
a(I1
g96
tp499
a(I2
g96
tp500
a(I3
g125
tp501
a(I0
g125
tp502
a(I1
g96
tp503
a(I2
g93
tp504
a(I3
g123
tp505
a(I0
g125
tp506
a(I1
g93
tp507
a(I2
g96
tp508
a(I3
g125
tp509
a(I0
g123
tp510
a(I1
g93
tp511
a(I2
g93
tp512
a(I3
g123
tp513
a(I0
g123
tp514
a(I1
g93
tp515
a(I2
g96
tp516
a(I3
g125
tp517
a(I0
g125
tp518
a(I1
g96
tp519
a(I2
g93
tp520
a(I3
g123
tp521
a(I0
g125
tp522
a(I1
g93
tp523
a(I2
g96
tp524
a(I3
g125
tp525
a(I0
g123
tp526
a(I1
g142
tp527
a(I2
g93
tp528
a(I3
g123
tp529
a(I0
g123
tp530
a(I1
g123
tp531
a(I2
g96
tp532
a(I3
g125
tp533
a(I0
g125
tp534
a(I1
g125
tp535
a(I2
g93
tp536
a(I3
g123
tp537
a(I0
g125
tp538
a(I1
g142
tp539
a(I2
g96
tp540
a(I3
g125
tp541
a(I0
g123
tp542
a(I1
g142
tp543
a(I2
g93
tp544
a(I3
g123
tp545
a(I0
g123
tp546
a(I1
g123
tp547
a(I2
g96
tp548
a(I3
g125
tp549
a(I0
g125
tp550
a(I1
g123
tp551
a(I2
g93
tp552
a(I3
g123
tp553
a(I0
g125
tp554
a(I1
g125
tp555
a(I2
g96
tp556
a(I3
g125
tp557
a(I0
g123
tp558
a(I1
g125
tp559
a(I2
g93
tp560
a(I3
g123
tp561
a(I0
g123
tp562
a(I1
g142
tp563
a(I2
g96
tp564
a(I3
g125
tp565
a(I0
g125
tp566
a(I1
g96
tp567
a(I2
g93
tp568
a(I3
g123
tp569
a(I0
g125
tp570
a(I1
g93
tp571
a(I2
g96
tp572
a(I3
g125
tp573
a(I0
g123
tp574
a(I1
g96
tp575
a(I2
g93
tp576
a(I3
g123
tp577
a(I0
g123
tp578
a(I1
g93
tp579
a(I2
g96
tp580
a(I3
g125
tp581
a(I0
g125
tp582
a(I1
g142
tp583
a(I2
g93
tp584
a(I3
g123
tp585
a(I0
g125
tp586
a(I1
g96
tp587
a(I2
g96
tp588
a(I3
g125
tp589
a(I0
g123
tp590
a(I1
g93
tp591
a(I2
g93
tp592
a(I3
g123
tp593
a(I0
g123
tp594
a(I1
g96
tp595
a(I2
g96
tp596
a(I3
g125
tp597
a(I0
g125
tp598
a(I1
g96
tp599
a(I2
g93
tp600
a(I3
g123
tp601
a(I0
g125
tp602
a(I1
g93
tp603
a(I2
g96
tp604
a(I3
g125
tp605
a(I0
g123
tp606
a(I1
g93
tp607
a(I2
g93
tp608
a(I3
g123
tp609
a(I0
g123
tp610
a(I1
g123
tp611
a(I2
g96
tp612
a(I3
g125
tp613
a(I0
g125
tp614
a(I1
g125
tp615
a(I2
g93
tp616
a(I3
g123
tp617
a(I0
g125
tp618
a(I1
g96
tp619
a(I2
g96
tp620
a(I3
g125
tp621
a(I0
g123
tp622
a(I1
g96
tp623
a(I2
g93
tp624
a(I3
g123
tp625
a(I0
g123
tp626
a(I1
g93
tp627
a(I2
g96
tp628
a(I3
g125
tp629
a(I0
g125
tp630
a(I1
g93
tp631
a(I2
g93
tp632
a(I3
g123
tp633
a(I0
g125
tp634
a(I1
g96
tp635
a(I2
g96
tp636
a(I3
g125
tp637
a(I0
g123
tp638
a(I1
g93
tp639
a(I2
g93
tp640
a(I3
g123
tp641
a(I0
g123
tp642
a(I1
g96
tp643
a(I2
g96
tp644
a(I3
g125
tp645
a(I0
g125
tp646
a(I1
g93
tp647
a(I2
g93
tp648
a(I3
g123
tp649
a(I0
g125
tp650
a(I1
g142
tp651
a(I2
g96
tp652
a(I3
g125
tp653
a(I0
g123
tp654
a(I1
g123
tp655
a(I2
g93
tp656
a(I3
g123
tp657
a(I0
g123
tp658
a(I1
g123
tp659
a(I2
g96
tp660
a(I3
g125
tp661
a(I0
g125
tp662
a(I1
g142
tp663
a(I2
g93
tp664
a(I3
g123
tp665
a(I0
g125
tp666
a(I1
g125
tp667
a(I2
g96
tp668
a(I3
g125
tp669
a(I0
g123
tp670
a(I1
g125
tp671
a(I2
g93
tp672
a(I3
g123
tp673
a(I0
g123
tp674
a(I1
g123
tp675
a(I2
g96
tp676
a(I3
g125
tp677
a(I0
g125
tp678
a(I1
g125
tp679
a(I2
g93
tp680
a(I3
g123
tp681
a(I0
g125
tp682
a(I1
g123
tp683
a(I2
g96
tp684
a(I3
g125
tp685
a(I0
g123
tp686
a(I1
g142
tp687
a(I2
g93
tp688
a(I3
g123
tp689
a(I0
g123
tp690
a(I1
g125
tp691
a(I2
g96
tp692
a(I3
g125
tp693
a(I0
g125
tp694
a(I1
g123
tp695
a(I2
g93
tp696
a(I3
g123
tp697
a(I0
g125
tp698
a(I1
g123
tp699
a(I2
g96
tp700
a(I3
g125
tp701
a(I0
g123
tp702
a(I1
g142
tp703
a(I2
g93
tp704
a(I3
g123
tp705
a(I0
g123
tp706
a(I1
g125
tp707
a(I2
g96
tp708
a(I3
g125
tp709
a(I0
g125
tp710
a(I1
g123
tp711
a(I2
g93
tp712
a(I3
g123
tp713
a(I0
g125
tp714
a(I1
g125
tp715
a(I2
g96
tp716
a(I3
g125
tp717
a(I0
g123
tp718
a(I1
g123
tp719
a(I2
g93
tp720
a(I3
g123
tp721
a(I0
g123
tp722
a(I1
g125
tp723
a(I2
g96
tp724
a(I3
g125
tp725
a(I0
g125
tp726
a(I1
g123
tp727
a(I2
g93
tp728
a(I3
g123
tp729
a(I0
g125
tp730
a(I1
g125
tp731
a(I2
g96
tp732
a(I3
g125
tp733
a(I0
g123
tp734
a(I1
g123
tp735
a(I2
g93
tp736
a(I3
g123
tp737
a(I0
g123
tp738
a(I1
g125
tp739
a(I2
g96
tp740
a(I3
g125
tp741
a(I0
g125
tp742
a(I1
g142
tp743
a(I2
g93
tp744
a(I3
g123
tp745
a(I0
g125
tp746
a(I1
g123
tp747
a(I2
g96
tp748
a(I3
g125
tp749
a(I0
g123
tp750
a(I1
g125
tp751
a(I2
g93
tp752
a(I3
g123
tp753
a(I0
g123
tp754
a(I1
g125
tp755
a(I2
g96
tp756
a(I3
g125
tp757
a(I0
g125
tp758
a(I1
g123
tp759
a(I2
g93
tp760
a(I3
g123
tp761
a(I0
g125
tp762
a(I1
g142
tp763
a(I2
g96
tp764
a(I3
g125
tp765
a(I0
g123
tp766
a(I1
g123
tp767
a(I2
g93
tp768
a(I3
g123
tp769
a(I0
g123
tp770
a(I1
g125
tp771
a(I2
g96
tp772
a(I3
g125
tp773
a(I0
g125
tp774
a(I1
g142
tp775
a(I2
g93
tp776
a(I3
g123
tp777
a(I0
g125
tp778
a(I1
g123
tp779
a(I2
g96
tp780
a(I3
g125
tp781
a(I0
g123
tp782
a(I1
g125
tp783
a(I2
g93
tp784
a(I3
g123
tp785
a(I0
g123
tp786
a(I1
g142
tp787
a(I2
g96
tp788
a(I3
g125
tp789
a(I0
g125
tp790
a(I1
g125
tp791
a(I2
g93
tp792
a(I3
g123
tp793
a(I0
g125
tp794
a(I1
g123
tp795
a(I2
g96
tp796
a(I3
g125
tp797
a(I0
g123
tp798
a(I1
g123
tp799
a(I2
g93
tp800
a(I3
g123
tp801
a(I0
g123
tp802
a(I1
g142
tp803
a(I2
g96
tp804
a(I3
g125
tp805
a(I0
g125
tp806
a(I1
g142
tp807
a(I2
g93
tp808
a(I3
g123
tp809
a(I0
g125
tp810
a(I1
g142
tp811
a(I2
g96
tp812
a(I3
g125
tp813
a(I0
g123
tp814
a(I1
g125
tp815
a(I2
g93
tp816
a(I3
g123
tp817
a(I0
g123
tp818
a(I1
g125
tp819
a(I2
g96
tp820
a(I3
g125
tp821
a(I0
g125
tp822
a(I1
g123
tp823
a(I2
g93
tp824
a(I3
g123
tp825
a(I0
g125
tp826
a(I1
g125
tp827
a(I2
g96
tp828
a(I3
g125
tp829
a(I0
g123
tp830
a(I1
g123
tp831
a(I2
g93
tp832
a(I3
g123
tp833
a(I0
g123
tp834
a(I1
g125
tp835
a(I2
g96
tp836
a(I3
g125
tp837
a(I0
g125
tp838
a(I1
g142
tp839
a(I2
g93
tp840
a(I3
g123
tp841
a(I0
g125
tp842
a(I1
g123
tp843
a(I2
g96
tp844
a(I3
g125
tp845
a(I0
g123
tp846
a(I1
g142
tp847
a(I2
g93
tp848
a(I3
g123
tp849
a(I0
g123
tp850
a(I1
g125
tp851
a(I2
g96
tp852
a(I3
g125
tp853
a(I0
g125
tp854
a(I1
g123
tp855
a(I2
g93
tp856
a(I3
g123
tp857
a(I0
g125
tp858
a(I1
g123
tp859
a(I2
g96
tp860
a(I3
g125
tp861
a(I0
g123
tp862
a(I1
g125
tp863
a(I2
g93
tp864
a(I3
g123
tp865
a(I0
g123
tp866
a(I1
g125
tp867
a(I2
g96
tp868
a(I3
g125
tp869
a(I0
g125
tp870
a(I1
g123
tp871
a(I2
g93
tp872
a(I3
g123
tp873
a(I0
g125
tp874
a(I1
g125
tp875
a(I2
g96
tp876
a(I3
g125
tp877
a(I0
g123
tp878
a(I1
g142
tp879
a(I2
g93
tp880
a(I3
g123
tp881
a(I0
g123
tp882
a(I1
g123
tp883
a(I2
g96
tp884
a(I3
g125
tp885
a(I0
g125
tp886
a(I1
g123
tp887
a(I2
g93
tp888
a(I3
g123
tp889
a(I0
g125
tp890
a(I1
g125
tp891
a(I2
g96
tp892
a(I3
g125
tp893
a(I0
g123
tp894
a(I1
g123
tp895
a(I2
g93
tp896
a(I3
g123
tp897
a(I0
g123
tp898
a(I1
g125
tp899
a(I2
g96
tp900
a(I3
g125
tp901
a(I0
g125
tp902
a(I1
g142
tp903
a(I2
g93
tp904
a(I3
g123
tp905
a(I0
g125
tp906
a(I1
g125
tp907
a(I2
g96
tp908
a(I3
g125
tp909
a(I0
g123
tp910
a(I1
g142
tp911
a(I2
g93
tp912
a(I3
g123
tp913
a(I0
g123
tp914
a(I1
g142
tp915
a(I2
g96
tp916
a(I3
g125
tp917
a(I0
g125
tp918
a(I1
g96
tp919
a(I2
g93
tp920
a(I3
g123
tp921
a(I0
g125
tp922
a(I1
g93
tp923
a(I2
g96
tp924
a(I3
g125
tp925
a(I0
g123
tp926
a(I1
g142
tp927
a(I2
g93
tp928
a(I3
g123
tp929
a(I0
g123
tp930
a(I1
g142
tp931
a(I2
g96
tp932
a(I3
g125
tp933
a(I0
g125
tp934
a(I1
g123
tp935
a(I2
g93
tp936
a(I3
g123
tp937
a(I0
g125
tp938
a(I1
g125
tp939
a(I2
g96
tp940
a(I3
g125
tp941
a(I0
g123
tp942
a(I1
g142
tp943
a(I2
g93
tp944
a(I3
g123
tp945
a(I0
g123
tp946
a(I1
g142
tp947
a(I2
g96
tp948
a(I3
g125
tp949
a(I0
g125
tp950
a(I1
g123
tp951
a(I2
g93
tp952
a(I3
g123
tp953
a(I0
g125
tp954
a(I1
g125
tp955
a(I2
g96
tp956
a(I3
g125
tp957
a(I0
g123
tp958
a(I1
g123
tp959
a(I2
g93
tp960
a(I3
g123
tp961
a(I0
g123
tp962
a(I1
g142
tp963
a(I2
g96
tp964
a(I3
g125
tp965
a(I0
g125
tp966
a(I1
g125
tp967
a(I2
g93
tp968
a(I3
g123
tp969
a(I0
g125
tp970
a(I1
g96
tp971
a(I2
g96
tp972
a(I3
g125
tp973
a(I0
g123
tp974
a(I1
g93
tp975
a(I2
g93
tp976
a(I3
g123
tp977
a(I0
g123
tp978
a(I1
g142
tp979
a(I2
g96
tp980
a(I3
g125
tp981
a(I0
g125
tp982
a(I1
g123
tp983
a(I2
g93
tp984
a(I3
g123
tp985
a(I0
g125
tp986
a(I1
g125
tp987
a(I2
g96
tp988
a(I3
g125
tp989
a(I0
g123
tp990
a(I1
g142
tp991
a(I2
g93
tp992
a(I3
g123
tp993
a(I0
g123
tp994
a(I1
g123
tp995
a(I2
g96
tp996
a(I3
g125
tp997
a(I0
g125
tp998
a(I1
g125
tp999
a(I2
g93
tp1000
a(I3
g123
tp1001
a(I0
g125
tp1002
a(I1
g96
tp1003
a(I2
g96
tp1004
a(I3
g125
tp1005
a(I0
g123
tp1006
a(I1
g93
tp1007
a(I2
g93
tp1008
a(I3
g123
tp1009
a(I0
g123
tp1010
a(I1
g123
tp1011
a(I2
g96
tp1012
a(I3
g125
tp1013
a(I0
g125
tp1014
a(I1
g125
tp1015
a(I2
g93
tp1016
a(I3
g123
tp1017
a(I0
g125
tp1018
a(I1
g96
tp1019
a(I2
g96
tp1020
a(I3
g125
tp1021
a(I0
g123
tp1022
a(I1
g93
tp1023
a(I2
g93
tp1024
a(I3
g123
tp1025
a(I0
g123
tp1026
a(I1
g123
tp1027
a(I2
g96
tp1028
a(I3
g125
tp1029
a(I0
g125
tp1030
a(I1
g125
tp1031
a(I2
g93
tp1032
a(I3
g123
tp1033
a(I0
g125
tp1034
a(I1
g96
tp1035
a(I2
g96
tp1036
a(I3
g125
tp1037
a(I0
g123
tp1038
a(I1
g93
tp1039
a(I2
g93
tp1040
a(I3
g123
tp1041
a(I0
g123
tp1042
a(I1
g96
tp1043
a(I2
g96
tp1044
a(I3
g125
tp1045
a(I0
g125
tp1046
a(I1
g93
tp1047
a(I2
g93
tp1048
a(I3
g123
tp1049
a(I0
g125
tp1050
a(I1
g123
tp1051
a(I2
g96
tp1052
a(I3
g125
tp1053
a(I0
g123
tp1054
a(I1
g142
tp1055
a(I2
g93
tp1056
a(I3
g123
tp1057
a(I0
g123
tp1058
a(I1
g142
tp1059
a(I2
g96
tp1060
a(I3
g125
tp1061
a(I0
g125
tp1062
a(I1
g142
tp1063
a(I2
g93
tp1064
a(I3
g123
tp1065
a(I0
g125
tp1066
a(I1
g142
tp1067
a(I2
g96
tp1068
a(I3
g125
tp1069
a(I0
g123
tp1070
a(I1
g123
tp1071
a(I2
g93
tp1072
a(I3
g123
tp1073
a(I0
g123
tp1074
a(I1
g125
tp1075
a(I2
g96
tp1076
a(I3
g125
tp1077
a(I0
g125
tp1078
a(I1
g125
tp1079
a(I2
g93
tp1080
a(I3
g123
tp1081
a(I0
g125
tp1082
a(I1
g96
tp1083
a(I2
g96
tp1084
a(I3
g125
tp1085
a(I0
g123
tp1086
a(I1
g93
tp1087
a(I2
g93
tp1088
a(I3
g123
tp1089
a(I0
g123
tp1090
a(I1
g96
tp1091
a(I2
g96
tp1092
a(I3
g125
tp1093
a(I0
g125
tp1094
a(I1
g96
tp1095
a(I2
g93
tp1096
a(I3
g123
tp1097
a(I0
g125
tp1098
a(I1
g96
tp1099
a(I2
g96
tp1100
a(I3
g125
tp1101
a(I0
g123
tp1102
a(I1
g93
tp1103
a(I2
g93
tp1104
a(I3
g123
tp1105
a(I0
g123
tp1106
a(I1
g93
tp1107
a(I2
g96
tp1108
a(I3
g125
tp1109
a(I0
g125
tp1110
a(I1
g93
tp1111
a(I2
g93
tp1112
a(I3
g123
tp1113
a(I0
g125
tp1114
a(I1
g142
tp1115
a(I2
g96
tp1116
a(I3
g125
tp1117
a(I0
g123
tp1118
a(I1
g142
tp1119
a(I2
g93
tp1120
a(I3
g123
tp1121
a(I0
g123
tp1122
a(I1
g123
tp1123
a(I2
g96
tp1124
a(I3
g125
tp1125
a(I0
g125
tp1126
a(I1
g125
tp1127
a(I2
g93
tp1128
a(I3
g123
tp1129
a(I0
g125
tp1130
a(I1
g96
tp1131
a(I2
g96
tp1132
a(I3
g125
tp1133
a(I0
g123
tp1134
a(I1
g93
tp1135
a(I2
g93
tp1136
a(I3
g123
tp1137
a(I0
g123
tp1138
a(I1
g123
tp1139
a(I2
g96
tp1140
a(I3
g125
tp1141
a(I0
g125
tp1142
a(I1
g142
tp1143
a(I2
g93
tp1144
a(I3
g123
tp1145
a(I0
g125
tp1146
a(I1
g123
tp1147
a(I2
g96
tp1148
a(I3
g125
tp1149
a(I0
g123
tp1150
a(I1
g125
tp1151
a(I2
g93
tp1152
a(I3
g123
tp1153
a(I0
g123
tp1154
a(I1
g125
tp1155
a(I2
g96
tp1156
a(I3
g125
tp1157
a(I0
g125
tp1158
a(I1
g142
tp1159
a(I2
g93
tp1160
a(I3
g123
tp1161
a(I0
g125
tp1162
a(I1
g123
tp1163
a(I2
g96
tp1164
a(I3
g125
tp1165
a(I0
g123
tp1166
a(I1
g123
tp1167
a(I2
g93
tp1168
a(I3
g123
tp1169
a(I0
g123
tp1170
a(I1
g125
tp1171
a(I2
g96
tp1172
a(I3
g125
tp1173
a(I0
g125
tp1174
a(I1
g142
tp1175
a(I2
g93
tp1176
a(I3
g123
tp1177
a(I0
g125
tp1178
a(I1
g123
tp1179
a(I2
g96
tp1180
a(I3
g125
tp1181
a(I0
g123
tp1182
a(I1
g142
tp1183
a(I2
g93
tp1184
a(I3
g123
tp1185
a(I0
g123
tp1186
a(I1
g125
tp1187
a(I2
g96
tp1188
a(I3
g125
tp1189
a(I0
g125
tp1190
a(I1
g125
tp1191
a(I2
g93
tp1192
a(I3
g123
tp1193
a(I0
g125
tp1194
a(I1
g123
tp1195
a(I2
g96
tp1196
a(I3
g125
tp1197
a(I0
g123
tp1198
a(I1
g123
tp1199
a(I2
g93
tp1200
a(I3
g123
tp1201
a(I0
g123
tp1202
a(I1
g125
tp1203
a(I2
g96
tp1204
a(I3
g125
tp1205
a(I0
g125
tp1206
a(I1
g123
tp1207
a(I2
g93
tp1208
a(I3
g123
tp1209
a(I0
g125
tp1210
a(I1
g125
tp1211
a(I2
g96
tp1212
a(I3
g125
tp1213
a(I0
g123
tp1214
a(I1
g123
tp1215
a(I2
g93
tp1216
a(I3
g123
tp1217
a(I0
g123
tp1218
a(I1
g125
tp1219
a(I2
g96
tp1220
a(I3
g125
tp1221
a(I0
g125
tp1222
a(I1
g125
tp1223
a(I2
g93
tp1224
a(I3
g123
tp1225
a(I0
g125
tp1226
a(I1
g123
tp1227
a(I2
g96
tp1228
a(I3
g125
tp1229
a(I0
g123
tp1230
a(I1
g123
tp1231
a(I2
g93
tp1232
a(I3
g123
tp1233
a(I0
g123
tp1234
a(I1
g142
tp1235
a(I2
g96
tp1236
a(I3
g125
tp1237
a(I0
g125
tp1238
a(I1
g142
tp1239
a(I2
g93
tp1240
a(I3
g123
tp1241
a(I0
g125
tp1242
a(I1
g142
tp1243
a(I2
g96
tp1244
a(I3
g125
tp1245
a(I0
g123
tp1246
a(I1
g125
tp1247
a(I2
g93
tp1248
a(I3
g123
tp1249
a(I0
g123
tp1250
a(I1
g123
tp1251
a(I2
g96
tp1252
a(I3
g125
tp1253
a(I0
g125
tp1254
a(I1
g142
tp1255
a(I2
g93
tp1256
a(I3
g123
tp1257
a(I0
g125
tp1258
a(I1
g142
tp1259
a(I2
g96
tp1260
a(I3
g125
tp1261
a(I0
g123
tp1262
a(I1
g125
tp1263
a(I2
g93
tp1264
a(I3
g123
tp1265
a(I0
g123
tp1266
a(I1
g125
tp1267
a(I2
g96
tp1268
a(I3
g125
tp1269
a(I0
g125
tp1270
a(I1
g123
tp1271
a(I2
g93
tp1272
a(I3
g123
tp1273
a(I0
g125
tp1274
a(I1
g125
tp1275
a(I2
g96
tp1276
a(I3
g125
tp1277
a(I0
g123
tp1278
a(I1
g142
tp1279
a(I2
g93
tp1280
a(I3
g123
tp1281
a(I0
g123
tp1282
a(I1
g123
tp1283
a(I2
g96
tp1284
a(I3
g125
tp1285
a(I0
g125
tp1286
a(I1
g125
tp1287
a(I2
g93
tp1288
a(I3
g123
tp1289
a(I0
g125
tp1290
a(I1
g123
tp1291
a(I2
g96
tp1292
a(I3
g125
tp1293
a(I0
g123
tp1294
a(I1
g125
tp1295
a(I2
g93
tp1296
a(I3
g123
tp1297
asS'length'
p1298
I1200
sS'agents'
p1299
(lp1300
(igame
Agent
p1301
(dp1302
S'index'
p1303
I0
sba(igame
Agent
p1304
(dp1305
g1303
I0
sba(igame
Agent
p1306
(dp1307
g1303
I0
sba(igame
Agent
p1308
(dp1309
g1303
I0
sbasS'redTeamName'
p1310
S'Red'
p1311
s.