(dp1
S'layout'
p2
(ilayout
Layout
p3
(dp4
S'capsules'
p5
(lp6
sS'numGhosts'
p7
I4
sS'food'
p8
(igame
Grid
p9
(dp10
S'CELLS_PER_INT'
p11
I30
sS'width'
p12
I18
sS'data'
p13
(lp14
(lp15
I00
aI00
aI00
aI00
aI00
aI00
aI00
aI00
aI00
aI00
aI00
aI00
aI00
aI00
aI00
aI00
aI00
aI00
aI00
aI00
aa(lp16
I00
aI00
aI00
aI00
aI00
aI00
aI00
aI00
aI00
aI00
aI00
aI00
aI00
aI00
aI00
aI00
aI00
aI00
aI00
aI00
aa(lp17
I00
aI00
aI00
aI00
aI00
aI00
aI00
aI00
aI00
aI00
aI00
aI00
aI00
aI00
aI00
aI00
aI00
aI00
aI00
aI00
aa(lp18
I00
aI01
aI00
aI01
aI01
aI01
aI01
aI00
aI01
aI00
aI00
aI01
aI00
aI01
aI01
aI01
aI01
aI01
aI00
aI00
aa(lp19
I00
aI01
aI00
aI00
aI01
aI00
aI00
aI00
aI01
aI00
aI00
aI01
aI00
aI00
aI00
aI00
aI01
aI01
aI00
aI00
aa(lp20
I00
aI01
aI00
aI00
aI01
aI00
aI00
aI00
aI00
aI00
aI00
aI00
aI00
aI00
aI00
aI00
aI01
aI01
aI00
aI00
aa(lp21
I00
aI01
aI00
aI00
aI01
aI00
aI00
aI00
aI00
aI00
aI00
aI00
aI01
aI01
aI00
aI00
aI01
aI01
aI00
aI00
aa(lp22
I00
aI00
aI00
aI00
aI01
aI01
aI00
aI00
aI01
aI01
aI01
aI01
aI00
aI00
aI01
aI00
aI01
aI01
aI00
aI00
aa(lp23
I00
aI00
aI00
aI00
aI00
aI00
aI00
aI00
aI00
aI00
aI00
aI00
aI00
aI00
aI00
aI00
aI00
aI00
aI00
aI00
aa(lp24
I00
aI00
aI00
aI00
aI00
aI00
aI00
aI00
aI00
aI00
aI00
aI00
aI00
aI00
aI00
aI00
aI00
aI00
aI00
aI00
aa(lp25
I00
aI00
aI00
aI00
aI01
aI01
aI00
aI00
aI01
aI01
aI01
aI01
aI00
aI00
aI01
aI00
aI01
aI01
aI00
aI00
aa(lp26
I00
aI01
aI00
aI00
aI01
aI00
aI00
aI00
aI00
aI00
aI00
aI00
aI01
aI01
aI00
aI00
aI01
aI01
aI00
aI00
aa(lp27
I00
aI01
aI00
aI00
aI01
aI00
aI00
aI00
aI00
aI00
aI00
aI00
aI00
aI00
aI00
aI00
aI01
aI01
aI00
aI00
aa(lp28
I00
aI01
aI00
aI00
aI01
aI00
aI00
aI00
aI01
aI00
aI00
aI01
aI00
aI00
aI00
aI00
aI01
aI01
aI00
aI00
aa(lp29
I00
aI01
aI00
aI01
aI01
aI01
aI01
aI00
aI01
aI00
aI00
aI01
aI00
aI01
aI01
aI01
aI01
aI01
aI00
aI00
aa(lp30
I00
aI00
aI00
aI00
aI00
aI00
aI00
aI00
aI00
aI00
aI00
aI00
aI00
aI00
aI00
aI00
aI00
aI00
aI00
aI00
aa(lp31
I00
aI00
aI00
aI00
aI00
aI00
aI00
aI00
aI00
aI00
aI00
aI00
aI00
aI00
aI00
aI00
aI00
aI00
aI00
aI00
aa(lp32
I00
aI00
aI00
aI00
aI00
aI00
aI00
aI00
aI00
aI00
aI00
aI00
aI00
aI00
aI00
aI00
aI00
aI00
aI00
aI00
aasS'height'
p33
I20
sbsS'agentPositions'
p34
(lp35
(I00
(I1
I18
tp36
tp37
a(I00
(I16
I18
tp38
tp39
a(I00
(I1
I1
tp40
tp41
a(I00
(I16
I1
tp42
tp43
asg33
I20
sg12
I18
sS'walls'
p44
(igame
Grid
p45
(dp46
g11
I30
sg12
I18
sg13
(lp47
(lp48
I01
aI01
aI01
aI01
aI01
aI01
aI01
aI01
aI01
aI01
aI01
aI01
aI01
aI01
aI01
aI01
aI01
aI01
aI01
aI01
aa(lp49
I01
aI00
aI00
aI00
aI00
aI00
aI00
aI00
aI00
aI01
aI01
aI00
aI00
aI00
aI00
aI00
aI00
aI00
aI00
aI01
aa(lp50
I01
aI01
aI01
aI01
aI01
aI01
aI01
aI01
aI00
aI01
aI01
aI00
aI01
aI01
aI01
aI01
aI01
aI01
aI01
aI01
aa(lp51
I01
aI00
aI00
aI00
aI00
aI00
aI00
aI00
aI00
aI01
aI01
aI00
aI00
aI00
aI00
aI00
aI00
aI00
aI01
aI01
aa(lp52
I01
aI00
aI01
aI01
aI00
aI01
aI01
aI01
aI00
aI00
aI00
aI00
aI01
aI01
aI01
aI01
aI00
aI00
aI01
aI01
aa(lp53
I01
aI00
aI01
aI01
aI00
aI00
aI00
aI00
aI00
aI00
aI00
aI00
aI00
aI00
aI00
aI00
aI00
aI00
aI01
aI01
aa(lp54
I01
aI00
aI00
aI00
aI00
aI01
aI01
aI00
aI01
aI01
aI01
aI01
aI00
aI00
aI00
aI01
aI00
aI00
aI01
aI01
aa(lp55
I01
aI00
aI01
aI01
aI00
aI00
aI01
aI00
aI00
aI00
aI00
aI00
aI00
aI01
aI00
aI01
aI00
aI00
aI01
aI01
aa(lp56
I01
aI00
aI00
aI00
aI00
aI00
aI01
aI00
aI01
aI01
aI01
aI01
aI00
aI01
aI00
aI01
aI00
aI00
aI01
aI01
aa(lp57
I01
aI00
aI00
aI00
aI00
aI00
aI01
aI00
aI01
aI01
aI01
aI01
aI00
aI01
aI00
aI01
aI00
aI00
aI01
aI01
aa(lp58
I01
aI00
aI01
aI01
aI00
aI00
aI01
aI00
aI00
aI00
aI00
aI00
aI00
aI01
aI00
aI01
aI00
aI00
aI01
aI01
aa(lp59
I01
aI00
aI00
aI00
aI00
aI01
aI01
aI00
aI01
aI01
aI01
aI01
aI00
aI00
aI00
aI01
aI00
aI00
aI01
aI01
aa(lp60
I01
aI00
aI01
aI01
aI00
aI00
aI00
aI00
aI00
aI00
aI00
aI00
aI00
aI00
aI00
aI00
aI00
aI00
aI01
aI01
aa(lp61
I01
aI00
aI01
aI01
aI00
aI01
aI01
aI01
aI00
aI00
aI00
aI00
aI01
aI01
aI01
aI01
aI00
aI00
aI01
aI01
aa(lp62
I01
aI00
aI00
aI00
aI00
aI00
aI00
aI00
aI00
aI01
aI01
aI00
aI00
aI00
aI00
aI00
aI00
aI00
aI01
aI01
aa(lp63
I01
aI01
aI01
aI01
aI01
aI01
aI01
aI01
aI00
aI01
aI01
aI00
aI01
aI01
aI01
aI01
aI01
aI01
aI01
aI01
aa(lp64
I01
aI00
aI00
aI00
aI00
aI00
aI00
aI00
aI00
aI01
aI01
aI00
aI00
aI00
aI00
aI00
aI00
aI00
aI00
aI01
aa(lp65
I01
aI01
aI01
aI01
aI01
aI01
aI01
aI01
aI01
aI01
aI01
aI01
aI01
aI01
aI01
aI01
aI01
aI01
aI01
aI01
aasg33
I20
sbsS'totalFood'
p66
I74
sS'layoutText'
p67
(lp68
S'%%%%%%%%%%%%%%%%%%'
p69
aS'%1%%%%%%%%%%%%%%2%'
p70
aS'% %.....  .....% %'
p71
aS'% %.....  .....% %'
p72
aS'% %.% %%%%%% %.% %'
p73
aS'% %.%  .  .  %.% %'
p74
aS'% %.% .%%%%. %.% %'
p75
aS'% % % .    . % % %'
p76
aS'%  .. %.%%.% ..  %'
p77
aS'%%%%  %.%%.%  %%%%'
p78
aS'%%%%  %.%%.%  %%%%'
p79
aS'%  .. %.%%.% ..  %'
p80
aS'% % %        % % %'
p81
aS'% %.% %%%%%% %.% %'
p82
aS'% %.% %.  .% %.% %'
p83
aS'% %.....  .....% %'
p84
aS'% %.%% %  % %%.% %'
p85
aS'% % %% %  % %% % %'
p86
aS'%3%....    ....%4%'
p87
aS'%%%%%%%%%%%%%%%%%%'
p88
asbsS'blueTeamName'
p89
S'Blue'
p90
sS'actions'
p91
(lp92
(I1
S'South'
p93
tp94
a(I2
S'North'
p95
tp96
a(I3
g95
tp97
a(I0
g93
tp98
a(I1
g93
tp99
a(I2
g95
tp100
a(I3
g95
tp101
a(I0
g93
tp102
a(I1
g93
tp103
a(I2
g95
tp104
a(I3
g95
tp105
a(I0
g93
tp106
a(I1
g93
tp107
a(I2
g95
tp108
a(I3
g95
tp109
a(I0
g93
tp110
a(I1
g93
tp111
a(I2
g95
tp112
a(I3
g95
tp113
a(I0
g93
tp114
a(I1
g93
tp115
a(I2
g95
tp116
a(I3
g95
tp117
a(I0
g93
tp118
a(I1
g93
tp119
a(I2
g95
tp120
a(I3
g95
tp121
a(I0
g93
tp122
a(I1
S'West'
p123
tp124
a(I2
S'East'
p125
tp126
a(I3
g123
tp127
a(I0
g125
tp128
a(I1
g123
tp129
a(I2
g125
tp130
a(I3
g123
tp131
a(I0
g125
tp132
a(I1
g123
tp133
a(I2
g125
tp134
a(I3
g123
tp135
a(I0
g125
tp136
a(I1
g123
tp137
a(I2
g125
tp138
a(I3
g123
tp139
a(I0
g125
tp140
a(I1
g95
tp141
a(I2
g93
tp142
a(I3
g93
tp143
a(I0
g95
tp144
a(I1
g123
tp145
a(I2
g125
tp146
a(I3
g123
tp147
a(I0
g125
tp148
a(I1
g95
tp149
a(I2
g125
tp150
a(I3
g123
tp151
a(I0
g125
tp152
a(I1
g95
tp153
a(I2
g125
tp154
a(I3
g95
tp155
a(I0
g125
tp156
a(I1
g123
tp157
a(I2
g123
tp158
a(I3
g95
tp159
a(I0
g123
tp160
a(I1
g123
tp161
a(I2
g123
tp162
a(I3
g95
tp163
a(I0
g93
tp164
a(I1
g123
tp165
a(I2
g123
tp166
a(I3
g95
tp167
a(I0
g93
tp168
a(I1
g123
tp169
a(I2
g95
tp170
a(I3
g95
tp171
a(I0
g93
tp172
a(I1
g125
tp173
a(I2
g95
tp174
a(I3
g93
tp175
a(I0
g93
tp176
a(I1
g125
tp177
a(I2
g93
tp178
a(I3
g93
tp179
a(I0
g93
tp180
a(I1
g125
tp181
a(I2
g93
tp182
a(I3
g93
tp183
a(I0
g95
tp184
a(I1
g125
tp185
a(I2
g125
tp186
a(I3
g93
tp187
a(I0
g95
tp188
a(I1
g125
tp189
a(I2
g123
tp190
a(I3
g93
tp191
a(I0
g95
tp192
a(I1
g95
tp193
a(I2
g95
tp194
a(I3
g95
tp195
a(I0
g95
tp196
a(I1
g95
tp197
a(I2
g93
tp198
a(I3
g95
tp199
a(I0
g95
tp200
a(I1
g123
tp201
a(I2
g125
tp202
a(I3
g95
tp203
a(I0
g123
tp204
a(I1
g123
tp205
a(I2
g125
tp206
a(I3
g95
tp207
a(I0
g95
tp208
a(I1
g123
tp209
a(I2
g125
tp210
a(I3
g95
tp211
a(I0
g95
tp212
a(I1
g95
tp213
a(I2
g125
tp214
a(I3
g123
tp215
a(I0
g125
tp216
a(I1
g125
tp217
a(I2
g125
tp218
a(I3
g125
tp219
a(I0
g125
tp220
a(I1
g125
tp221
a(I2
g95
tp222
a(I3
g93
tp223
a(I0
g125
tp224
a(I1
g125
tp225
a(I2
g95
tp226
a(I3
g93
tp227
a(I0
g125
tp228
a(I1
g93
tp229
a(I2
g93
tp230
a(I3
g93
tp231
a(I0
g123
tp232
a(I1
g93
tp233
a(I2
g93
tp234
a(I3
g93
tp235
a(I0
g123
tp236
a(I1
g93
tp237
a(I2
g123
tp238
a(I3
g93
tp239
a(I0
g123
tp240
a(I1
g93
tp241
a(I2
g123
tp242
a(I3
g123
tp243
a(I0
g125
tp244
a(I1
g93
tp245
a(I2
g123
tp246
a(I3
g125
tp247
a(I0
g125
tp248
a(I1
g95
tp249
a(I2
g123
tp250
a(I3
g95
tp251
a(I0
g123
tp252
a(I1
g123
tp253
a(I2
g123
tp254
a(I3
g95
tp255
a(I0
g123
tp256
a(I1
g93
tp257
a(I2
g93
tp258
a(I3
g95
tp259
a(I0
g125
tp260
a(I1
g123
tp261
a(I2
g93
tp262
a(I3
g95
tp263
a(I0
g125
tp264
a(I1
g125
tp265
a(I2
g93
tp266
a(I3
g95
tp267
a(I0
g123
tp268
a(I1
g125
tp269
a(I2
g125
tp270
a(I3
g123
tp271
a(I0
g125
tp272
a(I1
g95
tp273
a(I2
g125
tp274
a(I3
g125
tp275
a(I0
g123
tp276
a(I1
g123
tp277
a(I2
g125
tp278
a(I3
g93
tp279
a(I0
g123
tp280
a(I1
g93
tp281
a(I2
g125
tp282
a(I3
g93
tp283
a(I0
g125
tp284
a(I1
g123
tp285
a(I2
g125
tp286
a(I3
g93
tp287
a(I0
g125
tp288
a(I1
g125
tp289
a(I2
g95
tp290
a(I3
g95
tp291
a(I0
g123
tp292
a(I1
g125
tp293
a(I2
g123
tp294
a(I3
g95
tp295
a(I0
g125
tp296
a(I1
g95
tp297
a(I2
g123
tp298
a(I3
g95
tp299
a(I0
g123
tp300
a(I1
g123
tp301
a(I2
g93
tp302
a(I3
g93
tp303
a(I0
g123
tp304
a(I1
g93
tp305
a(I2
g125
tp306
a(I3
g93
tp307
a(I0
g125
tp308
a(I1
g123
tp309
a(I2
g125
tp310
a(I3
g93
tp311
a(I0
g125
tp312
a(I1
g125
tp313
a(I2
g125
tp314
a(I3
g95
tp315
a(I0
g123
tp316
a(I1
g125
tp317
a(I2
g125
tp318
a(I3
g95
tp319
a(I0
g125
tp320
a(I1
g95
tp321
a(I2
g125
tp322
a(I3
g95
tp323
a(I0
g123
tp324
a(I1
g123
tp325
a(I2
g125
tp326
a(I3
g125
tp327
a(I0
g123
tp328
a(I1
g93
tp329
a(I2
g95
tp330
a(I3
g125
tp331
a(I0
g125
tp332
a(I1
g123
tp333
a(I2
g95
tp334
a(I3
g95
tp335
a(I0
g123
tp336
a(I1
g123
tp337
a(I2
g93
tp338
a(I3
g123
tp339
a(I0
g123
tp340
a(I1
g123
tp341
a(I2
g93
tp342
a(I3
g93
tp343
a(I0
g93
tp344
a(I1
g123
tp345
a(I2
g123
tp346
a(I3
g123
tp347
a(I0
g93
tp348
a(I1
g123
tp349
a(I2
g123
tp350
a(I3
g93
tp351
a(I0
g123
tp352
a(I1
g93
tp353
a(I2
g123
tp354
a(I3
g93
tp355
a(I0
g125
tp356
a(I1
g93
tp357
a(I2
g123
tp358
a(I3
g93
tp359
a(I0
g125
tp360
a(I1
g93
tp361
a(I2
g123
tp362
a(I3
g93
tp363
a(I0
g125
tp364
a(I1
g93
tp365
a(I2
g123
tp366
a(I3
g93
tp367
a(I0
g125
tp368
a(I1
g95
tp369
a(I2
g125
tp370
a(I3
g125
tp371
a(I0
g125
tp372
a(I1
g93
tp373
a(I2
g125
tp374
a(I3
g125
tp375
a(I0
g93
tp376
a(I1
g93
tp377
a(I2
g95
tp378
a(I3
g93
tp379
a(I0
g93
tp380
a(I1
g93
tp381
a(I2
g123
tp382
a(I3
g93
tp383
a(I0
g95
tp384
a(I1
g93
tp385
a(I2
g123
tp386
a(I3
g93
tp387
a(I0
g95
tp388
a(I1
g123
tp389
a(I2
g123
tp390
a(I3
g123
tp391
a(I0
g125
tp392
a(I1
g123
tp393
a(I2
g93
tp394
a(I3
g125
tp395
a(I0
g95
tp396
a(I1
g123
tp397
a(I2
g95
tp398
a(I3
g95
tp399
a(I0
g95
tp400
a(I1
g123
tp401
a(I2
g93
tp402
a(I3
g95
tp403
a(I0
g123
tp404
a(I1
g95
tp405
a(I2
g125
tp406
a(I3
g95
tp407
a(I0
g123
tp408
a(I1
g95
tp409
a(I2
g125
tp410
a(I3
g95
tp411
a(I0
g123
tp412
a(I1
g123
tp413
a(I2
g93
tp414
a(I3
g125
tp415
a(I0
g123
tp416
a(I1
g93
tp417
a(I2
g93
tp418
a(I3
g95
tp419
a(I0
g125
tp420
a(I1
g123
tp421
a(I2
g93
tp422
a(I3
g123
tp423
a(I0
g125
tp424
a(I1
g125
tp425
a(I2
g125
tp426
a(I3
g95
tp427
a(I0
g123
tp428
a(I1
g125
tp429
a(I2
g125
tp430
a(I3
g125
tp431
a(I0
g125
tp432
a(I1
g95
tp433
a(I2
g125
tp434
a(I3
g95
tp435
a(I0
g123
tp436
a(I1
g123
tp437
a(I2
g125
tp438
a(I3
g125
tp439
a(I0
g123
tp440
a(I1
g93
tp441
a(I2
g125
tp442
a(I3
g95
tp443
a(I0
g125
tp444
a(I1
g123
tp445
a(I2
g123
tp446
a(I3
g95
tp447
a(I0
g125
tp448
a(I1
g125
tp449
a(I2
g123
tp450
a(I3
g95
tp451
a(I0
g123
tp452
a(I1
g125
tp453
a(I2
g123
tp454
a(I3
g95
tp455
a(I0
g125
tp456
a(I1
g95
tp457
a(I2
g123
tp458
a(I3
g95
tp459
a(I0
g123
tp460
a(I1
g123
tp461
a(I2
g123
tp462
a(I3
g95
tp463
a(I0
g123
tp464
a(I1
g93
tp465
a(I2
g123
tp466
a(I3
g123
tp467
a(I0
g125
tp468
a(I1
g123
tp469
a(I2
g125
tp470
a(I3
g93
tp471
a(I0
g125
tp472
a(I1
g125
tp473
a(I2
g125
tp474
a(I3
g123
tp475
a(I0
g123
tp476
a(I1
g125
tp477
a(I2
g125
tp478
a(I3
g123
tp479
a(I0
g125
tp480
a(I1
g95
tp481
a(I2
g125
tp482
a(I3
g125
tp483
a(I0
g123
tp484
a(I1
g123
tp485
a(I2
g125
tp486
a(I3
g95
tp487
a(I0
g123
tp488
a(I1
g93
tp489
a(I2
g125
tp490
a(I3
g123
tp491
a(I0
g125
tp492
a(I1
g123
tp493
a(I2
g95
tp494
a(I3
g123
tp495
a(I0
g125
tp496
a(I1
g125
tp497
a(I2
g95
tp498
a(I3
g93
tp499
a(I0
g123
tp500
a(I1
g125
tp501
a(I2
g95
tp502
a(I3
g123
tp503
a(I0
g125
tp504
a(I1
g95
tp505
a(I2
g123
tp506
a(I3
g125
tp507
a(I0
g123
tp508
a(I1
g123
tp509
a(I2
g123
tp510
a(I3
g95
tp511
a(I0
g123
tp512
a(I1
g93
tp513
a(I2
g123
tp514
a(I3
g125
tp515
a(I0
g125
tp516
a(I1
g123
tp517
a(I2
g123
tp518
a(I3
g125
tp519
a(I0
g125
tp520
a(I1
g125
tp521
a(I2
g123
tp522
a(I3
g93
tp523
a(I0
g123
tp524
a(I1
g125
tp525
a(I2
g123
tp526
a(I3
g93
tp527
a(I0
g123
tp528
a(I1
g93
tp529
a(I2
g125
tp530
a(I3
g93
tp531
a(I0
g123
tp532
a(I1
g93
tp533
a(I2
g125
tp534
a(I3
g93
tp535
a(I0
g125
tp536
a(I1
g93
tp537
a(I2
g125
tp538
a(I3
g93
tp539
a(I0
g125
tp540
a(I1
g93
tp541
a(I2
g123
tp542
a(I3
g93
tp543
a(I0
g125
tp544
a(I1
g93
tp545
a(I2
g123
tp546
a(I3
g93
tp547
a(I0
g125
tp548
a(I1
g123
tp549
a(I2
g125
tp550
a(I3
g93
tp551
a(I0
g125
tp552
a(I1
g125
tp553
a(I2
g95
tp554
a(I3
g93
tp555
a(I0
g125
tp556
a(I1
g93
tp557
a(I2
g123
tp558
a(I3
g93
tp559
a(I0
g95
tp560
a(I1
g93
tp561
a(I2
g123
tp562
a(I3
g123
tp563
a(I0
g95
tp564
a(I1
g93
tp565
a(I2
g123
tp566
a(I3
g123
tp567
a(I0
g95
tp568
a(I1
g123
tp569
a(I2
g125
tp570
a(I3
g123
tp571
a(I0
g123
tp572
a(I1
g125
tp573
a(I2
g123
tp574
a(I3
g125
tp575
a(I0
g123
tp576
a(I1
g95
tp577
a(I2
g125
tp578
a(I3
g95
tp579
a(I0
g93
tp580
a(I1
g95
tp581
a(I2
g125
tp582
a(I3
g93
tp583
a(I0
g125
tp584
a(I1
g93
tp585
a(I2
g123
tp586
a(I3
g123
tp587
a(I0
g123
tp588
a(I1
g93
tp589
a(I2
g123
tp590
a(I3
g125
tp591
a(I0
g123
tp592
a(I1
g123
tp593
a(I2
g125
tp594
a(I3
g125
tp595
a(I0
g123
tp596
a(I1
g125
tp597
a(I2
g123
tp598
a(I3
g123
tp599
a(I0
g125
tp600
a(I1
g95
tp601
a(I2
g125
tp602
a(I3
g123
tp603
a(I0
g125
tp604
a(I1
g95
tp605
a(I2
g93
tp606
a(I3
g125
tp607
a(I0
g125
tp608
a(I1
g95
tp609
a(I2
g125
tp610
a(I3
g125
tp611
a(I0
g125
tp612
a(I1
g93
tp613
a(I2
g95
tp614
a(I3
g125
tp615
a(I0
g125
tp616
a(I1
g93
tp617
a(I2
g123
tp618
a(I3
g93
tp619
a(I0
g95
tp620
a(I1
g93
tp621
a(I2
g123
tp622
a(I3
g93
tp623
a(I0
g125
tp624
a(I1
g123
tp625
a(I2
g125
tp626
a(I3
g93
tp627
a(I0
g93
tp628
a(I1
g125
tp629
a(I2
g123
tp630
a(I3
g125
tp631
a(I0
g93
tp632
a(I1
g95
tp633
a(I2
g93
tp634
a(I3
g125
tp635
a(I0
g93
tp636
a(I1
g95
tp637
a(I2
g125
tp638
a(I3
g95
tp639
a(I0
g93
tp640
a(I1
g95
tp641
a(I2
g125
tp642
a(I3
g95
tp643
a(I0
g93
tp644
a(I1
g123
tp645
a(I2
g125
tp646
a(I3
g93
tp647
a(I0
g93
tp648
a(I1
g125
tp649
a(I2
g123
tp650
a(I3
g93
tp651
a(I0
g123
tp652
a(I1
g95
tp653
a(I2
g93
tp654
a(I3
g95
tp655
a(I0
g125
tp656
a(I1
g95
tp657
a(I2
g95
tp658
a(I3
g95
tp659
a(I0
g95
tp660
a(I1
g95
tp661
a(I2
g125
tp662
a(I3
g95
tp663
a(I0
g95
tp664
a(I1
g125
tp665
a(I2
g125
tp666
a(I3
g95
tp667
a(I0
g95
tp668
a(I1
g95
tp669
a(I2
g125
tp670
a(I3
g123
tp671
a(I0
g95
tp672
a(I1
g125
tp673
a(I2
g125
tp674
a(I3
g123
tp675
a(I0
g95
tp676
a(I1
g95
tp677
a(I2
g125
tp678
a(I3
g95
tp679
a(I0
g123
tp680
a(I1
g95
tp681
a(I2
g95
tp682
a(I3
g95
tp683
a(I0
g123
tp684
a(I1
g95
tp685
a(I2
g95
tp686
a(I3
g95
tp687
a(I0
g123
tp688
a(I1
g95
tp689
a(I2
g95
tp690
a(I3
g95
tp691
a(I0
g123
tp692
a(I1
g95
tp693
a(I2
g95
tp694
a(I3
g95
tp695
a(I0
g123
tp696
a(I1
g123
tp697
a(I2
g93
tp698
a(I3
g95
tp699
a(I0
g123
tp700
asS'length'
p701
I1200
sS'agents'
p702
(lp703
(igame
Agent
p704
(dp705
S'index'
p706
I0
sba(igame
Agent
p707
(dp708
g706
I0
sba(igame
Agent
p709
(dp710
g706
I0
sba(igame
Agent
p711
(dp712
g706
I0
sbasS'redTeamName'
p713
S'Red'
p714
s.