(dp1
S'layout'
p2
(ilayout
Layout
p3
(dp4
S'capsules'
p5
(lp6
sS'numGhosts'
p7
I4
sS'food'
p8
(igame
Grid
p9
(dp10
S'CELLS_PER_INT'
p11
I30
sS'width'
p12
I18
sS'data'
p13
(lp14
(lp15
I00
aI00
aI00
aI00
aI00
aI00
aI00
aI00
aI00
aI00
aI00
aI00
aI00
aI00
aI00
aI00
aI00
aI00
aI00
aI00
aa(lp16
I00
aI00
aI00
aI00
aI00
aI00
aI00
aI00
aI00
aI00
aI00
aI00
aI00
aI00
aI00
aI00
aI00
aI00
aI00
aI00
aa(lp17
I00
aI00
aI00
aI00
aI00
aI00
aI00
aI00
aI00
aI00
aI00
aI00
aI00
aI00
aI00
aI00
aI00
aI00
aI00
aI00
aa(lp18
I00
aI01
aI00
aI01
aI01
aI01
aI01
aI00
aI01
aI00
aI00
aI01
aI00
aI01
aI01
aI01
aI01
aI01
aI00
aI00
aa(lp19
I00
aI01
aI00
aI00
aI01
aI00
aI00
aI00
aI01
aI00
aI00
aI01
aI00
aI00
aI00
aI00
aI01
aI01
aI00
aI00
aa(lp20
I00
aI01
aI00
aI00
aI01
aI00
aI00
aI00
aI00
aI00
aI00
aI00
aI00
aI00
aI00
aI00
aI01
aI01
aI00
aI00
aa(lp21
I00
aI01
aI00
aI00
aI01
aI00
aI00
aI00
aI00
aI00
aI00
aI00
aI01
aI01
aI00
aI00
aI01
aI01
aI00
aI00
aa(lp22
I00
aI00
aI00
aI00
aI01
aI01
aI00
aI00
aI01
aI01
aI01
aI01
aI00
aI00
aI01
aI00
aI01
aI01
aI00
aI00
aa(lp23
I00
aI00
aI00
aI00
aI00
aI00
aI00
aI00
aI00
aI00
aI00
aI00
aI00
aI00
aI00
aI00
aI00
aI00
aI00
aI00
aa(lp24
I00
aI00
aI00
aI00
aI00
aI00
aI00
aI00
aI00
aI00
aI00
aI00
aI00
aI00
aI00
aI00
aI00
aI00
aI00
aI00
aa(lp25
I00
aI00
aI00
aI00
aI01
aI01
aI00
aI00
aI01
aI01
aI01
aI01
aI00
aI00
aI01
aI00
aI01
aI01
aI00
aI00
aa(lp26
I00
aI01
aI00
aI00
aI01
aI00
aI00
aI00
aI00
aI00
aI00
aI00
aI01
aI01
aI00
aI00
aI01
aI01
aI00
aI00
aa(lp27
I00
aI01
aI00
aI00
aI01
aI00
aI00
aI00
aI00
aI00
aI00
aI00
aI00
aI00
aI00
aI00
aI01
aI01
aI00
aI00
aa(lp28
I00
aI01
aI00
aI00
aI01
aI00
aI00
aI00
aI01
aI00
aI00
aI01
aI00
aI00
aI00
aI00
aI01
aI01
aI00
aI00
aa(lp29
I00
aI01
aI00
aI01
aI01
aI01
aI01
aI00
aI01
aI00
aI00
aI01
aI00
aI01
aI01
aI01
aI01
aI01
aI00
aI00
aa(lp30
I00
aI00
aI00
aI00
aI00
aI00
aI00
aI00
aI00
aI00
aI00
aI00
aI00
aI00
aI00
aI00
aI00
aI00
aI00
aI00
aa(lp31
I00
aI00
aI00
aI00
aI00
aI00
aI00
aI00
aI00
aI00
aI00
aI00
aI00
aI00
aI00
aI00
aI00
aI00
aI00
aI00
aa(lp32
I00
aI00
aI00
aI00
aI00
aI00
aI00
aI00
aI00
aI00
aI00
aI00
aI00
aI00
aI00
aI00
aI00
aI00
aI00
aI00
aasS'height'
p33
I20
sbsS'agentPositions'
p34
(lp35
(I00
(I1
I18
tp36
tp37
a(I00
(I16
I18
tp38
tp39
a(I00
(I1
I1
tp40
tp41
a(I00
(I16
I1
tp42
tp43
asg33
I20
sg12
I18
sS'walls'
p44
(igame
Grid
p45
(dp46
g11
I30
sg12
I18
sg13
(lp47
(lp48
I01
aI01
aI01
aI01
aI01
aI01
aI01
aI01
aI01
aI01
aI01
aI01
aI01
aI01
aI01
aI01
aI01
aI01
aI01
aI01
aa(lp49
I01
aI00
aI00
aI00
aI00
aI00
aI00
aI00
aI00
aI01
aI01
aI00
aI00
aI00
aI00
aI00
aI00
aI00
aI00
aI01
aa(lp50
I01
aI01
aI01
aI01
aI01
aI01
aI01
aI01
aI00
aI01
aI01
aI00
aI01
aI01
aI01
aI01
aI01
aI01
aI01
aI01
aa(lp51
I01
aI00
aI00
aI00
aI00
aI00
aI00
aI00
aI00
aI01
aI01
aI00
aI00
aI00
aI00
aI00
aI00
aI00
aI01
aI01
aa(lp52
I01
aI00
aI01
aI01
aI00
aI01
aI01
aI01
aI00
aI00
aI00
aI00
aI01
aI01
aI01
aI01
aI00
aI00
aI01
aI01
aa(lp53
I01
aI00
aI01
aI01
aI00
aI00
aI00
aI00
aI00
aI00
aI00
aI00
aI00
aI00
aI00
aI00
aI00
aI00
aI01
aI01
aa(lp54
I01
aI00
aI00
aI00
aI00
aI01
aI01
aI00
aI01
aI01
aI01
aI01
aI00
aI00
aI00
aI01
aI00
aI00
aI01
aI01
aa(lp55
I01
aI00
aI01
aI01
aI00
aI00
aI01
aI00
aI00
aI00
aI00
aI00
aI00
aI01
aI00
aI01
aI00
aI00
aI01
aI01
aa(lp56
I01
aI00
aI00
aI00
aI00
aI00
aI01
aI00
aI01
aI01
aI01
aI01
aI00
aI01
aI00
aI01
aI00
aI00
aI01
aI01
aa(lp57
I01
aI00
aI00
aI00
aI00
aI00
aI01
aI00
aI01
aI01
aI01
aI01
aI00
aI01
aI00
aI01
aI00
aI00
aI01
aI01
aa(lp58
I01
aI00
aI01
aI01
aI00
aI00
aI01
aI00
aI00
aI00
aI00
aI00
aI00
aI01
aI00
aI01
aI00
aI00
aI01
aI01
aa(lp59
I01
aI00
aI00
aI00
aI00
aI01
aI01
aI00
aI01
aI01
aI01
aI01
aI00
aI00
aI00
aI01
aI00
aI00
aI01
aI01
aa(lp60
I01
aI00
aI01
aI01
aI00
aI00
aI00
aI00
aI00
aI00
aI00
aI00
aI00
aI00
aI00
aI00
aI00
aI00
aI01
aI01
aa(lp61
I01
aI00
aI01
aI01
aI00
aI01
aI01
aI01
aI00
aI00
aI00
aI00
aI01
aI01
aI01
aI01
aI00
aI00
aI01
aI01
aa(lp62
I01
aI00
aI00
aI00
aI00
aI00
aI00
aI00
aI00
aI01
aI01
aI00
aI00
aI00
aI00
aI00
aI00
aI00
aI01
aI01
aa(lp63
I01
aI01
aI01
aI01
aI01
aI01
aI01
aI01
aI00
aI01
aI01
aI00
aI01
aI01
aI01
aI01
aI01
aI01
aI01
aI01
aa(lp64
I01
aI00
aI00
aI00
aI00
aI00
aI00
aI00
aI00
aI01
aI01
aI00
aI00
aI00
aI00
aI00
aI00
aI00
aI00
aI01
aa(lp65
I01
aI01
aI01
aI01
aI01
aI01
aI01
aI01
aI01
aI01
aI01
aI01
aI01
aI01
aI01
aI01
aI01
aI01
aI01
aI01
aasg33
I20
sbsS'totalFood'
p66
I74
sS'layoutText'
p67
(lp68
S'%%%%%%%%%%%%%%%%%%'
p69
aS'%1%%%%%%%%%%%%%%2%'
p70
aS'% %.....  .....% %'
p71
aS'% %.....  .....% %'
p72
aS'% %.% %%%%%% %.% %'
p73
aS'% %.%  .  .  %.% %'
p74
aS'% %.% .%%%%. %.% %'
p75
aS'% % % .    . % % %'
p76
aS'%  .. %.%%.% ..  %'
p77
aS'%%%%  %.%%.%  %%%%'
p78
aS'%%%%  %.%%.%  %%%%'
p79
aS'%  .. %.%%.% ..  %'
p80
aS'% % %        % % %'
p81
aS'% %.% %%%%%% %.% %'
p82
aS'% %.% %.  .% %.% %'
p83
aS'% %.....  .....% %'
p84
aS'% %.%% %  % %%.% %'
p85
aS'% % %% %  % %% % %'
p86
aS'%3%....    ....%4%'
p87
aS'%%%%%%%%%%%%%%%%%%'
p88
asbsS'blueTeamName'
p89
S'Blue'
p90
sS'actions'
p91
(lp92
(I1
S'South'
p93
tp94
a(I2
S'North'
p95
tp96
a(I3
g95
tp97
a(I0
g93
tp98
a(I1
g93
tp99
a(I2
g95
tp100
a(I3
g95
tp101
a(I0
g93
tp102
a(I1
g93
tp103
a(I2
g95
tp104
a(I3
g95
tp105
a(I0
g93
tp106
a(I1
g93
tp107
a(I2
g95
tp108
a(I3
g95
tp109
a(I0
g93
tp110
a(I1
g93
tp111
a(I2
g95
tp112
a(I3
g95
tp113
a(I0
g93
tp114
a(I1
g93
tp115
a(I2
g95
tp116
a(I3
g95
tp117
a(I0
g93
tp118
a(I1
g93
tp119
a(I2
g95
tp120
a(I3
g95
tp121
a(I0
g93
tp122
a(I1
S'West'
p123
tp124
a(I2
S'East'
p125
tp126
a(I3
g123
tp127
a(I0
g125
tp128
a(I1
g123
tp129
a(I2
g125
tp130
a(I3
g123
tp131
a(I0
g125
tp132
a(I1
g123
tp133
a(I2
g125
tp134
a(I3
g93
tp135
a(I0
g125
tp136
a(I1
g123
tp137
a(I2
g125
tp138
a(I3
g93
tp139
a(I0
g125
tp140
a(I1
g95
tp141
a(I2
g93
tp142
a(I3
g93
tp143
a(I0
g95
tp144
a(I1
g123
tp145
a(I2
g125
tp146
a(I3
g93
tp147
a(I0
g125
tp148
a(I1
g123
tp149
a(I2
g125
tp150
a(I3
g123
tp151
a(I0
g125
tp152
a(I1
S'Stop'
p153
tp154
a(I2
g125
tp155
a(I3
g123
tp156
a(I0
g125
tp157
a(I1
g153
tp158
a(I2
g125
tp159
a(I3
g123
tp160
a(I0
g125
tp161
a(I1
g123
tp162
a(I2
g125
tp163
a(I3
g125
tp164
a(I0
g93
tp165
a(I1
g123
tp166
a(I2
g95
tp167
a(I3
g95
tp168
a(I0
g93
tp169
a(I1
g123
tp170
a(I2
g95
tp171
a(I3
g95
tp172
a(I0
g93
tp173
a(I1
g123
tp174
a(I2
g95
tp175
a(I3
g95
tp176
a(I0
g93
tp177
a(I1
g95
tp178
a(I2
g95
tp179
a(I3
g123
tp180
a(I0
g93
tp181
a(I1
g95
tp182
a(I2
g95
tp183
a(I3
g123
tp184
a(I0
g93
tp185
a(I1
g125
tp186
a(I2
g125
tp187
a(I3
g95
tp188
a(I0
g93
tp189
a(I1
g123
tp190
a(I2
g95
tp191
a(I3
g95
tp192
a(I0
g125
tp193
a(I1
g123
tp194
a(I2
g95
tp195
a(I3
g95
tp196
a(I0
g125
tp197
a(I1
g125
tp198
a(I2
g125
tp199
a(I3
g95
tp200
a(I0
g125
tp201
a(I1
g125
tp202
a(I2
g95
tp203
a(I3
g95
tp204
a(I0
g125
tp205
a(I1
g125
tp206
a(I2
g95
tp207
a(I3
g125
tp208
a(I0
g95
tp209
a(I1
g125
tp210
a(I2
g95
tp211
a(I3
g125
tp212
a(I0
g125
tp213
a(I1
g123
tp214
a(I2
g125
tp215
a(I3
g95
tp216
a(I0
g95
tp217
a(I1
g123
tp218
a(I2
g125
tp219
a(I3
g95
tp220
a(I0
g95
tp221
a(I1
g125
tp222
a(I2
g93
tp223
a(I3
g95
tp224
a(I0
g125
tp225
a(I1
g125
tp226
a(I2
g93
tp227
a(I3
g95
tp228
a(I0
g125
tp229
a(I1
g125
tp230
a(I2
g93
tp231
a(I3
g125
tp232
a(I0
g125
tp233
a(I1
g123
tp234
a(I2
g93
tp235
a(I3
g125
tp236
a(I0
g93
tp237
a(I1
g123
tp238
a(I2
g93
tp239
a(I3
g93
tp240
a(I0
g93
tp241
a(I1
g123
tp242
a(I2
g93
tp243
a(I3
g93
tp244
a(I0
g93
tp245
a(I1
g123
tp246
a(I2
g123
tp247
a(I3
g93
tp248
a(I0
g93
tp249
a(I1
g123
tp250
a(I2
g123
tp251
a(I3
g93
tp252
a(I0
g93
tp253
a(I1
g95
tp254
a(I2
g93
tp255
a(I3
g93
tp256
a(I0
g93
tp257
a(I1
g95
tp258
a(I2
g125
tp259
a(I3
g123
tp260
a(I0
g93
tp261
a(I1
g123
tp262
a(I2
g95
tp263
a(I3
g93
tp264
a(I0
g125
tp265
a(I1
g123
tp266
a(I2
g95
tp267
a(I3
g123
tp268
a(I0
g125
tp269
a(I1
g95
tp270
a(I2
g95
tp271
a(I3
g95
tp272
a(I0
g95
tp273
a(I1
g125
tp274
a(I2
g95
tp275
a(I3
g95
tp276
a(I0
g95
tp277
a(I1
g125
tp278
a(I2
g95
tp279
a(I3
g123
tp280
a(I0
g95
tp281
a(I1
g125
tp282
a(I2
g95
tp283
a(I3
g123
tp284
a(I0
g95
tp285
a(I1
g125
tp286
a(I2
g95
tp287
a(I3
g93
tp288
a(I0
g95
tp289
a(I1
g125
tp290
a(I2
g95
tp291
a(I3
g93
tp292
a(I0
g125
tp293
a(I1
g125
tp294
a(I2
g125
tp295
a(I3
g93
tp296
a(I0
g125
tp297
a(I1
g123
tp298
a(I2
g125
tp299
a(I3
g95
tp300
a(I0
g95
tp301
a(I1
g123
tp302
a(I2
g125
tp303
a(I3
g95
tp304
a(I0
g125
tp305
a(I1
g93
tp306
a(I2
g125
tp307
a(I3
g95
tp308
a(I0
g125
tp309
a(I1
g123
tp310
a(I2
g95
tp311
a(I3
g93
tp312
a(I0
g93
tp313
a(I1
g123
tp314
a(I2
g95
tp315
a(I3
g93
tp316
a(I0
g123
tp317
a(I1
g123
tp318
a(I2
g95
tp319
a(I3
g93
tp320
a(I0
g123
tp321
a(I1
g123
tp322
a(I2
g95
tp323
a(I3
g93
tp324
a(I0
g123
tp325
a(I1
g93
tp326
a(I2
g95
tp327
a(I3
g93
tp328
a(I0
g123
tp329
a(I1
g93
tp330
a(I2
g95
tp331
a(I3
g125
tp332
a(I0
g93
tp333
a(I1
g93
tp334
a(I2
g95
tp335
a(I3
g125
tp336
a(I0
g93
tp337
a(I1
g93
tp338
a(I2
g95
tp339
a(I3
g93
tp340
a(I0
g93
tp341
a(I1
g93
tp342
a(I2
g123
tp343
a(I3
g93
tp344
a(I0
g93
tp345
a(I1
g125
tp346
a(I2
g123
tp347
a(I3
g93
tp348
a(I0
g93
tp349
a(I1
g125
tp350
a(I2
g93
tp351
a(I3
g123
tp352
a(I0
g125
tp353
a(I1
g95
tp354
a(I2
g93
tp355
a(I3
g123
tp356
a(I0
g125
tp357
a(I1
g125
tp358
a(I2
g93
tp359
a(I3
g95
tp360
a(I0
g95
tp361
a(I1
g125
tp362
a(I2
g93
tp363
a(I3
g93
tp364
a(I0
g125
tp365
a(I1
g125
tp366
a(I2
g93
tp367
a(I3
g125
tp368
a(I0
g125
tp369
a(I1
g125
tp370
a(I2
g125
tp371
a(I3
g125
tp372
a(I0
g125
tp373
a(I1
g125
tp374
a(I2
g125
tp375
a(I3
g95
tp376
a(I0
g125
tp377
a(I1
g123
tp378
a(I2
g123
tp379
a(I3
g95
tp380
a(I0
g93
tp381
a(I1
g123
tp382
a(I2
g123
tp383
a(I3
g95
tp384
a(I0
g93
tp385
a(I1
g123
tp386
a(I2
g95
tp387
a(I3
g123
tp388
a(I0
g93
tp389
a(I1
g93
tp390
a(I2
g95
tp391
a(I3
g123
tp392
a(I0
g93
tp393
a(I1
g93
tp394
a(I2
g95
tp395
a(I3
g95
tp396
a(I0
g93
tp397
a(I1
g93
tp398
a(I2
g95
tp399
a(I3
g95
tp400
a(I0
g93
tp401
a(I1
g93
tp402
a(I2
g95
tp403
a(I3
g95
tp404
a(I0
g93
tp405
a(I1
g93
tp406
a(I2
g125
tp407
a(I3
g95
tp408
a(I0
g125
tp409
a(I1
g123
tp410
a(I2
g125
tp411
a(I3
g95
tp412
a(I0
g125
tp413
a(I1
g123
tp414
a(I2
g93
tp415
a(I3
g93
tp416
a(I0
g125
tp417
a(I1
g125
tp418
a(I2
g93
tp419
a(I3
g93
tp420
a(I0
g125
tp421
a(I1
g125
tp422
a(I2
g125
tp423
a(I3
g93
tp424
a(I0
g93
tp425
a(I1
g125
tp426
a(I2
g93
tp427
a(I3
g95
tp428
a(I0
g93
tp429
a(I1
g125
tp430
a(I2
g95
tp431
a(I3
g93
tp432
a(I0
g93
tp433
a(I1
g123
tp434
a(I2
g123
tp435
a(I3
g93
tp436
a(I0
g93
tp437
a(I1
g123
tp438
a(I2
g93
tp439
a(I3
g93
tp440
a(I0
g125
tp441
a(I1
g95
tp442
a(I2
g93
tp443
a(I3
g125
tp444
a(I0
g125
tp445
a(I1
g95
tp446
a(I2
g125
tp447
a(I3
g125
tp448
a(I0
g95
tp449
a(I1
g95
tp450
a(I2
g125
tp451
a(I3
g93
tp452
a(I0
g95
tp453
a(I1
g93
tp454
a(I2
g125
tp455
a(I3
g93
tp456
a(I0
g93
tp457
a(I1
g93
tp458
a(I2
g125
tp459
a(I3
g93
tp460
a(I0
g93
tp461
a(I1
g93
tp462
a(I2
g125
tp463
a(I3
g123
tp464
a(I0
g125
tp465
a(I1
g93
tp466
a(I2
g125
tp467
a(I3
g125
tp468
a(I0
g125
tp469
a(I1
g93
tp470
a(I2
g95
tp471
a(I3
g95
tp472
a(I0
g123
tp473
a(I1
g93
tp474
a(I2
g125
tp475
a(I3
g95
tp476
a(I0
g123
tp477
a(I1
g93
tp478
a(I2
g93
tp479
a(I3
g95
tp480
a(I0
g123
tp481
a(I1
g93
tp482
a(I2
g93
tp483
a(I3
g95
tp484
a(I0
g125
tp485
a(I1
g123
tp486
a(I2
g93
tp487
a(I3
g95
tp488
a(I0
g125
tp489
a(I1
g123
tp490
a(I2
g125
tp491
a(I3
g95
tp492
a(I0
g125
tp493
a(I1
g123
tp494
a(I2
g93
tp495
a(I3
g93
tp496
a(I0
g123
tp497
a(I1
g123
tp498
a(I2
g93
tp499
a(I3
g93
tp500
a(I0
g123
tp501
a(I1
g93
tp502
a(I2
g125
tp503
a(I3
g125
tp504
a(I0
g125
tp505
a(I1
g93
tp506
a(I2
g93
tp507
a(I3
g125
tp508
a(I0
g125
tp509
a(I1
g93
tp510
a(I2
g93
tp511
a(I3
g93
tp512
a(I0
g123
tp513
a(I1
g93
tp514
a(I2
g93
tp515
a(I3
g93
tp516
a(I0
g123
tp517
a(I1
g93
tp518
a(I2
g93
tp519
a(I3
g93
tp520
a(I0
g125
tp521
a(I1
g93
tp522
a(I2
g123
tp523
a(I3
g93
tp524
a(I0
g125
tp525
a(I1
g93
tp526
a(I2
g153
tp527
a(I3
g123
tp528
a(I0
g125
tp529
a(I1
g123
tp530
a(I2
g95
tp531
a(I3
g123
tp532
a(I0
g95
tp533
a(I1
g123
tp534
a(I2
g95
tp535
a(I3
g95
tp536
a(I0
g95
tp537
a(I1
g123
tp538
a(I2
g95
tp539
a(I3
g95
tp540
a(I0
g95
tp541
a(I1
g123
tp542
a(I2
g95
tp543
a(I3
g95
tp544
a(I0
g95
tp545
a(I1
g123
tp546
a(I2
g95
tp547
a(I3
g123
tp548
a(I0
g95
tp549
a(I1
g123
tp550
a(I2
g95
tp551
a(I3
g123
tp552
a(I0
g125
tp553
a(I1
g123
tp554
a(I2
g95
tp555
a(I3
g95
tp556
a(I0
g125
tp557
a(I1
g123
tp558
a(I2
g125
tp559
a(I3
g95
tp560
a(I0
g93
tp561
a(I1
g123
tp562
a(I2
g125
tp563
a(I3
g95
tp564
a(I0
g93
tp565
a(I1
g95
tp566
a(I2
g93
tp567
a(I3
g95
tp568
a(I0
g93
tp569
a(I1
g93
tp570
a(I2
g93
tp571
a(I3
g95
tp572
a(I0
g93
tp573
a(I1
g125
tp574
a(I2
g93
tp575
a(I3
g125
tp576
a(I0
g93
tp577
a(I1
g125
tp578
a(I2
g93
tp579
a(I3
g125
tp580
a(I0
g123
tp581
a(I1
g125
tp582
a(I2
g125
tp583
a(I3
g93
tp584
a(I0
g123
tp585
a(I1
g125
tp586
a(I2
g125
tp587
a(I3
g93
tp588
a(I0
g123
tp589
a(I1
g125
tp590
a(I2
g125
tp591
a(I3
g93
tp592
a(I0
g123
tp593
a(I1
g125
tp594
a(I2
g125
tp595
a(I3
g93
tp596
a(I0
g123
tp597
a(I1
g95
tp598
a(I2
g125
tp599
a(I3
g93
tp600
a(I0
g95
tp601
a(I1
g125
tp602
a(I2
g95
tp603
a(I3
g123
tp604
a(I0
g95
tp605
a(I1
g153
tp606
a(I2
g123
tp607
a(I3
g123
tp608
a(I0
g95
tp609
a(I1
g153
tp610
a(I2
g93
tp611
a(I3
g123
tp612
a(I0
g95
tp613
a(I1
g123
tp614
a(I2
g125
tp615
a(I3
g125
tp616
a(I0
g95
tp617
a(I1
g125
tp618
a(I2
g93
tp619
a(I3
g125
tp620
a(I0
g123
tp621
a(I1
g123
tp622
a(I2
g93
tp623
a(I3
g125
tp624
a(I0
g95
tp625
a(I1
g123
tp626
a(I2
g95
tp627
a(I3
g93
tp628
a(I0
g123
tp629
a(I1
g125
tp630
a(I2
g95
tp631
a(I3
g93
tp632
a(I0
g125
tp633
a(I1
g93
tp634
a(I2
g123
tp635
a(I3
g93
tp636
a(I0
g95
tp637
a(I1
g95
tp638
a(I2
g95
tp639
a(I3
g123
tp640
a(I0
g125
tp641
a(I1
g125
tp642
a(I2
g125
tp643
a(I3
g123
tp644
a(I0
g125
tp645
a(I1
g93
tp646
a(I2
g93
tp647
a(I3
g125
tp648
a(I0
g125
tp649
a(I1
g95
tp650
a(I2
g93
tp651
a(I3
g125
tp652
a(I0
g125
tp653
a(I1
g123
tp654
a(I2
g93
tp655
a(I3
g95
tp656
a(I0
g123
tp657
a(I1
g123
tp658
a(I2
g95
tp659
a(I3
g95
tp660
a(I0
g123
tp661
a(I1
g123
tp662
a(I2
g95
tp663
a(I3
g95
tp664
a(I0
g123
tp665
a(I1
g153
tp666
a(I2
g123
tp667
a(I3
g95
tp668
a(I0
g123
tp669
a(I1
g125
tp670
a(I2
g95
tp671
a(I3
g95
tp672
a(I0
g123
tp673
a(I1
g93
tp674
a(I2
g125
tp675
a(I3
g95
tp676
a(I0
g93
tp677
a(I1
g125
tp678
a(I2
g93
tp679
a(I3
g95
tp680
a(I0
g95
tp681
a(I1
g125
tp682
a(I2
g93
tp683
a(I3
g95
tp684
a(I0
g95
tp685
a(I1
g153
tp686
a(I2
g93
tp687
a(I3
g95
tp688
a(I0
g95
tp689
a(I1
g123
tp690
a(I2
g93
tp691
a(I3
g95
tp692
a(I0
g125
tp693
a(I1
g123
tp694
a(I2
g95
tp695
a(I3
g123
tp696
a(I0
g125
tp697
a(I1
g123
tp698
a(I2
g95
tp699
a(I3
g123
tp700
a(I0
g125
tp701
a(I1
g95
tp702
a(I2
g95
tp703
a(I3
g125
tp704
a(I0
g125
tp705
a(I1
g153
tp706
a(I2
g95
tp707
a(I3
g125
tp708
a(I0
g125
tp709
a(I1
g93
tp710
a(I2
g123
tp711
a(I3
g95
tp712
a(I0
g125
tp713
a(I1
g125
tp714
a(I2
g93
tp715
a(I3
g95
tp716
a(I0
g95
tp717
a(I1
g93
tp718
a(I2
g125
tp719
a(I3
g95
tp720
a(I0
g123
tp721
a(I1
g93
tp722
a(I2
g93
tp723
a(I3
g123
tp724
a(I0
g93
tp725
a(I1
g93
tp726
a(I2
g93
tp727
a(I3
g93
tp728
a(I0
g123
tp729
a(I1
g123
tp730
a(I2
g93
tp731
a(I3
g123
tp732
a(I0
g123
tp733
a(I1
g123
tp734
a(I2
g123
tp735
a(I3
g123
tp736
a(I0
g123
tp737
a(I1
g123
tp738
a(I2
g123
tp739
a(I3
g125
tp740
a(I0
g123
tp741
a(I1
g123
tp742
a(I2
g123
tp743
a(I3
g125
tp744
a(I0
g123
tp745
a(I1
g123
tp746
a(I2
g123
tp747
a(I3
g125
tp748
a(I0
g93
tp749
a(I1
g95
tp750
a(I2
g123
tp751
a(I3
g93
tp752
a(I0
g93
tp753
a(I1
g95
tp754
a(I2
g95
tp755
a(I3
g93
tp756
a(I0
g93
tp757
a(I1
g95
tp758
a(I2
g95
tp759
a(I3
g93
tp760
a(I0
g93
tp761
a(I1
g125
tp762
a(I2
g95
tp763
a(I3
g93
tp764
a(I0
g93
tp765
a(I1
g125
tp766
a(I2
g125
tp767
a(I3
g93
tp768
a(I0
g93
tp769
a(I1
g125
tp770
a(I2
g125
tp771
a(I3
g93
tp772
a(I0
g93
tp773
a(I1
g125
tp774
a(I2
g125
tp775
a(I3
g93
tp776
a(I0
g93
tp777
a(I1
g125
tp778
a(I2
g125
tp779
a(I3
g93
tp780
a(I0
g93
tp781
a(I1
g125
tp782
a(I2
g95
tp783
a(I3
g93
tp784
a(I0
g93
tp785
a(I1
g153
tp786
a(I2
g125
tp787
a(I3
g93
tp788
a(I0
g93
tp789
a(I1
g125
tp790
a(I2
g93
tp791
a(I3
g93
tp792
a(I0
g93
tp793
a(I1
g153
tp794
a(I2
g93
tp795
a(I3
g93
tp796
a(I0
g123
tp797
a(I1
g153
tp798
a(I2
g93
tp799
a(I3
g123
tp800
a(I0
g125
tp801
a(I1
g123
tp802
a(I2
g93
tp803
a(I3
g123
tp804
a(I0
g95
tp805
a(I1
g123
tp806
a(I2
g95
tp807
a(I3
g95
tp808
a(I0
g93
tp809
a(I1
g123
tp810
a(I2
g95
tp811
a(I3
g93
tp812
a(I0
g125
tp813
a(I1
g95
tp814
a(I2
g95
tp815
a(I3
g95
tp816
a(I0
g125
tp817
a(I1
g93
tp818
a(I2
g123
tp819
a(I3
g93
tp820
a(I0
g95
tp821
a(I1
g93
tp822
a(I2
g95
tp823
a(I3
g95
tp824
a(I0
g125
tp825
a(I1
g93
tp826
a(I2
g125
tp827
a(I3
g123
tp828
a(I0
g93
tp829
a(I1
g93
tp830
a(I2
g93
tp831
a(I3
g125
tp832
a(I0
g93
tp833
a(I1
g93
tp834
a(I2
g93
tp835
a(I3
g93
tp836
a(I0
g125
tp837
a(I1
g93
tp838
a(I2
g93
tp839
a(I3
g123
tp840
a(I0
g95
tp841
a(I1
g93
tp842
a(I2
g93
tp843
a(I3
g93
tp844
a(I0
g93
tp845
a(I1
g93
tp846
a(I2
g123
tp847
a(I3
g95
tp848
a(I0
g93
tp849
a(I1
g123
tp850
a(I2
g123
tp851
a(I3
g95
tp852
a(I0
g93
tp853
a(I1
g123
tp854
a(I2
g125
tp855
a(I3
g125
tp856
a(I0
g93
tp857
a(I1
g123
tp858
a(I2
g125
tp859
a(I3
g93
tp860
a(I0
g93
tp861
a(I1
g123
tp862
a(I2
g123
tp863
a(I3
g123
tp864
a(I0
g93
tp865
a(I1
g95
tp866
a(I2
g123
tp867
a(I3
g125
tp868
a(I0
g93
tp869
a(I1
g123
tp870
a(I2
g125
tp871
a(I3
g95
tp872
a(I0
g125
tp873
a(I1
g123
tp874
a(I2
g125
tp875
a(I3
g123
tp876
a(I0
g125
tp877
a(I1
g123
tp878
a(I2
g123
tp879
a(I3
g125
tp880
a(I0
g125
tp881
a(I1
g123
tp882
a(I2
g123
tp883
a(I3
g93
tp884
a(I0
g125
tp885
a(I1
g123
tp886
a(I2
g95
tp887
a(I3
g95
tp888
a(I0
g95
tp889
a(I1
g153
tp890
a(I2
g95
tp891
a(I3
g93
tp892
a(I0
g125
tp893
a(I1
g125
tp894
a(I2
g95
tp895
a(I3
g123
tp896
a(I0
g125
tp897
a(I1
g125
tp898
a(I2
g125
tp899
a(I3
g125
tp900
a(I0
g93
tp901
a(I1
g153
tp902
a(I2
g125
tp903
a(I3
g95
tp904
a(I0
g93
tp905
a(I1
g123
tp906
a(I2
g123
tp907
a(I3
g93
tp908
a(I0
g95
tp909
a(I1
g153
tp910
a(I2
g123
tp911
a(I3
g123
tp912
a(I0
g95
tp913
a(I1
g125
tp914
a(I2
g93
tp915
a(I3
g125
tp916
a(I0
g125
tp917
a(I1
g123
tp918
a(I2
g93
tp919
a(I3
g95
tp920
a(I0
g125
tp921
a(I1
g93
tp922
a(I2
g93
tp923
a(I3
g123
tp924
a(I0
g125
tp925
a(I1
g93
tp926
a(I2
g125
tp927
a(I3
g125
tp928
a(I0
g125
tp929
a(I1
g93
tp930
a(I2
g125
tp931
a(I3
g123
tp932
a(I0
g125
tp933
a(I1
g93
tp934
a(I2
g123
tp935
a(I3
g125
tp936
a(I0
g93
tp937
a(I1
g93
tp938
a(I2
g125
tp939
a(I3
g93
tp940
a(I0
g125
tp941
a(I1
g93
tp942
a(I2
g123
tp943
a(I3
g125
tp944
a(I0
g125
tp945
a(I1
g93
tp946
a(I2
g125
tp947
a(I3
g125
tp948
a(I0
g95
tp949
a(I1
g123
tp950
a(I2
g125
tp951
a(I3
g95
tp952
a(I0
g95
tp953
a(I1
g123
tp954
a(I2
g125
tp955
a(I3
g95
tp956
a(I0
g95
tp957
a(I1
g123
tp958
a(I2
g125
tp959
a(I3
g95
tp960
a(I0
g95
tp961
a(I1
g123
tp962
a(I2
g95
tp963
a(I3
g93
tp964
a(I0
g95
tp965
a(I1
g95
tp966
a(I2
g95
tp967
a(I3
g93
tp968
a(I0
g123
tp969
a(I1
g123
tp970
a(I2
g95
tp971
a(I3
g93
tp972
a(I0
g123
tp973
a(I1
g123
tp974
a(I2
g123
tp975
a(I3
g123
tp976
a(I0
g123
tp977
a(I1
g123
tp978
a(I2
g95
tp979
a(I3
g123
tp980
a(I0
g123
tp981
a(I1
g123
tp982
a(I2
g123
tp983
a(I3
g123
tp984
a(I0
g95
tp985
a(I1
g123
tp986
a(I2
g123
tp987
a(I3
g95
tp988
a(I0
g125
tp989
a(I1
g123
tp990
a(I2
g123
tp991
a(I3
g125
tp992
a(I0
g125
tp993
a(I1
g123
tp994
a(I2
g93
tp995
a(I3
g93
tp996
a(I0
g93
tp997
a(I1
g93
tp998
a(I2
g125
tp999
a(I3
g95
tp1000
a(I0
g93
tp1001
a(I1
g123
tp1002
a(I2
g95
tp1003
a(I3
g93
tp1004
a(I0
g93
tp1005
a(I1
g93
tp1006
a(I2
g123
tp1007
a(I3
g123
tp1008
a(I0
g93
tp1009
a(I1
g93
tp1010
a(I2
g93
tp1011
a(I3
g125
tp1012
a(I0
g93
tp1013
a(I1
g93
tp1014
a(I2
g125
tp1015
a(I3
g123
tp1016
a(I0
g123
tp1017
a(I1
g125
tp1018
a(I2
g95
tp1019
a(I3
g125
tp1020
a(I0
g123
tp1021
a(I1
g93
tp1022
a(I2
g123
tp1023
a(I3
g125
tp1024
a(I0
g123
tp1025
a(I1
g125
tp1026
a(I2
g93
tp1027
a(I3
g123
tp1028
a(I0
g123
tp1029
a(I1
g125
tp1030
a(I2
g123
tp1031
a(I3
g123
tp1032
a(I0
g123
tp1033
a(I1
g125
tp1034
a(I2
g123
tp1035
a(I3
g125
tp1036
a(I0
g93
tp1037
a(I1
g125
tp1038
asS'length'
p1039
I1200
sS'agents'
p1040
(lp1041
(igame
Agent
p1042
(dp1043
S'index'
p1044
I0
sba(igame
Agent
p1045
(dp1046
g1044
I0
sba(igame
Agent
p1047
(dp1048
g1044
I0
sba(igame
Agent
p1049
(dp1050
g1044
I0
sbasS'redTeamName'
p1051
S'Red'
p1052
s.