(dp1
S'layout'
p2
(ilayout
Layout
p3
(dp4
S'capsules'
p5
(lp6
sS'numGhosts'
p7
I4
sS'food'
p8
(igame
Grid
p9
(dp10
S'CELLS_PER_INT'
p11
I30
sS'width'
p12
I18
sS'data'
p13
(lp14
(lp15
I00
aI00
aI00
aI00
aI00
aI00
aI00
aI00
aI00
aI00
aI00
aI00
aI00
aI00
aI00
aI00
aI00
aI00
aI00
aI00
aa(lp16
I00
aI00
aI00
aI00
aI00
aI00
aI00
aI00
aI00
aI00
aI00
aI00
aI00
aI00
aI00
aI00
aI00
aI00
aI00
aI00
aa(lp17
I00
aI00
aI00
aI00
aI00
aI00
aI00
aI00
aI00
aI00
aI00
aI00
aI00
aI00
aI00
aI00
aI00
aI00
aI00
aI00
aa(lp18
I00
aI01
aI00
aI01
aI01
aI01
aI01
aI00
aI01
aI00
aI00
aI01
aI00
aI01
aI01
aI01
aI01
aI01
aI00
aI00
aa(lp19
I00
aI01
aI00
aI00
aI01
aI00
aI00
aI00
aI01
aI00
aI00
aI01
aI00
aI00
aI00
aI00
aI01
aI01
aI00
aI00
aa(lp20
I00
aI01
aI00
aI00
aI01
aI00
aI00
aI00
aI00
aI00
aI00
aI00
aI00
aI00
aI00
aI00
aI01
aI01
aI00
aI00
aa(lp21
I00
aI01
aI00
aI00
aI01
aI00
aI00
aI00
aI00
aI00
aI00
aI00
aI01
aI01
aI00
aI00
aI01
aI01
aI00
aI00
aa(lp22
I00
aI00
aI00
aI00
aI01
aI01
aI00
aI00
aI01
aI01
aI01
aI01
aI00
aI00
aI01
aI00
aI01
aI01
aI00
aI00
aa(lp23
I00
aI00
aI00
aI00
aI00
aI00
aI00
aI00
aI00
aI00
aI00
aI00
aI00
aI00
aI00
aI00
aI00
aI00
aI00
aI00
aa(lp24
I00
aI00
aI00
aI00
aI00
aI00
aI00
aI00
aI00
aI00
aI00
aI00
aI00
aI00
aI00
aI00
aI00
aI00
aI00
aI00
aa(lp25
I00
aI00
aI00
aI00
aI01
aI01
aI00
aI00
aI01
aI01
aI01
aI01
aI00
aI00
aI01
aI00
aI01
aI01
aI00
aI00
aa(lp26
I00
aI01
aI00
aI00
aI01
aI00
aI00
aI00
aI00
aI00
aI00
aI00
aI01
aI01
aI00
aI00
aI01
aI01
aI00
aI00
aa(lp27
I00
aI01
aI00
aI00
aI01
aI00
aI00
aI00
aI00
aI00
aI00
aI00
aI00
aI00
aI00
aI00
aI01
aI01
aI00
aI00
aa(lp28
I00
aI01
aI00
aI00
aI01
aI00
aI00
aI00
aI01
aI00
aI00
aI01
aI00
aI00
aI00
aI00
aI01
aI01
aI00
aI00
aa(lp29
I00
aI01
aI00
aI01
aI01
aI01
aI01
aI00
aI01
aI00
aI00
aI01
aI00
aI01
aI01
aI01
aI01
aI01
aI00
aI00
aa(lp30
I00
aI00
aI00
aI00
aI00
aI00
aI00
aI00
aI00
aI00
aI00
aI00
aI00
aI00
aI00
aI00
aI00
aI00
aI00
aI00
aa(lp31
I00
aI00
aI00
aI00
aI00
aI00
aI00
aI00
aI00
aI00
aI00
aI00
aI00
aI00
aI00
aI00
aI00
aI00
aI00
aI00
aa(lp32
I00
aI00
aI00
aI00
aI00
aI00
aI00
aI00
aI00
aI00
aI00
aI00
aI00
aI00
aI00
aI00
aI00
aI00
aI00
aI00
aasS'height'
p33
I20
sbsS'agentPositions'
p34
(lp35
(I00
(I1
I18
tp36
tp37
a(I00
(I16
I18
tp38
tp39
a(I00
(I1
I1
tp40
tp41
a(I00
(I16
I1
tp42
tp43
asg33
I20
sg12
I18
sS'walls'
p44
(igame
Grid
p45
(dp46
g11
I30
sg12
I18
sg13
(lp47
(lp48
I01
aI01
aI01
aI01
aI01
aI01
aI01
aI01
aI01
aI01
aI01
aI01
aI01
aI01
aI01
aI01
aI01
aI01
aI01
aI01
aa(lp49
I01
aI00
aI00
aI00
aI00
aI00
aI00
aI00
aI00
aI01
aI01
aI00
aI00
aI00
aI00
aI00
aI00
aI00
aI00
aI01
aa(lp50
I01
aI01
aI01
aI01
aI01
aI01
aI01
aI01
aI00
aI01
aI01
aI00
aI01
aI01
aI01
aI01
aI01
aI01
aI01
aI01
aa(lp51
I01
aI00
aI00
aI00
aI00
aI00
aI00
aI00
aI00
aI01
aI01
aI00
aI00
aI00
aI00
aI00
aI00
aI00
aI01
aI01
aa(lp52
I01
aI00
aI01
aI01
aI00
aI01
aI01
aI01
aI00
aI00
aI00
aI00
aI01
aI01
aI01
aI01
aI00
aI00
aI01
aI01
aa(lp53
I01
aI00
aI01
aI01
aI00
aI00
aI00
aI00
aI00
aI00
aI00
aI00
aI00
aI00
aI00
aI00
aI00
aI00
aI01
aI01
aa(lp54
I01
aI00
aI00
aI00
aI00
aI01
aI01
aI00
aI01
aI01
aI01
aI01
aI00
aI00
aI00
aI01
aI00
aI00
aI01
aI01
aa(lp55
I01
aI00
aI01
aI01
aI00
aI00
aI01
aI00
aI00
aI00
aI00
aI00
aI00
aI01
aI00
aI01
aI00
aI00
aI01
aI01
aa(lp56
I01
aI00
aI00
aI00
aI00
aI00
aI01
aI00
aI01
aI01
aI01
aI01
aI00
aI01
aI00
aI01
aI00
aI00
aI01
aI01
aa(lp57
I01
aI00
aI00
aI00
aI00
aI00
aI01
aI00
aI01
aI01
aI01
aI01
aI00
aI01
aI00
aI01
aI00
aI00
aI01
aI01
aa(lp58
I01
aI00
aI01
aI01
aI00
aI00
aI01
aI00
aI00
aI00
aI00
aI00
aI00
aI01
aI00
aI01
aI00
aI00
aI01
aI01
aa(lp59
I01
aI00
aI00
aI00
aI00
aI01
aI01
aI00
aI01
aI01
aI01
aI01
aI00
aI00
aI00
aI01
aI00
aI00
aI01
aI01
aa(lp60
I01
aI00
aI01
aI01
aI00
aI00
aI00
aI00
aI00
aI00
aI00
aI00
aI00
aI00
aI00
aI00
aI00
aI00
aI01
aI01
aa(lp61
I01
aI00
aI01
aI01
aI00
aI01
aI01
aI01
aI00
aI00
aI00
aI00
aI01
aI01
aI01
aI01
aI00
aI00
aI01
aI01
aa(lp62
I01
aI00
aI00
aI00
aI00
aI00
aI00
aI00
aI00
aI01
aI01
aI00
aI00
aI00
aI00
aI00
aI00
aI00
aI01
aI01
aa(lp63
I01
aI01
aI01
aI01
aI01
aI01
aI01
aI01
aI00
aI01
aI01
aI00
aI01
aI01
aI01
aI01
aI01
aI01
aI01
aI01
aa(lp64
I01
aI00
aI00
aI00
aI00
aI00
aI00
aI00
aI00
aI01
aI01
aI00
aI00
aI00
aI00
aI00
aI00
aI00
aI00
aI01
aa(lp65
I01
aI01
aI01
aI01
aI01
aI01
aI01
aI01
aI01
aI01
aI01
aI01
aI01
aI01
aI01
aI01
aI01
aI01
aI01
aI01
aasg33
I20
sbsS'totalFood'
p66
I74
sS'layoutText'
p67
(lp68
S'%%%%%%%%%%%%%%%%%%'
p69
aS'%1%%%%%%%%%%%%%%2%'
p70
aS'% %.....  .....% %'
p71
aS'% %.....  .....% %'
p72
aS'% %.% %%%%%% %.% %'
p73
aS'% %.%  .  .  %.% %'
p74
aS'% %.% .%%%%. %.% %'
p75
aS'% % % .    . % % %'
p76
aS'%  .. %.%%.% ..  %'
p77
aS'%%%%  %.%%.%  %%%%'
p78
aS'%%%%  %.%%.%  %%%%'
p79
aS'%  .. %.%%.% ..  %'
p80
aS'% % %        % % %'
p81
aS'% %.% %%%%%% %.% %'
p82
aS'% %.% %.  .% %.% %'
p83
aS'% %.....  .....% %'
p84
aS'% %.%% %  % %%.% %'
p85
aS'% % %% %  % %% % %'
p86
aS'%3%....    ....%4%'
p87
aS'%%%%%%%%%%%%%%%%%%'
p88
asbsS'blueTeamName'
p89
S'Blue'
p90
sS'actions'
p91
(lp92
(I0
S'South'
p93
tp94
a(I1
g93
tp95
a(I2
S'North'
p96
tp97
a(I3
g96
tp98
a(I0
g93
tp99
a(I1
g93
tp100
a(I2
g96
tp101
a(I3
g96
tp102
a(I0
g93
tp103
a(I1
g93
tp104
a(I2
g96
tp105
a(I3
g96
tp106
a(I0
g93
tp107
a(I1
g93
tp108
a(I2
g96
tp109
a(I3
g96
tp110
a(I0
g93
tp111
a(I1
g93
tp112
a(I2
g96
tp113
a(I3
g96
tp114
a(I0
g93
tp115
a(I1
g93
tp116
a(I2
g96
tp117
a(I3
g96
tp118
a(I0
g93
tp119
a(I1
g93
tp120
a(I2
g96
tp121
a(I3
g96
tp122
a(I0
S'East'
p123
tp124
a(I1
S'West'
p125
tp126
a(I2
g123
tp127
a(I3
g125
tp128
a(I0
g123
tp129
a(I1
g125
tp130
a(I2
g123
tp131
a(I3
g125
tp132
a(I0
g123
tp133
a(I1
g125
tp134
a(I2
g123
tp135
a(I3
g93
tp136
a(I0
g123
tp137
a(I1
g125
tp138
a(I2
g123
tp139
a(I3
g93
tp140
a(I0
g96
tp141
a(I1
g96
tp142
a(I2
g93
tp143
a(I3
g93
tp144
a(I0
g123
tp145
a(I1
g125
tp146
a(I2
g123
tp147
a(I3
g93
tp148
a(I0
g123
tp149
a(I1
g96
tp150
a(I2
g123
tp151
a(I3
g125
tp152
a(I0
g123
tp153
a(I1
g96
tp154
a(I2
g123
tp155
a(I3
g125
tp156
a(I0
g125
tp157
a(I1
g125
tp158
a(I2
g123
tp159
a(I3
g96
tp160
a(I0
g123
tp161
a(I1
g125
tp162
a(I2
g125
tp163
a(I3
g96
tp164
a(I0
g123
tp165
a(I1
g125
tp166
a(I2
g125
tp167
a(I3
g96
tp168
a(I0
g123
tp169
a(I1
g125
tp170
a(I2
g96
tp171
a(I3
g125
tp172
a(I0
g123
tp173
a(I1
g125
tp174
a(I2
g96
tp175
a(I3
g125
tp176
a(I0
g96
tp177
a(I1
g93
tp178
a(I2
g96
tp179
a(I3
g96
tp180
a(I0
g96
tp181
a(I1
g93
tp182
a(I2
g96
tp183
a(I3
g96
tp184
a(I0
g125
tp185
a(I1
g125
tp186
a(I2
g96
tp187
a(I3
g96
tp188
a(I0
g125
tp189
a(I1
g93
tp190
a(I2
g125
tp191
a(I3
g96
tp192
a(I0
g125
tp193
a(I1
g125
tp194
a(I2
g125
tp195
a(I3
g96
tp196
a(I0
g125
tp197
a(I1
g125
tp198
a(I2
g93
tp199
a(I3
g125
tp200
a(I0
g125
tp201
a(I1
g96
tp202
a(I2
g125
tp203
a(I3
g123
tp204
a(I0
g93
tp205
a(I1
g96
tp206
a(I2
g125
tp207
a(I3
g123
tp208
a(I0
g125
tp209
a(I1
g96
tp210
a(I2
g96
tp211
a(I3
g96
tp212
a(I0
g96
tp213
a(I1
g96
tp214
a(I2
g96
tp215
a(I3
g123
tp216
a(I0
g96
tp217
a(I1
g96
tp218
a(I2
g96
tp219
a(I3
g93
tp220
a(I0
g96
tp221
a(I1
g96
tp222
a(I2
g96
tp223
a(I3
g125
tp224
a(I0
g125
tp225
a(I1
S'Stop'
p226
tp227
a(I2
g96
tp228
a(I3
g125
tp229
a(I0
g125
tp230
a(I1
g123
tp231
a(I2
g96
tp232
a(I3
g125
tp233
a(I0
g96
tp234
a(I1
g93
tp235
a(I2
g123
tp236
a(I3
g123
tp237
a(I0
g123
tp238
a(I1
g123
tp239
a(I2
g123
tp240
a(I3
g93
tp241
a(I0
g123
tp242
a(I1
g123
tp243
a(I2
g93
tp244
a(I3
g93
tp245
a(I0
g93
tp246
a(I1
g123
tp247
a(I2
g123
tp248
a(I3
g93
tp249
a(I0
g123
tp250
a(I1
g96
tp251
a(I2
g96
tp252
a(I3
g93
tp253
a(I0
g96
tp254
a(I1
g123
tp255
a(I2
g123
tp256
a(I3
g93
tp257
a(I0
g123
tp258
a(I1
g123
tp259
a(I2
g93
tp260
a(I3
g125
tp261
a(I0
g123
tp262
a(I1
g123
tp263
a(I2
g125
tp264
a(I3
g123
tp265
a(I0
g93
tp266
a(I1
g125
tp267
a(I2
g96
tp268
a(I3
g123
tp269
a(I0
g125
tp270
a(I1
g125
tp271
a(I2
g123
tp272
a(I3
g123
tp273
a(I0
g96
tp274
a(I1
g93
tp275
a(I2
g93
tp276
a(I3
g93
tp277
a(I0
g123
tp278
a(I1
g123
tp279
a(I2
g123
tp280
a(I3
g93
tp281
a(I0
g123
tp282
a(I1
g96
tp283
a(I2
g96
tp284
a(I3
g93
tp285
a(I0
g93
tp286
a(I1
g125
tp287
a(I2
g123
tp288
a(I3
g125
tp289
a(I0
g93
tp290
a(I1
g93
tp291
a(I2
g123
tp292
a(I3
g93
tp293
a(I0
g93
tp294
a(I1
g93
tp295
a(I2
g93
tp296
a(I3
g93
tp297
a(I0
g93
tp298
a(I1
g93
tp299
a(I2
g123
tp300
a(I3
g93
tp301
a(I0
g93
tp302
a(I1
g93
tp303
a(I2
g96
tp304
a(I3
g123
tp305
a(I0
g93
tp306
a(I1
g93
tp307
a(I2
g123
tp308
a(I3
g123
tp309
a(I0
g93
tp310
a(I1
g93
tp311
a(I2
g93
tp312
a(I3
g123
tp313
a(I0
g123
tp314
a(I1
g93
tp315
a(I2
g123
tp316
a(I3
g96
tp317
a(I0
g123
tp318
a(I1
g125
tp319
a(I2
g96
tp320
a(I3
g96
tp321
a(I0
g123
tp322
a(I1
g125
tp323
a(I2
g123
tp324
a(I3
g96
tp325
a(I0
g123
tp326
a(I1
g125
tp327
a(I2
g93
tp328
a(I3
g96
tp329
a(I0
g96
tp330
a(I1
g125
tp331
a(I2
g93
tp332
a(I3
g96
tp333
a(I0
g123
tp334
a(I1
g96
tp335
a(I2
g93
tp336
a(I3
g96
tp337
a(I0
g123
tp338
a(I1
g125
tp339
a(I2
g93
tp340
a(I3
g96
tp341
a(I0
g93
tp342
a(I1
g125
tp343
a(I2
g93
tp344
a(I3
g125
tp345
a(I0
g93
tp346
a(I1
g125
tp347
a(I2
g93
tp348
a(I3
g96
tp349
a(I0
g93
tp350
a(I1
g125
tp351
a(I2
g123
tp352
a(I3
g96
tp353
a(I0
g96
tp354
a(I1
g125
tp355
a(I2
g123
tp356
a(I3
g96
tp357
a(I0
g96
tp358
a(I1
g123
tp359
a(I2
g96
tp360
a(I3
g123
tp361
a(I0
g96
tp362
a(I1
g125
tp363
a(I2
g96
tp364
a(I3
g123
tp365
a(I0
g123
tp366
a(I1
g93
tp367
a(I2
g96
tp368
a(I3
g123
tp369
a(I0
g123
tp370
a(I1
g93
tp371
a(I2
g93
tp372
a(I3
g96
tp373
a(I0
g123
tp374
a(I1
g93
tp375
a(I2
g96
tp376
a(I3
g96
tp377
a(I0
g93
tp378
a(I1
g93
tp379
a(I2
g96
tp380
a(I3
g96
tp381
a(I0
g93
tp382
a(I1
g93
tp383
a(I2
g96
tp384
a(I3
g96
tp385
a(I0
g93
tp386
a(I1
g93
tp387
a(I2
g96
tp388
a(I3
g96
tp389
a(I0
g93
tp390
a(I1
g93
tp391
a(I2
g96
tp392
a(I3
g96
tp393
a(I0
g93
tp394
a(I1
g125
tp395
a(I2
g96
tp396
a(I3
g96
tp397
a(I0
g125
tp398
a(I1
g125
tp399
a(I2
g96
tp400
a(I3
g93
tp401
a(I0
g125
tp402
a(I1
g125
tp403
a(I2
g96
tp404
a(I3
g93
tp405
a(I0
g123
tp406
a(I1
g125
tp407
a(I2
g123
tp408
a(I3
g93
tp409
a(I0
g123
tp410
a(I1
g96
tp411
a(I2
g123
tp412
a(I3
g93
tp413
a(I0
g123
tp414
a(I1
g125
tp415
a(I2
g123
tp416
a(I3
g93
tp417
a(I0
g123
tp418
a(I1
g125
tp419
a(I2
g123
tp420
a(I3
g93
tp421
a(I0
g96
tp422
a(I1
g125
tp423
a(I2
g93
tp424
a(I3
g93
tp425
a(I0
g123
tp426
a(I1
g125
tp427
a(I2
g123
tp428
a(I3
g125
tp429
a(I0
g96
tp430
a(I1
g125
tp431
a(I2
g123
tp432
a(I3
g125
tp433
a(I0
g96
tp434
a(I1
g93
tp435
a(I2
g96
tp436
a(I3
g125
tp437
a(I0
g125
tp438
a(I1
g93
tp439
a(I2
g96
tp440
a(I3
g125
tp441
a(I0
g93
tp442
a(I1
g96
tp443
a(I2
g96
tp444
a(I3
g93
tp445
a(I0
g93
tp446
a(I1
g96
tp447
a(I2
g96
tp448
a(I3
g93
tp449
a(I0
g123
tp450
a(I1
g123
tp451
a(I2
g96
tp452
a(I3
g123
tp453
a(I0
g123
tp454
a(I1
g123
tp455
a(I2
g125
tp456
a(I3
g93
tp457
a(I0
g93
tp458
a(I1
g123
tp459
a(I2
g96
tp460
a(I3
g123
tp461
a(I0
g93
tp462
a(I1
g93
tp463
a(I2
g93
tp464
a(I3
g93
tp465
a(I0
g93
tp466
a(I1
g93
tp467
a(I2
g123
tp468
a(I3
g93
tp469
a(I0
g93
tp470
a(I1
g93
tp471
a(I2
g123
tp472
a(I3
g93
tp473
a(I0
g125
tp474
a(I1
g93
tp475
a(I2
g123
tp476
a(I3
g93
tp477
a(I0
g125
tp478
a(I1
g93
tp479
a(I2
g123
tp480
a(I3
g125
tp481
a(I0
g125
tp482
a(I1
g125
tp483
a(I2
g123
tp484
a(I3
g125
tp485
a(I0
g125
tp486
a(I1
g125
tp487
a(I2
g96
tp488
a(I3
g125
tp489
a(I0
g96
tp490
a(I1
g125
tp491
a(I2
g96
tp492
a(I3
g125
tp493
a(I0
g125
tp494
a(I1
g96
tp495
a(I2
g125
tp496
a(I3
g125
tp497
a(I0
g125
tp498
a(I1
g96
tp499
a(I2
g125
tp500
a(I3
g93
tp501
a(I0
g93
tp502
a(I1
g93
tp503
a(I2
g125
tp504
a(I3
g93
tp505
a(I0
g125
tp506
a(I1
g93
tp507
a(I2
g125
tp508
a(I3
g93
tp509
a(I0
g125
tp510
a(I1
g125
tp511
a(I2
g125
tp512
a(I3
g123
tp513
a(I0
g125
tp514
a(I1
g125
tp515
a(I2
g93
tp516
a(I3
g123
tp517
a(I0
g96
tp518
a(I1
g96
tp519
a(I2
g93
tp520
a(I3
g123
tp521
a(I0
g96
tp522
a(I1
g125
tp523
a(I2
g125
tp524
a(I3
g123
tp525
a(I0
g96
tp526
a(I1
g125
tp527
a(I2
g93
tp528
a(I3
g123
tp529
a(I0
g96
tp530
a(I1
g93
tp531
a(I2
g125
tp532
a(I3
g96
tp533
a(I0
g125
tp534
a(I1
g93
tp535
a(I2
g93
tp536
a(I3
g96
tp537
a(I0
g125
tp538
a(I1
g93
tp539
a(I2
g93
tp540
a(I3
g96
tp541
a(I0
g93
tp542
a(I1
g93
tp543
a(I2
g93
tp544
a(I3
g125
tp545
a(I0
g93
tp546
a(I1
g123
tp547
a(I2
g125
tp548
a(I3
g125
tp549
a(I0
g93
tp550
a(I1
g123
tp551
a(I2
g93
tp552
a(I3
g96
tp553
a(I0
g93
tp554
a(I1
g123
tp555
a(I2
g93
tp556
a(I3
g96
tp557
a(I0
g123
tp558
a(I1
g123
tp559
a(I2
g93
tp560
a(I3
g96
tp561
a(I0
g123
tp562
a(I1
g96
tp563
a(I2
g93
tp564
a(I3
g125
tp565
a(I0
g123
tp566
a(I1
g226
tp567
a(I2
g123
tp568
a(I3
g125
tp569
a(I0
g123
tp570
a(I1
g123
tp571
a(I2
g123
tp572
a(I3
g96
tp573
a(I0
g123
tp574
a(I1
g123
tp575
a(I2
g96
tp576
a(I3
g96
tp577
a(I0
g123
tp578
a(I1
g93
tp579
a(I2
g96
tp580
a(I3
g96
tp581
a(I0
g93
tp582
a(I1
g93
tp583
a(I2
g93
tp584
a(I3
g96
tp585
a(I0
g93
tp586
a(I1
g125
tp587
a(I2
g93
tp588
a(I3
g96
tp589
a(I0
g93
tp590
a(I1
g93
tp591
a(I2
g123
tp592
a(I3
g123
tp593
a(I0
g93
tp594
a(I1
g93
tp595
a(I2
g123
tp596
a(I3
g96
tp597
a(I0
g93
tp598
a(I1
g125
tp599
a(I2
g123
tp600
a(I3
g123
tp601
a(I0
g93
tp602
a(I1
g125
tp603
a(I2
g93
tp604
a(I3
g93
tp605
a(I0
g93
tp606
a(I1
g125
tp607
a(I2
g93
tp608
a(I3
g93
tp609
a(I0
g123
tp610
a(I1
g125
tp611
a(I2
g93
tp612
a(I3
g123
tp613
a(I0
g123
tp614
a(I1
g125
tp615
a(I2
g125
tp616
a(I3
g123
tp617
a(I0
g123
tp618
a(I1
g96
tp619
a(I2
g125
tp620
a(I3
g123
tp621
a(I0
g93
tp622
a(I1
g96
tp623
a(I2
g125
tp624
a(I3
g125
tp625
a(I0
g93
tp626
a(I1
g96
tp627
a(I2
g125
tp628
a(I3
g125
tp629
a(I0
g93
tp630
a(I1
g123
tp631
a(I2
g125
tp632
a(I3
g93
tp633
a(I0
g123
tp634
a(I1
g123
tp635
a(I2
g96
tp636
a(I3
g93
tp637
a(I0
g93
tp638
a(I1
g123
tp639
a(I2
g96
tp640
a(I3
g93
tp641
a(I0
g93
tp642
a(I1
g123
tp643
a(I2
g96
tp644
a(I3
g123
tp645
a(I0
g93
tp646
a(I1
g123
tp647
a(I2
g123
tp648
a(I3
g123
tp649
a(I0
g93
tp650
a(I1
g123
tp651
asS'length'
p652
I1200
sS'agents'
p653
(lp654
(igame
Agent
p655
(dp656
S'index'
p657
I0
sba(igame
Agent
p658
(dp659
g657
I0
sba(igame
Agent
p660
(dp661
g657
I0
sba(igame
Agent
p662
(dp663
g657
I0
sbasS'redTeamName'
p664
S'Red'
p665
s.