(dp1
S'layout'
p2
(ilayout
Layout
p3
(dp4
S'capsules'
p5
(lp6
sS'numGhosts'
p7
I4
sS'food'
p8
(igame
Grid
p9
(dp10
S'CELLS_PER_INT'
p11
I30
sS'width'
p12
I36
sS'data'
p13
(lp14
(lp15
I00
aI00
aI00
aI00
aI00
aI00
aI00
aI00
aI00
aI00
aI00
aI00
aI00
aI00
aI00
aI00
aI00
aI00
aI00
aI00
aI00
aI00
aa(lp16
I00
aI00
aI00
aI00
aI00
aI00
aI00
aI00
aI01
aI01
aI01
aI01
aI01
aI00
aI00
aI00
aI00
aI00
aI00
aI00
aI00
aI00
aa(lp17
I00
aI00
aI00
aI00
aI00
aI00
aI00
aI00
aI01
aI01
aI01
aI01
aI01
aI00
aI00
aI00
aI00
aI00
aI00
aI00
aI00
aI00
aa(lp18
I00
aI00
aI00
aI01
aI01
aI00
aI00
aI00
aI01
aI01
aI01
aI01
aI01
aI00
aI01
aI01
aI01
aI01
aI01
aI00
aI00
aI00
aa(lp19
I00
aI00
aI00
aI01
aI01
aI00
aI00
aI00
aI01
aI01
aI01
aI01
aI01
aI00
aI01
aI01
aI01
aI01
aI01
aI00
aI00
aI00
aa(lp20
I00
aI00
aI00
aI01
aI01
aI00
aI00
aI00
aI01
aI01
aI01
aI01
aI01
aI00
aI01
aI01
aI01
aI01
aI01
aI00
aI00
aI00
aa(lp21
I00
aI00
aI00
aI01
aI01
aI00
aI00
aI00
aI01
aI01
aI01
aI01
aI01
aI00
aI01
aI01
aI01
aI01
aI01
aI00
aI00
aI00
aa(lp22
I00
aI00
aI00
aI01
aI01
aI00
aI00
aI00
aI00
aI00
aI00
aI00
aI01
aI00
aI01
aI01
aI01
aI01
aI01
aI00
aI00
aI00
aa(lp23
I00
aI00
aI00
aI01
aI01
aI01
aI00
aI00
aI00
aI00
aI00
aI00
aI00
aI01
aI01
aI01
aI01
aI01
aI01
aI00
aI00
aI00
aa(lp24
I00
aI00
aI00
aI01
aI01
aI00
aI00
aI00
aI00
aI00
aI00
aI00
aI00
aI00
aI01
aI01
aI01
aI01
aI01
aI00
aI00
aI00
aa(lp25
I00
aI00
aI00
aI01
aI01
aI00
aI00
aI00
aI01
aI01
aI01
aI00
aI00
aI00
aI01
aI01
aI01
aI01
aI01
aI00
aI00
aI00
aa(lp26
I00
aI00
aI00
aI00
aI00
aI00
aI00
aI00
aI01
aI01
aI01
aI00
aI00
aI00
aI00
aI01
aI00
aI00
aI00
aI00
aI00
aI00
aa(lp27
I00
aI00
aI00
aI01
aI01
aI00
aI00
aI01
aI01
aI01
aI01
aI01
aI00
aI00
aI00
aI00
aI00
aI01
aI01
aI00
aI00
aI00
aa(lp28
I00
aI00
aI00
aI01
aI01
aI00
aI00
aI00
aI01
aI01
aI01
aI00
aI00
aI00
aI00
aI00
aI00
aI01
aI01
aI00
aI00
aI00
aa(lp29
I00
aI00
aI00
aI01
aI01
aI01
aI00
aI00
aI01
aI01
aI01
aI00
aI00
aI00
aI00
aI00
aI01
aI01
aI01
aI00
aI00
aI00
aa(lp30
I00
aI00
aI00
aI01
aI01
aI00
aI00
aI00
aI00
aI00
aI00
aI00
aI00
aI00
aI00
aI00
aI00
aI01
aI01
aI00
aI00
aI00
aa(lp31
I00
aI00
aI00
aI01
aI01
aI00
aI00
aI00
aI00
aI00
aI00
aI00
aI00
aI00
aI00
aI00
aI00
aI01
aI01
aI00
aI00
aI00
aa(lp32
I00
aI00
aI00
aI00
aI00
aI00
aI00
aI00
aI00
aI00
aI00
aI00
aI00
aI00
aI00
aI00
aI00
aI00
aI00
aI00
aI00
aI00
aa(lp33
I00
aI00
aI00
aI00
aI00
aI00
aI00
aI00
aI00
aI00
aI00
aI00
aI00
aI00
aI00
aI00
aI00
aI00
aI00
aI00
aI00
aI00
aa(lp34
I00
aI00
aI00
aI01
aI01
aI00
aI00
aI00
aI00
aI00
aI00
aI00
aI00
aI00
aI00
aI00
aI00
aI01
aI01
aI00
aI00
aI00
aa(lp35
I00
aI00
aI00
aI01
aI01
aI00
aI00
aI00
aI00
aI00
aI00
aI00
aI00
aI00
aI00
aI00
aI00
aI01
aI01
aI00
aI00
aI00
aa(lp36
I00
aI00
aI00
aI01
aI01
aI01
aI00
aI00
aI00
aI00
aI00
aI01
aI01
aI01
aI00
aI00
aI01
aI01
aI01
aI00
aI00
aI00
aa(lp37
I00
aI00
aI00
aI01
aI01
aI00
aI00
aI00
aI00
aI00
aI00
aI01
aI01
aI01
aI00
aI00
aI00
aI01
aI01
aI00
aI00
aI00
aa(lp38
I00
aI00
aI00
aI01
aI01
aI00
aI00
aI00
aI00
aI00
aI01
aI01
aI01
aI01
aI01
aI00
aI00
aI01
aI01
aI00
aI00
aI00
aa(lp39
I00
aI00
aI00
aI00
aI00
aI00
aI01
aI00
aI00
aI00
aI00
aI01
aI01
aI01
aI00
aI00
aI00
aI00
aI00
aI00
aI00
aI00
aa(lp40
I00
aI00
aI00
aI01
aI01
aI01
aI01
aI01
aI00
aI00
aI00
aI01
aI01
aI01
aI00
aI00
aI00
aI01
aI01
aI00
aI00
aI00
aa(lp41
I00
aI00
aI00
aI01
aI01
aI01
aI01
aI01
aI00
aI00
aI00
aI00
aI00
aI00
aI00
aI00
aI00
aI01
aI01
aI00
aI00
aI00
aa(lp42
I00
aI00
aI00
aI01
aI01
aI01
aI01
aI01
aI01
aI00
aI00
aI00
aI00
aI00
aI00
aI00
aI01
aI01
aI01
aI00
aI00
aI00
aa(lp43
I00
aI00
aI00
aI01
aI01
aI01
aI01
aI01
aI00
aI01
aI00
aI00
aI00
aI00
aI00
aI00
aI00
aI01
aI01
aI00
aI00
aI00
aa(lp44
I00
aI00
aI00
aI01
aI01
aI01
aI01
aI01
aI00
aI01
aI01
aI01
aI01
aI01
aI00
aI00
aI00
aI01
aI01
aI00
aI00
aI00
aa(lp45
I00
aI00
aI00
aI01
aI01
aI01
aI01
aI01
aI00
aI01
aI01
aI01
aI01
aI01
aI01
aI00
aI00
aI01
aI01
aI00
aI00
aI00
aa(lp46
I00
aI00
aI00
aI01
aI01
aI01
aI01
aI01
aI00
aI01
aI01
aI01
aI01
aI01
aI00
aI00
aI00
aI01
aI01
aI00
aI00
aI00
aa(lp47
I00
aI00
aI00
aI01
aI01
aI01
aI01
aI01
aI00
aI01
aI01
aI01
aI01
aI01
aI00
aI00
aI00
aI01
aI01
aI00
aI00
aI00
aa(lp48
I00
aI00
aI00
aI00
aI00
aI00
aI00
aI00
aI00
aI01
aI01
aI01
aI01
aI01
aI00
aI00
aI00
aI00
aI00
aI00
aI00
aI00
aa(lp49
I00
aI00
aI00
aI00
aI00
aI00
aI00
aI00
aI00
aI01
aI01
aI01
aI01
aI01
aI00
aI00
aI00
aI00
aI00
aI00
aI00
aI00
aa(lp50
I00
aI00
aI00
aI00
aI00
aI00
aI00
aI00
aI00
aI00
aI00
aI00
aI00
aI00
aI00
aI00
aI00
aI00
aI00
aI00
aI00
aI00
aasS'height'
p51
I22
sbsS'agentPositions'
p52
(lp53
(I00
(I16
I1
tp54
tp55
a(I00
(I19
I20
tp56
tp57
a(I00
(I16
I20
tp58
tp59
a(I00
(I19
I1
tp60
tp61
asg51
I22
sg12
I36
sS'walls'
p62
(igame
Grid
p63
(dp64
g11
I30
sg12
I36
sg13
(lp65
(lp66
I01
aI01
aI01
aI01
aI01
aI01
aI01
aI01
aI01
aI01
aI01
aI01
aI01
aI01
aI01
aI01
aI01
aI01
aI01
aI01
aI01
aI01
aa(lp67
I01
aI00
aI00
aI00
aI00
aI00
aI00
aI01
aI00
aI00
aI00
aI00
aI00
aI01
aI01
aI00
aI00
aI00
aI00
aI00
aI00
aI01
aa(lp68
I01
aI00
aI01
aI01
aI01
aI01
aI00
aI01
aI00
aI00
aI00
aI00
aI00
aI01
aI01
aI00
aI01
aI01
aI01
aI01
aI00
aI01
aa(lp69
I01
aI00
aI01
aI00
aI00
aI01
aI00
aI01
aI00
aI00
aI00
aI00
aI00
aI01
aI00
aI00
aI00
aI00
aI00
aI01
aI00
aI01
aa(lp70
I01
aI00
aI01
aI00
aI00
aI01
aI00
aI01
aI00
aI00
aI00
aI00
aI00
aI01
aI00
aI00
aI00
aI00
aI00
aI01
aI00
aI01
aa(lp71
I01
aI00
aI01
aI00
aI00
aI01
aI00
aI00
aI00
aI00
aI00
aI00
aI00
aI01
aI00
aI00
aI00
aI00
aI00
aI01
aI00
aI01
aa(lp72
I01
aI00
aI01
aI00
aI00
aI01
aI00
aI01
aI00
aI00
aI00
aI00
aI00
aI01
aI00
aI00
aI00
aI00
aI00
aI01
aI00
aI01
aa(lp73
I01
aI00
aI01
aI00
aI00
aI01
aI00
aI01
aI01
aI01
aI01
aI01
aI00
aI01
aI00
aI00
aI00
aI00
aI00
aI01
aI00
aI01
aa(lp74
I01
aI00
aI01
aI00
aI00
aI00
aI00
aI00
aI00
aI00
aI00
aI00
aI00
aI00
aI00
aI00
aI00
aI00
aI00
aI01
aI00
aI01
aa(lp75
I01
aI00
aI01
aI00
aI00
aI01
aI00
aI01
aI01
aI01
aI01
aI01
aI00
aI01
aI00
aI00
aI00
aI00
aI00
aI01
aI00
aI01
aa(lp76
I01
aI00
aI01
aI00
aI00
aI01
aI00
aI01
aI00
aI00
aI00
aI01
aI00
aI01
aI00
aI00
aI00
aI00
aI00
aI01
aI00
aI01
aa(lp77
I01
aI00
aI01
aI01
aI01
aI01
aI00
aI01
aI00
aI00
aI00
aI01
aI00
aI01
aI01
aI00
aI01
aI01
aI01
aI01
aI00
aI01
aa(lp78
I01
aI00
aI01
aI00
aI00
aI01
aI00
aI00
aI00
aI00
aI00
aI00
aI00
aI00
aI00
aI00
aI01
aI00
aI00
aI01
aI00
aI01
aa(lp79
I01
aI00
aI01
aI00
aI00
aI01
aI00
aI01
aI00
aI00
aI00
aI01
aI00
aI01
aI01
aI00
aI01
aI00
aI00
aI01
aI00
aI01
aa(lp80
I01
aI00
aI01
aI00
aI00
aI00
aI00
aI01
aI00
aI00
aI00
aI01
aI00
aI01
aI01
aI00
aI00
aI00
aI00
aI01
aI00
aI01
aa(lp81
I01
aI00
aI01
aI00
aI00
aI01
aI00
aI01
aI01
aI01
aI01
aI01
aI00
aI01
aI01
aI00
aI01
aI00
aI00
aI01
aI00
aI01
aa(lp82
I01
aI00
aI01
aI00
aI00
aI01
aI00
aI00
aI00
aI00
aI00
aI00
aI00
aI01
aI01
aI00
aI01
aI00
aI00
aI01
aI00
aI01
aa(lp83
I01
aI01
aI01
aI01
aI01
aI01
aI00
aI01
aI01
aI01
aI00
aI00
aI01
aI01
aI01
aI00
aI01
aI01
aI01
aI01
aI01
aI01
aa(lp84
I01
aI01
aI01
aI01
aI01
aI01
aI00
aI01
aI01
aI01
aI00
aI00
aI01
aI01
aI01
aI00
aI01
aI01
aI01
aI01
aI01
aI01
aa(lp85
I01
aI00
aI01
aI00
aI00
aI01
aI00
aI01
aI01
aI00
aI00
aI00
aI00
aI00
aI00
aI00
aI01
aI00
aI00
aI01
aI00
aI01
aa(lp86
I01
aI00
aI01
aI00
aI00
aI01
aI00
aI01
aI01
aI00
aI01
aI01
aI01
aI01
aI01
aI00
aI01
aI00
aI00
aI01
aI00
aI01
aa(lp87
I01
aI00
aI01
aI00
aI00
aI00
aI00
aI01
aI01
aI00
aI01
aI00
aI00
aI00
aI01
aI00
aI00
aI00
aI00
aI01
aI00
aI01
aa(lp88
I01
aI00
aI01
aI00
aI00
aI01
aI00
aI01
aI01
aI00
aI01
aI00
aI00
aI00
aI01
aI00
aI01
aI00
aI00
aI01
aI00
aI01
aa(lp89
I01
aI00
aI01
aI00
aI00
aI01
aI00
aI00
aI00
aI00
aI00
aI00
aI00
aI00
aI00
aI00
aI01
aI00
aI00
aI01
aI00
aI01
aa(lp90
I01
aI00
aI01
aI01
aI01
aI01
aI00
aI01
aI01
aI00
aI01
aI00
aI00
aI00
aI01
aI00
aI01
aI01
aI01
aI01
aI00
aI01
aa(lp91
I01
aI00
aI01
aI00
aI00
aI00
aI00
aI00
aI01
aI00
aI01
aI00
aI00
aI00
aI01
aI00
aI01
aI00
aI00
aI01
aI00
aI01
aa(lp92
I01
aI00
aI01
aI00
aI00
aI00
aI00
aI00
aI01
aI00
aI01
aI01
aI01
aI01
aI01
aI00
aI01
aI00
aI00
aI01
aI00
aI01
aa(lp93
I01
aI00
aI01
aI00
aI00
aI00
aI00
aI00
aI00
aI00
aI00
aI00
aI00
aI00
aI00
aI00
aI00
aI00
aI00
aI01
aI00
aI01
aa(lp94
I01
aI00
aI01
aI00
aI00
aI00
aI00
aI00
aI01
aI00
aI01
aI01
aI01
aI01
aI01
aI00
aI01
aI00
aI00
aI01
aI00
aI01
aa(lp95
I01
aI00
aI01
aI00
aI00
aI00
aI00
aI00
aI01
aI00
aI00
aI00
aI00
aI00
aI01
aI00
aI01
aI00
aI00
aI01
aI00
aI01
aa(lp96
I01
aI00
aI01
aI00
aI00
aI00
aI00
aI00
aI01
aI00
aI00
aI00
aI00
aI00
aI00
aI00
aI01
aI00
aI00
aI01
aI00
aI01
aa(lp97
I01
aI00
aI01
aI00
aI00
aI00
aI00
aI00
aI01
aI00
aI00
aI00
aI00
aI00
aI01
aI00
aI01
aI00
aI00
aI01
aI00
aI01
aa(lp98
I01
aI00
aI01
aI00
aI00
aI00
aI00
aI00
aI01
aI00
aI00
aI00
aI00
aI00
aI01
aI00
aI01
aI00
aI00
aI01
aI00
aI01
aa(lp99
I01
aI00
aI01
aI01
aI01
aI01
aI00
aI01
aI01
aI00
aI00
aI00
aI00
aI00
aI01
aI00
aI01
aI01
aI01
aI01
aI00
aI01
aa(lp100
I01
aI00
aI00
aI00
aI00
aI00
aI00
aI01
aI01
aI00
aI00
aI00
aI00
aI00
aI01
aI00
aI00
aI00
aI00
aI00
aI00
aI01
aa(lp101
I01
aI01
aI01
aI01
aI01
aI01
aI01
aI01
aI01
aI01
aI01
aI01
aI01
aI01
aI01
aI01
aI01
aI01
aI01
aI01
aI01
aI01
aasg51
I22
sbsS'totalFood'
p102
I259
sS'layoutText'
p103
(lp104
S'%%%%%%%%%%%%%%%%%%%%%%%%%%%%%%%%%%%%'
p105
aS'%               3%%2               %'
p106
aS'% %%%%%%%%%%%%%%%%%%%%%%%%%%%%%%%% %'
p107
aS'% %........%.....%%.....%........% %'
p108
aS'% %........%.....%%.....%........% %'
p109
aS'% %........%%%.%%%%%%.%%%%%.%%%%%% %'
p110
aS'%  .........                       %'
p111
aS'%%%........% %%%%%% %%%.%%% %%.%%%%%'
p112
aS'%%%%%%%%.%%% %%%%%% %.....% %......%'
p113
aS'%.......         %% %.....% %......%'
p114
aS'%......% %%%.%%%    %.....% %......%'
p115
aS'%......% %.....%    %%%.%%% %......%'
p116
aS'%......% %.....% %%         .......%'
p117
aS'%......% %.....% %%%%%% %%%.%%%%%%%%'
p118
aS'%%%%% %% %%%.%%% %%%%%% %........%%%'
p119
aS'%                       .........  %'
p120
aS'% %%%%%%.%%%%%.%%%%%%.%%%........% %'
p121
aS'% %........%.....%%.....%........% %'
p122
aS'% %........%.....%%.....%........% %'
p123
aS'% %%%%%%%%%%%%%%%%%%%%%%%%%%%%%%%% %'
p124
aS'%               1%%4               %'
p125
aS'%%%%%%%%%%%%%%%%%%%%%%%%%%%%%%%%%%%%'
p126
asbsS'blueTeamName'
p127
S'Blue'
p128
sS'actions'
p129
(lp130
(I0
S'West'
p131
tp132
a(I1
S'East'
p133
tp134
a(I2
g131
tp135
a(I3
g133
tp136
a(I0
g131
tp137
a(I1
g133
tp138
a(I2
g131
tp139
a(I3
g133
tp140
a(I0
g131
tp141
a(I1
g133
tp142
a(I2
g131
tp143
a(I3
g133
tp144
a(I0
g131
tp145
a(I1
g133
tp146
a(I2
g131
tp147
a(I3
g133
tp148
a(I0
g131
tp149
a(I1
g133
tp150
a(I2
g131
tp151
a(I3
g133
tp152
a(I0
g131
tp153
a(I1
g133
tp154
a(I2
g131
tp155
a(I3
g133
tp156
a(I0
g131
tp157
a(I1
g133
tp158
a(I2
g131
tp159
a(I3
g133
tp160
a(I0
g131
tp161
a(I1
g133
tp162
a(I2
g131
tp163
a(I3
g133
tp164
a(I0
g131
tp165
a(I1
g133
tp166
a(I2
g131
tp167
a(I3
g133
tp168
a(I0
g131
tp169
a(I1
g133
tp170
a(I2
g131
tp171
a(I3
g133
tp172
a(I0
g131
tp173
a(I1
g133
tp174
a(I2
g131
tp175
a(I3
g133
tp176
a(I0
g131
tp177
a(I1
g133
tp178
a(I2
g131
tp179
a(I3
g133
tp180
a(I0
g131
tp181
a(I1
g133
tp182
a(I2
g131
tp183
a(I3
g133
tp184
a(I0
g131
tp185
a(I1
g133
tp186
a(I2
g131
tp187
a(I3
g133
tp188
a(I0
g131
tp189
a(I1
g133
tp190
a(I2
g131
tp191
a(I3
g133
tp192
a(I0
S'North'
p193
tp194
a(I1
S'South'
p195
tp196
a(I2
g195
tp197
a(I3
g193
tp198
a(I0
g193
tp199
a(I1
g195
tp200
a(I2
g195
tp201
a(I3
g193
tp202
a(I0
g193
tp203
a(I1
g195
tp204
a(I2
g195
tp205
a(I3
g193
tp206
a(I0
g193
tp207
a(I1
g195
tp208
a(I2
g195
tp209
a(I3
g193
tp210
a(I0
g193
tp211
a(I1
g195
tp212
a(I2
g195
tp213
a(I3
g193
tp214
a(I0
g133
tp215
a(I1
g131
tp216
a(I2
g133
tp217
a(I3
g131
tp218
a(I0
g133
tp219
a(I1
g131
tp220
a(I2
g133
tp221
a(I3
g131
tp222
a(I0
g133
tp223
a(I1
g131
tp224
a(I2
g195
tp225
a(I3
g131
tp226
a(I0
g133
tp227
a(I1
g131
tp228
a(I2
g133
tp229
a(I3
g131
tp230
a(I0
g133
tp231
a(I1
g131
tp232
a(I2
g133
tp233
a(I3
g131
tp234
a(I0
g133
tp235
a(I1
g133
tp236
a(I2
g133
tp237
a(I3
g131
tp238
a(I0
g133
tp239
a(I1
g195
tp240
a(I2
g133
tp241
a(I3
g131
tp242
a(I0
g133
tp243
a(I1
g195
tp244
a(I2
g133
tp245
a(I3
g131
tp246
a(I0
g133
tp247
a(I1
g195
tp248
a(I2
g195
tp249
a(I3
g131
tp250
a(I0
g133
tp251
a(I1
g131
tp252
a(I2
g195
tp253
a(I3
g131
tp254
a(I0
g133
tp255
a(I1
g133
tp256
a(I2
g133
tp257
a(I3
g131
tp258
a(I0
g133
tp259
a(I1
g195
tp260
a(I2
g133
tp261
a(I3
g131
tp262
a(I0
g133
tp263
a(I1
S'Stop'
p264
tp265
a(I2
g133
tp266
a(I3
g131
tp267
a(I0
g133
tp268
a(I1
g131
tp269
a(I2
g133
tp270
a(I3
g131
tp271
a(I0
g133
tp272
a(I1
g195
tp273
a(I2
g133
tp274
a(I3
g131
tp275
a(I0
g193
tp276
a(I1
g195
tp277
a(I2
g133
tp278
a(I3
g131
tp279
a(I0
g193
tp280
a(I1
g193
tp281
a(I2
g133
tp282
a(I3
g131
tp283
a(I0
g195
tp284
a(I1
g133
tp285
a(I2
g133
tp286
a(I3
g131
tp287
a(I0
g195
tp288
a(I1
g264
tp289
a(I2
g195
tp290
a(I3
g133
tp291
a(I0
g133
tp292
a(I1
g264
tp293
a(I2
g195
tp294
a(I3
g133
tp295
a(I0
g133
tp296
a(I1
g195
tp297
a(I2
g133
tp298
a(I3
g133
tp299
a(I0
g133
tp300
a(I1
g193
tp301
a(I2
g193
tp302
a(I3
g133
tp303
a(I0
g133
tp304
a(I1
g195
tp305
a(I2
g195
tp306
a(I3
g133
tp307
a(I0
g133
tp308
a(I1
g131
tp309
a(I2
g131
tp310
a(I3
g133
tp311
a(I0
g195
tp312
a(I1
g131
tp313
a(I2
g133
tp314
a(I3
g133
tp315
a(I0
g195
tp316
a(I1
g131
tp317
a(I2
g193
tp318
a(I3
g133
tp319
a(I0
g195
tp320
a(I1
g195
tp321
a(I2
g195
tp322
a(I3
g133
tp323
a(I0
g133
tp324
a(I1
g195
tp325
a(I2
g131
tp326
a(I3
g133
tp327
a(I0
g193
tp328
a(I1
g195
tp329
a(I2
g133
tp330
a(I3
g133
tp331
a(I0
g133
tp332
a(I1
g131
tp333
a(I2
g193
tp334
a(I3
g133
tp335
a(I0
g195
tp336
a(I1
g131
tp337
a(I2
g195
tp338
a(I3
g133
tp339
a(I0
g131
tp340
a(I1
g131
tp341
a(I2
g131
tp342
a(I3
g133
tp343
a(I0
g131
tp344
a(I1
g131
tp345
a(I2
g133
tp346
a(I3
g133
tp347
a(I0
g131
tp348
a(I1
g131
tp349
a(I2
g193
tp350
a(I3
g193
tp351
a(I0
g131
tp352
a(I1
g131
tp353
a(I2
g195
tp354
a(I3
g193
tp355
a(I0
g193
tp356
a(I1
g195
tp357
a(I2
g131
tp358
a(I3
g193
tp359
a(I0
g133
tp360
a(I1
g195
tp361
a(I2
g133
tp362
a(I3
g193
tp363
a(I0
g133
tp364
a(I1
g193
tp365
a(I2
g193
tp366
a(I3
g193
tp367
a(I0
g131
tp368
a(I1
g193
tp369
a(I2
g195
tp370
a(I3
g131
tp371
a(I0
g131
tp372
a(I1
g133
tp373
a(I2
g131
tp374
a(I3
g131
tp375
a(I0
g131
tp376
a(I1
g133
tp377
a(I2
g133
tp378
a(I3
g131
tp379
a(I0
g131
tp380
a(I1
g133
tp381
a(I2
g193
tp382
a(I3
g131
tp383
a(I0
g131
tp384
a(I1
g131
tp385
a(I2
g195
tp386
a(I3
g131
tp387
a(I0
g131
tp388
a(I1
g133
tp389
a(I2
g131
tp390
a(I3
g131
tp391
a(I0
g131
tp392
a(I1
g133
tp393
a(I2
g133
tp394
a(I3
g131
tp395
a(I0
g131
tp396
a(I1
g133
tp397
a(I2
g193
tp398
a(I3
g131
tp399
a(I0
g131
tp400
a(I1
g195
tp401
a(I2
g195
tp402
a(I3
g131
tp403
a(I0
g131
tp404
a(I1
g133
tp405
a(I2
g131
tp406
a(I3
g131
tp407
a(I0
g131
tp408
a(I1
g193
tp409
a(I2
g133
tp410
a(I3
g131
tp411
a(I0
g131
tp412
a(I1
g133
tp413
a(I2
g193
tp414
a(I3
g131
tp415
a(I0
g131
tp416
a(I1
g193
tp417
a(I2
g195
tp418
a(I3
g131
tp419
a(I0
g131
tp420
a(I1
g131
tp421
a(I2
g131
tp422
a(I3
g131
tp423
a(I0
g131
tp424
a(I1
g193
tp425
a(I2
g133
tp426
a(I3
g131
tp427
a(I0
g193
tp428
a(I1
g193
tp429
a(I2
g193
tp430
a(I3
g131
tp431
a(I0
g193
tp432
a(I1
g264
tp433
a(I2
g195
tp434
a(I3
g131
tp435
a(I0
g193
tp436
a(I1
g133
tp437
a(I2
g131
tp438
a(I3
g131
tp439
a(I0
g193
tp440
a(I1
g131
tp441
a(I2
g195
tp442
a(I3
g131
tp443
a(I0
g193
tp444
a(I1
g264
tp445
a(I2
g195
tp446
a(I3
g131
tp447
a(I0
g133
tp448
a(I1
g195
tp449
a(I2
g195
tp450
a(I3
g195
tp451
a(I0
g133
tp452
a(I1
g195
tp453
a(I2
g195
tp454
a(I3
g195
tp455
a(I0
g133
tp456
a(I1
g133
tp457
a(I2
g131
tp458
a(I3
g131
tp459
a(I0
g133
tp460
a(I1
g195
tp461
a(I2
g131
tp462
a(I3
g195
tp463
a(I0
g133
tp464
a(I1
g133
tp465
a(I2
g195
tp466
a(I3
g133
tp467
a(I0
g133
tp468
a(I1
g193
tp469
a(I2
g195
tp470
a(I3
g193
tp471
a(I0
g133
tp472
a(I1
g264
tp473
a(I2
g193
tp474
a(I3
g133
tp475
a(I0
g133
tp476
a(I1
g195
tp477
a(I2
g193
tp478
a(I3
g133
tp479
a(I0
g133
tp480
a(I1
g133
tp481
a(I2
g133
tp482
a(I3
g133
tp483
a(I0
g133
tp484
a(I1
g131
tp485
a(I2
g133
tp486
a(I3
g133
tp487
a(I0
g133
tp488
a(I1
g133
tp489
a(I2
g193
tp490
a(I3
g133
tp491
a(I0
g133
tp492
a(I1
g195
tp493
a(I2
g193
tp494
a(I3
g133
tp495
a(I0
g133
tp496
a(I1
g195
tp497
a(I2
g193
tp498
a(I3
g133
tp499
a(I0
g133
tp500
a(I1
g193
tp501
a(I2
g193
tp502
a(I3
g133
tp503
a(I0
g133
tp504
a(I1
g195
tp505
a(I2
g133
tp506
a(I3
g133
tp507
a(I0
g133
tp508
a(I1
g193
tp509
a(I2
g193
tp510
a(I3
g133
tp511
a(I0
g133
tp512
a(I1
g195
tp513
a(I2
g195
tp514
a(I3
g133
tp515
a(I0
g133
tp516
a(I1
g193
tp517
a(I2
g131
tp518
a(I3
g133
tp519
a(I0
g133
tp520
a(I1
g193
tp521
a(I2
g133
tp522
a(I3
g133
tp523
a(I0
g133
tp524
a(I1
g131
tp525
a(I2
g193
tp526
a(I3
g133
tp527
a(I0
g195
tp528
a(I1
g131
tp529
a(I2
g195
tp530
a(I3
g133
tp531
a(I0
g195
tp532
a(I1
g131
tp533
a(I2
g131
tp534
a(I3
g193
tp535
a(I0
g195
tp536
a(I1
g131
tp537
a(I2
g133
tp538
a(I3
g193
tp539
a(I0
g133
tp540
a(I1
g131
tp541
a(I2
g193
tp542
a(I3
g193
tp543
a(I0
g193
tp544
a(I1
g131
tp545
a(I2
g195
tp546
a(I3
g193
tp547
a(I0
g133
tp548
a(I1
g131
tp549
a(I2
g131
tp550
a(I3
g193
tp551
a(I0
g195
tp552
a(I1
g131
tp553
a(I2
g133
tp554
a(I3
g131
tp555
a(I0
g131
tp556
a(I1
g131
tp557
a(I2
g193
tp558
a(I3
g131
tp559
a(I0
g131
tp560
a(I1
g195
tp561
a(I2
g195
tp562
a(I3
g131
tp563
a(I0
g131
tp564
a(I1
g195
tp565
a(I2
g131
tp566
a(I3
g131
tp567
a(I0
g131
tp568
a(I1
g195
tp569
a(I2
g133
tp570
a(I3
g131
tp571
a(I0
g193
tp572
a(I1
g193
tp573
a(I2
g193
tp574
a(I3
g131
tp575
a(I0
g195
tp576
a(I1
g195
tp577
a(I2
g195
tp578
a(I3
g131
tp579
a(I0
g193
tp580
a(I1
g193
tp581
a(I2
g131
tp582
a(I3
g131
tp583
a(I0
g195
tp584
a(I1
g195
tp585
a(I2
g133
tp586
a(I3
g131
tp587
a(I0
g193
tp588
a(I1
g193
tp589
a(I2
g193
tp590
a(I3
g131
tp591
a(I0
g195
tp592
a(I1
g195
tp593
a(I2
g195
tp594
a(I3
g131
tp595
a(I0
g193
tp596
a(I1
g193
tp597
a(I2
g131
tp598
a(I3
g131
tp599
a(I0
g195
tp600
a(I1
g195
tp601
a(I2
g133
tp602
a(I3
g131
tp603
a(I0
g193
tp604
a(I1
g193
tp605
a(I2
g193
tp606
a(I3
g131
tp607
a(I0
g195
tp608
a(I1
g195
tp609
a(I2
g195
tp610
a(I3
g131
tp611
a(I0
g193
tp612
a(I1
g193
tp613
a(I2
g131
tp614
a(I3
g131
tp615
a(I0
g195
tp616
a(I1
g195
tp617
a(I2
g133
tp618
a(I3
g131
tp619
a(I0
g193
tp620
a(I1
g193
tp621
a(I2
g131
tp622
a(I3
g131
tp623
a(I0
g195
tp624
a(I1
g195
tp625
a(I2
g195
tp626
a(I3
g131
tp627
a(I0
g193
tp628
a(I1
g193
tp629
a(I2
g195
tp630
a(I3
g131
tp631
a(I0
g195
tp632
a(I1
g195
tp633
a(I2
g195
tp634
a(I3
g131
tp635
a(I0
g193
tp636
a(I1
g193
tp637
a(I2
g195
tp638
a(I3
g131
tp639
a(I0
g195
tp640
a(I1
g195
tp641
a(I2
g131
tp642
a(I3
g193
tp643
a(I0
g193
tp644
a(I1
g193
tp645
a(I2
g131
tp646
a(I3
g193
tp647
a(I0
g195
tp648
a(I1
g195
tp649
a(I2
g131
tp650
a(I3
g131
tp651
a(I0
g193
tp652
a(I1
g193
tp653
a(I2
g131
tp654
a(I3
g133
tp655
a(I0
g195
tp656
a(I1
g195
tp657
a(I2
g193
tp658
a(I3
g195
tp659
a(I0
g193
tp660
a(I1
g193
tp661
a(I2
g195
tp662
a(I3
g133
tp663
a(I0
g195
tp664
a(I1
g195
tp665
a(I2
g133
tp666
a(I3
g133
tp667
a(I0
g193
tp668
a(I1
g193
tp669
a(I2
g133
tp670
a(I3
g133
tp671
a(I0
g195
tp672
a(I1
g195
tp673
a(I2
g133
tp674
a(I3
g133
tp675
a(I0
g193
tp676
a(I1
g193
tp677
a(I2
g133
tp678
a(I3
g133
tp679
a(I0
g195
tp680
a(I1
g195
tp681
a(I2
g193
tp682
a(I3
g133
tp683
a(I0
g193
tp684
a(I1
g193
tp685
a(I2
g193
tp686
a(I3
g133
tp687
a(I0
g195
tp688
a(I1
g195
tp689
a(I2
g193
tp690
a(I3
g133
tp691
a(I0
g193
tp692
a(I1
g193
tp693
a(I2
g193
tp694
a(I3
g133
tp695
a(I0
g195
tp696
a(I1
g195
tp697
a(I2
g133
tp698
a(I3
g133
tp699
a(I0
g193
tp700
a(I1
g193
tp701
a(I2
g193
tp702
a(I3
g133
tp703
a(I0
g195
tp704
a(I1
g195
tp705
a(I2
g195
tp706
a(I3
g133
tp707
a(I0
g193
tp708
a(I1
g193
tp709
a(I2
g131
tp710
a(I3
g133
tp711
a(I0
g195
tp712
a(I1
g195
tp713
a(I2
g133
tp714
a(I3
g133
tp715
a(I0
g193
tp716
a(I1
g193
tp717
a(I2
g193
tp718
a(I3
g133
tp719
a(I0
g195
tp720
a(I1
g195
tp721
a(I2
g195
tp722
a(I3
g193
tp723
a(I0
g193
tp724
a(I1
g193
tp725
a(I2
g131
tp726
a(I3
g193
tp727
a(I0
g195
tp728
a(I1
g195
tp729
a(I2
g133
tp730
a(I3
g193
tp731
a(I0
g193
tp732
a(I1
g193
tp733
a(I2
g193
tp734
a(I3
g193
tp735
a(I0
g195
tp736
a(I1
g195
tp737
a(I2
g195
tp738
a(I3
g193
tp739
a(I0
g193
tp740
a(I1
g193
tp741
a(I2
g131
tp742
a(I3
g131
tp743
a(I0
g195
tp744
a(I1
g195
tp745
a(I2
g133
tp746
a(I3
g131
tp747
a(I0
g193
tp748
a(I1
g193
tp749
a(I2
g193
tp750
a(I3
g131
tp751
a(I0
g195
tp752
a(I1
g195
tp753
a(I2
g195
tp754
a(I3
g131
tp755
a(I0
g193
tp756
a(I1
g193
tp757
a(I2
g131
tp758
a(I3
g131
tp759
a(I0
g195
tp760
a(I1
g195
tp761
a(I2
g133
tp762
a(I3
g131
tp763
a(I0
g193
tp764
a(I1
g193
tp765
a(I2
g193
tp766
a(I3
g131
tp767
a(I0
g195
tp768
a(I1
g195
tp769
a(I2
g195
tp770
a(I3
g131
tp771
a(I0
g193
tp772
a(I1
g193
tp773
a(I2
g131
tp774
a(I3
g131
tp775
a(I0
g195
tp776
a(I1
g195
tp777
a(I2
g133
tp778
a(I3
g131
tp779
a(I0
g193
tp780
a(I1
g193
tp781
a(I2
g193
tp782
a(I3
g131
tp783
a(I0
g195
tp784
a(I1
g195
tp785
a(I2
g195
tp786
a(I3
g131
tp787
a(I0
g193
tp788
a(I1
g193
tp789
a(I2
g131
tp790
a(I3
g131
tp791
a(I0
g195
tp792
a(I1
g195
tp793
a(I2
g133
tp794
a(I3
g131
tp795
a(I0
g193
tp796
a(I1
g193
tp797
a(I2
g193
tp798
a(I3
g131
tp799
a(I0
g195
tp800
a(I1
g195
tp801
a(I2
g195
tp802
a(I3
g131
tp803
a(I0
g193
tp804
a(I1
g193
tp805
a(I2
g131
tp806
a(I3
g131
tp807
a(I0
g195
tp808
a(I1
g195
tp809
a(I2
g195
tp810
a(I3
g131
tp811
a(I0
g193
tp812
a(I1
g193
tp813
a(I2
g195
tp814
a(I3
g131
tp815
a(I0
g195
tp816
a(I1
g195
tp817
a(I2
g195
tp818
a(I3
g131
tp819
a(I0
g193
tp820
a(I1
g193
tp821
a(I2
g195
tp822
a(I3
g195
tp823
a(I0
g195
tp824
a(I1
g195
tp825
a(I2
g131
tp826
a(I3
g195
tp827
a(I0
g193
tp828
a(I1
g193
tp829
a(I2
g131
tp830
a(I3
g131
tp831
a(I0
g195
tp832
a(I1
g195
tp833
a(I2
g195
tp834
a(I3
g195
tp835
a(I0
g193
tp836
a(I1
g193
tp837
a(I2
g195
tp838
a(I3
g131
tp839
a(I0
g195
tp840
a(I1
g195
tp841
a(I2
g195
tp842
a(I3
g133
tp843
a(I0
g193
tp844
a(I1
g193
tp845
a(I2
g131
tp846
a(I3
g133
tp847
a(I0
g195
tp848
a(I1
g195
tp849
a(I2
g193
tp850
a(I3
g133
tp851
a(I0
g193
tp852
a(I1
g193
tp853
a(I2
g133
tp854
a(I3
g133
tp855
a(I0
g195
tp856
a(I1
g195
tp857
a(I2
g193
tp858
a(I3
g133
tp859
a(I0
g193
tp860
a(I1
g193
tp861
a(I2
g193
tp862
a(I3
g133
tp863
a(I0
g195
tp864
a(I1
g195
tp865
a(I2
g133
tp866
a(I3
g133
tp867
a(I0
g193
tp868
a(I1
g193
tp869
a(I2
g133
tp870
a(I3
g133
tp871
a(I0
g195
tp872
a(I1
g195
tp873
a(I2
g193
tp874
a(I3
g133
tp875
a(I0
g193
tp876
a(I1
g193
tp877
a(I2
g193
tp878
a(I3
g133
tp879
a(I0
g195
tp880
a(I1
g195
tp881
a(I2
g193
tp882
a(I3
g133
tp883
a(I0
g193
tp884
a(I1
g193
tp885
a(I2
g193
tp886
a(I3
g133
tp887
a(I0
g195
tp888
a(I1
g195
tp889
a(I2
g133
tp890
a(I3
g133
tp891
a(I0
g193
tp892
a(I1
g193
tp893
a(I2
g193
tp894
a(I3
g133
tp895
a(I0
g195
tp896
a(I1
g195
tp897
a(I2
g195
tp898
a(I3
g133
tp899
a(I0
g193
tp900
a(I1
g193
tp901
a(I2
g131
tp902
a(I3
g133
tp903
a(I0
g195
tp904
a(I1
g195
tp905
a(I2
g133
tp906
a(I3
g193
tp907
a(I0
g193
tp908
a(I1
g193
tp909
a(I2
g193
tp910
a(I3
g193
tp911
a(I0
g195
tp912
a(I1
g195
tp913
a(I2
g195
tp914
a(I3
g193
tp915
a(I0
g193
tp916
a(I1
g193
tp917
a(I2
g131
tp918
a(I3
g193
tp919
a(I0
g195
tp920
a(I1
g195
tp921
a(I2
g133
tp922
a(I3
g193
tp923
a(I0
g193
tp924
a(I1
g193
tp925
a(I2
g193
tp926
a(I3
g131
tp927
a(I0
g195
tp928
a(I1
g195
tp929
a(I2
g195
tp930
a(I3
g131
tp931
a(I0
g193
tp932
a(I1
g193
tp933
a(I2
g131
tp934
a(I3
g131
tp935
a(I0
g195
tp936
a(I1
g195
tp937
a(I2
g133
tp938
a(I3
g131
tp939
a(I0
g193
tp940
a(I1
g193
tp941
a(I2
g193
tp942
a(I3
g131
tp943
a(I0
g195
tp944
a(I1
g195
tp945
a(I2
g195
tp946
a(I3
g131
tp947
a(I0
g193
tp948
a(I1
g193
tp949
a(I2
g131
tp950
a(I3
g131
tp951
a(I0
g195
tp952
a(I1
g195
tp953
a(I2
g133
tp954
a(I3
g131
tp955
a(I0
g193
tp956
a(I1
g193
tp957
a(I2
g193
tp958
a(I3
g131
tp959
a(I0
g195
tp960
a(I1
g195
tp961
a(I2
g195
tp962
a(I3
g131
tp963
a(I0
g193
tp964
a(I1
g193
tp965
a(I2
g131
tp966
a(I3
g131
tp967
a(I0
g195
tp968
a(I1
g195
tp969
a(I2
g133
tp970
a(I3
g131
tp971
a(I0
g193
tp972
a(I1
g193
tp973
a(I2
g193
tp974
a(I3
g131
tp975
a(I0
g195
tp976
a(I1
g195
tp977
a(I2
g195
tp978
a(I3
g131
tp979
a(I0
g193
tp980
a(I1
g193
tp981
a(I2
g131
tp982
a(I3
g131
tp983
a(I0
g195
tp984
a(I1
g195
tp985
a(I2
g133
tp986
a(I3
g131
tp987
a(I0
g193
tp988
a(I1
g193
tp989
a(I2
g193
tp990
a(I3
g131
tp991
a(I0
g195
tp992
a(I1
g195
tp993
a(I2
g131
tp994
a(I3
g131
tp995
a(I0
g193
tp996
a(I1
g193
tp997
a(I2
g195
tp998
a(I3
g131
tp999
a(I0
g195
tp1000
a(I1
g195
tp1001
a(I2
g195
tp1002
a(I3
g131
tp1003
a(I0
g193
tp1004
a(I1
g193
tp1005
a(I2
g195
tp1006
a(I3
g131
tp1007
a(I0
g195
tp1008
a(I1
g195
tp1009
a(I2
g195
tp1010
a(I3
g131
tp1011
a(I0
g193
tp1012
a(I1
g193
tp1013
a(I2
g195
tp1014
a(I3
g193
tp1015
a(I0
g195
tp1016
a(I1
g195
tp1017
a(I2
g131
tp1018
a(I3
g193
tp1019
a(I0
g193
tp1020
a(I1
g193
tp1021
a(I2
g131
tp1022
a(I3
g131
tp1023
a(I0
g195
tp1024
a(I1
g195
tp1025
a(I2
g131
tp1026
a(I3
g193
tp1027
a(I0
g193
tp1028
a(I1
g193
tp1029
a(I2
g131
tp1030
a(I3
g133
tp1031
a(I0
g195
tp1032
a(I1
g195
tp1033
a(I2
g193
tp1034
a(I3
g195
tp1035
a(I0
g193
tp1036
a(I1
g193
tp1037
a(I2
g193
tp1038
a(I3
g133
tp1039
a(I0
g195
tp1040
a(I1
g195
tp1041
a(I2
g193
tp1042
a(I3
g133
tp1043
a(I0
g193
tp1044
a(I1
g193
tp1045
a(I2
g193
tp1046
a(I3
g133
tp1047
a(I0
g195
tp1048
a(I1
g195
tp1049
a(I2
g193
tp1050
a(I3
g133
tp1051
a(I0
g193
tp1052
a(I1
g193
tp1053
a(I2
g193
tp1054
a(I3
g133
tp1055
a(I0
g195
tp1056
a(I1
g195
tp1057
a(I2
g133
tp1058
a(I3
g133
tp1059
a(I0
g193
tp1060
a(I1
g193
tp1061
a(I2
g133
tp1062
a(I3
g133
tp1063
a(I0
g195
tp1064
a(I1
g195
tp1065
a(I2
g133
tp1066
a(I3
g133
tp1067
a(I0
g193
tp1068
a(I1
g193
tp1069
a(I2
g133
tp1070
a(I3
g133
tp1071
a(I0
g195
tp1072
a(I1
g195
tp1073
a(I2
g195
tp1074
a(I3
g133
tp1075
a(I0
g193
tp1076
a(I1
g193
tp1077
a(I2
g195
tp1078
a(I3
g133
tp1079
a(I0
g195
tp1080
a(I1
g195
tp1081
a(I2
g133
tp1082
a(I3
g133
tp1083
a(I0
g193
tp1084
a(I1
g193
tp1085
a(I2
g193
tp1086
a(I3
g133
tp1087
a(I0
g195
tp1088
a(I1
g195
tp1089
a(I2
g195
tp1090
a(I3
g133
tp1091
a(I0
g193
tp1092
a(I1
g193
tp1093
a(I2
g131
tp1094
a(I3
g133
tp1095
a(I0
g195
tp1096
a(I1
g195
tp1097
a(I2
g133
tp1098
a(I3
g193
tp1099
a(I0
g193
tp1100
a(I1
g193
tp1101
a(I2
g193
tp1102
a(I3
g193
tp1103
a(I0
g195
tp1104
a(I1
g195
tp1105
a(I2
g195
tp1106
a(I3
g193
tp1107
a(I0
g193
tp1108
a(I1
g193
tp1109
a(I2
g131
tp1110
a(I3
g193
tp1111
a(I0
g195
tp1112
a(I1
g195
tp1113
a(I2
g133
tp1114
a(I3
g193
tp1115
a(I0
g193
tp1116
a(I1
g193
tp1117
a(I2
g193
tp1118
a(I3
g131
tp1119
a(I0
g195
tp1120
a(I1
g195
tp1121
a(I2
g195
tp1122
a(I3
g131
tp1123
a(I0
g193
tp1124
a(I1
g193
tp1125
a(I2
g131
tp1126
a(I3
g131
tp1127
a(I0
g195
tp1128
a(I1
g195
tp1129
a(I2
g133
tp1130
a(I3
g131
tp1131
a(I0
g193
tp1132
a(I1
g193
tp1133
a(I2
g193
tp1134
a(I3
g131
tp1135
a(I0
g195
tp1136
a(I1
g195
tp1137
a(I2
g195
tp1138
a(I3
g131
tp1139
a(I0
g193
tp1140
a(I1
g193
tp1141
a(I2
g131
tp1142
a(I3
g131
tp1143
a(I0
g195
tp1144
a(I1
g195
tp1145
a(I2
g133
tp1146
a(I3
g131
tp1147
a(I0
g193
tp1148
a(I1
g193
tp1149
a(I2
g193
tp1150
a(I3
g131
tp1151
a(I0
g195
tp1152
a(I1
g195
tp1153
a(I2
g195
tp1154
a(I3
g131
tp1155
a(I0
g193
tp1156
a(I1
g193
tp1157
a(I2
g131
tp1158
a(I3
g131
tp1159
a(I0
g195
tp1160
a(I1
g195
tp1161
a(I2
g133
tp1162
a(I3
g131
tp1163
a(I0
g193
tp1164
a(I1
g193
tp1165
a(I2
g193
tp1166
a(I3
g131
tp1167
a(I0
g195
tp1168
a(I1
g195
tp1169
a(I2
g195
tp1170
a(I3
g131
tp1171
a(I0
g193
tp1172
a(I1
g193
tp1173
a(I2
g131
tp1174
a(I3
g131
tp1175
a(I0
g195
tp1176
a(I1
g195
tp1177
a(I2
g133
tp1178
a(I3
g131
tp1179
a(I0
g193
tp1180
a(I1
g193
tp1181
a(I2
g193
tp1182
a(I3
g131
tp1183
a(I0
g195
tp1184
a(I1
g195
tp1185
a(I2
g131
tp1186
a(I3
g131
tp1187
a(I0
g193
tp1188
a(I1
g193
tp1189
a(I2
g195
tp1190
a(I3
g131
tp1191
a(I0
g195
tp1192
a(I1
g195
tp1193
a(I2
g195
tp1194
a(I3
g131
tp1195
a(I0
g193
tp1196
a(I1
g193
tp1197
a(I2
g195
tp1198
a(I3
g195
tp1199
a(I0
g195
tp1200
a(I1
g195
tp1201
a(I2
g195
tp1202
a(I3
g195
tp1203
a(I0
g193
tp1204
a(I1
g193
tp1205
a(I2
g195
tp1206
a(I3
g131
tp1207
a(I0
g195
tp1208
a(I1
g195
tp1209
a(I2
g131
tp1210
a(I3
g131
tp1211
a(I0
g193
tp1212
a(I1
g193
tp1213
a(I2
g131
tp1214
a(I3
g195
tp1215
a(I0
g195
tp1216
a(I1
g195
tp1217
a(I2
g195
tp1218
a(I3
g133
tp1219
a(I0
g193
tp1220
a(I1
g193
tp1221
a(I2
g195
tp1222
a(I3
g133
tp1223
a(I0
g195
tp1224
a(I1
g195
tp1225
a(I2
g195
tp1226
a(I3
g133
tp1227
a(I0
g193
tp1228
a(I1
g193
tp1229
a(I2
g193
tp1230
a(I3
g133
tp1231
a(I0
g195
tp1232
a(I1
g195
tp1233
a(I2
g193
tp1234
a(I3
g133
tp1235
a(I0
g193
tp1236
a(I1
g193
tp1237
a(I2
g193
tp1238
a(I3
g133
tp1239
a(I0
g195
tp1240
a(I1
g195
tp1241
a(I2
g133
tp1242
a(I3
g133
tp1243
a(I0
g193
tp1244
a(I1
g193
tp1245
a(I2
g133
tp1246
a(I3
g133
tp1247
a(I0
g195
tp1248
a(I1
g195
tp1249
a(I2
g193
tp1250
a(I3
g133
tp1251
a(I0
g193
tp1252
a(I1
g193
tp1253
a(I2
g193
tp1254
a(I3
g133
tp1255
a(I0
g195
tp1256
a(I1
g195
tp1257
a(I2
g193
tp1258
a(I3
g133
tp1259
a(I0
g193
tp1260
a(I1
g193
tp1261
a(I2
g193
tp1262
a(I3
g133
tp1263
a(I0
g195
tp1264
a(I1
g195
tp1265
a(I2
g133
tp1266
a(I3
g133
tp1267
a(I0
g193
tp1268
a(I1
g193
tp1269
a(I2
g193
tp1270
a(I3
g133
tp1271
a(I0
g195
tp1272
a(I1
g195
tp1273
a(I2
g195
tp1274
a(I3
g133
tp1275
a(I0
g193
tp1276
a(I1
g193
tp1277
a(I2
g131
tp1278
a(I3
g133
tp1279
a(I0
g195
tp1280
a(I1
g195
tp1281
a(I2
g133
tp1282
a(I3
g133
tp1283
a(I0
g193
tp1284
a(I1
g193
tp1285
a(I2
g193
tp1286
a(I3
g193
tp1287
a(I0
g195
tp1288
a(I1
g195
tp1289
a(I2
g195
tp1290
a(I3
g193
tp1291
a(I0
g193
tp1292
a(I1
g193
tp1293
a(I2
g131
tp1294
a(I3
g193
tp1295
a(I0
g195
tp1296
a(I1
g195
tp1297
a(I2
g133
tp1298
a(I3
g193
tp1299
a(I0
g193
tp1300
a(I1
g193
tp1301
a(I2
g193
tp1302
a(I3
g193
tp1303
a(I0
g195
tp1304
a(I1
g195
tp1305
a(I2
g195
tp1306
a(I3
g131
tp1307
a(I0
g193
tp1308
a(I1
g193
tp1309
a(I2
g131
tp1310
a(I3
g131
tp1311
a(I0
g195
tp1312
a(I1
g195
tp1313
a(I2
g133
tp1314
a(I3
g131
tp1315
a(I0
g193
tp1316
a(I1
g193
tp1317
a(I2
g193
tp1318
a(I3
g131
tp1319
a(I0
g195
tp1320
a(I1
g195
tp1321
a(I2
g195
tp1322
a(I3
g131
tp1323
a(I0
g193
tp1324
a(I1
g193
tp1325
a(I2
g131
tp1326
a(I3
g131
tp1327
a(I0
g195
tp1328
a(I1
g195
tp1329
a(I2
g133
tp1330
a(I3
g131
tp1331
a(I0
g193
tp1332
a(I1
g193
tp1333
a(I2
g193
tp1334
a(I3
g131
tp1335
asS'length'
p1336
I1200
sS'agents'
p1337
(lp1338
(igame
Agent
p1339
(dp1340
S'index'
p1341
I0
sba(igame
Agent
p1342
(dp1343
g1341
I0
sba(igame
Agent
p1344
(dp1345
g1341
I0
sba(igame
Agent
p1346
(dp1347
g1341
I0
sbasS'redTeamName'
p1348
S'Red'
p1349
s.