(dp1
S'layout'
p2
(ilayout
Layout
p3
(dp4
S'capsules'
p5
(lp6
sS'numGhosts'
p7
I4
sS'food'
p8
(igame
Grid
p9
(dp10
S'CELLS_PER_INT'
p11
I30
sS'width'
p12
I36
sS'data'
p13
(lp14
(lp15
I00
aI00
aI00
aI00
aI00
aI00
aI00
aI00
aI00
aI00
aI00
aI00
aI00
aI00
aI00
aI00
aI00
aI00
aI00
aI00
aI00
aI00
aa(lp16
I00
aI00
aI00
aI00
aI00
aI00
aI00
aI00
aI01
aI01
aI01
aI01
aI01
aI00
aI00
aI00
aI00
aI00
aI00
aI00
aI00
aI00
aa(lp17
I00
aI00
aI00
aI00
aI00
aI00
aI00
aI00
aI01
aI01
aI01
aI01
aI01
aI00
aI00
aI00
aI00
aI00
aI00
aI00
aI00
aI00
aa(lp18
I00
aI00
aI00
aI01
aI01
aI00
aI00
aI00
aI01
aI01
aI01
aI01
aI01
aI00
aI01
aI01
aI01
aI01
aI01
aI00
aI00
aI00
aa(lp19
I00
aI00
aI00
aI01
aI01
aI00
aI00
aI00
aI01
aI01
aI01
aI01
aI01
aI00
aI01
aI01
aI01
aI01
aI01
aI00
aI00
aI00
aa(lp20
I00
aI00
aI00
aI01
aI01
aI00
aI00
aI00
aI01
aI01
aI01
aI01
aI01
aI00
aI01
aI01
aI01
aI01
aI01
aI00
aI00
aI00
aa(lp21
I00
aI00
aI00
aI01
aI01
aI00
aI00
aI00
aI01
aI01
aI01
aI01
aI01
aI00
aI01
aI01
aI01
aI01
aI01
aI00
aI00
aI00
aa(lp22
I00
aI00
aI00
aI01
aI01
aI00
aI00
aI00
aI00
aI00
aI00
aI00
aI01
aI00
aI01
aI01
aI01
aI01
aI01
aI00
aI00
aI00
aa(lp23
I00
aI00
aI00
aI01
aI01
aI01
aI00
aI00
aI00
aI00
aI00
aI00
aI00
aI01
aI01
aI01
aI01
aI01
aI01
aI00
aI00
aI00
aa(lp24
I00
aI00
aI00
aI01
aI01
aI00
aI00
aI00
aI00
aI00
aI00
aI00
aI00
aI00
aI01
aI01
aI01
aI01
aI01
aI00
aI00
aI00
aa(lp25
I00
aI00
aI00
aI01
aI01
aI00
aI00
aI00
aI01
aI01
aI01
aI00
aI00
aI00
aI01
aI01
aI01
aI01
aI01
aI00
aI00
aI00
aa(lp26
I00
aI00
aI00
aI00
aI00
aI00
aI00
aI00
aI01
aI01
aI01
aI00
aI00
aI00
aI00
aI01
aI00
aI00
aI00
aI00
aI00
aI00
aa(lp27
I00
aI00
aI00
aI01
aI01
aI00
aI00
aI01
aI01
aI01
aI01
aI01
aI00
aI00
aI00
aI00
aI00
aI01
aI01
aI00
aI00
aI00
aa(lp28
I00
aI00
aI00
aI01
aI01
aI00
aI00
aI00
aI01
aI01
aI01
aI00
aI00
aI00
aI00
aI00
aI00
aI01
aI01
aI00
aI00
aI00
aa(lp29
I00
aI00
aI00
aI01
aI01
aI01
aI00
aI00
aI01
aI01
aI01
aI00
aI00
aI00
aI00
aI00
aI01
aI01
aI01
aI00
aI00
aI00
aa(lp30
I00
aI00
aI00
aI01
aI01
aI00
aI00
aI00
aI00
aI00
aI00
aI00
aI00
aI00
aI00
aI00
aI00
aI01
aI01
aI00
aI00
aI00
aa(lp31
I00
aI00
aI00
aI01
aI01
aI00
aI00
aI00
aI00
aI00
aI00
aI00
aI00
aI00
aI00
aI00
aI00
aI01
aI01
aI00
aI00
aI00
aa(lp32
I00
aI00
aI00
aI00
aI00
aI00
aI00
aI00
aI00
aI00
aI00
aI00
aI00
aI00
aI00
aI00
aI00
aI00
aI00
aI00
aI00
aI00
aa(lp33
I00
aI00
aI00
aI00
aI00
aI00
aI00
aI00
aI00
aI00
aI00
aI00
aI00
aI00
aI00
aI00
aI00
aI00
aI00
aI00
aI00
aI00
aa(lp34
I00
aI00
aI00
aI01
aI01
aI00
aI00
aI00
aI00
aI00
aI00
aI00
aI00
aI00
aI00
aI00
aI00
aI01
aI01
aI00
aI00
aI00
aa(lp35
I00
aI00
aI00
aI01
aI01
aI00
aI00
aI00
aI00
aI00
aI00
aI00
aI00
aI00
aI00
aI00
aI00
aI01
aI01
aI00
aI00
aI00
aa(lp36
I00
aI00
aI00
aI01
aI01
aI01
aI00
aI00
aI00
aI00
aI00
aI01
aI01
aI01
aI00
aI00
aI01
aI01
aI01
aI00
aI00
aI00
aa(lp37
I00
aI00
aI00
aI01
aI01
aI00
aI00
aI00
aI00
aI00
aI00
aI01
aI01
aI01
aI00
aI00
aI00
aI01
aI01
aI00
aI00
aI00
aa(lp38
I00
aI00
aI00
aI01
aI01
aI00
aI00
aI00
aI00
aI00
aI01
aI01
aI01
aI01
aI01
aI00
aI00
aI01
aI01
aI00
aI00
aI00
aa(lp39
I00
aI00
aI00
aI00
aI00
aI00
aI01
aI00
aI00
aI00
aI00
aI01
aI01
aI01
aI00
aI00
aI00
aI00
aI00
aI00
aI00
aI00
aa(lp40
I00
aI00
aI00
aI01
aI01
aI01
aI01
aI01
aI00
aI00
aI00
aI01
aI01
aI01
aI00
aI00
aI00
aI01
aI01
aI00
aI00
aI00
aa(lp41
I00
aI00
aI00
aI01
aI01
aI01
aI01
aI01
aI00
aI00
aI00
aI00
aI00
aI00
aI00
aI00
aI00
aI01
aI01
aI00
aI00
aI00
aa(lp42
I00
aI00
aI00
aI01
aI01
aI01
aI01
aI01
aI01
aI00
aI00
aI00
aI00
aI00
aI00
aI00
aI01
aI01
aI01
aI00
aI00
aI00
aa(lp43
I00
aI00
aI00
aI01
aI01
aI01
aI01
aI01
aI00
aI01
aI00
aI00
aI00
aI00
aI00
aI00
aI00
aI01
aI01
aI00
aI00
aI00
aa(lp44
I00
aI00
aI00
aI01
aI01
aI01
aI01
aI01
aI00
aI01
aI01
aI01
aI01
aI01
aI00
aI00
aI00
aI01
aI01
aI00
aI00
aI00
aa(lp45
I00
aI00
aI00
aI01
aI01
aI01
aI01
aI01
aI00
aI01
aI01
aI01
aI01
aI01
aI01
aI00
aI00
aI01
aI01
aI00
aI00
aI00
aa(lp46
I00
aI00
aI00
aI01
aI01
aI01
aI01
aI01
aI00
aI01
aI01
aI01
aI01
aI01
aI00
aI00
aI00
aI01
aI01
aI00
aI00
aI00
aa(lp47
I00
aI00
aI00
aI01
aI01
aI01
aI01
aI01
aI00
aI01
aI01
aI01
aI01
aI01
aI00
aI00
aI00
aI01
aI01
aI00
aI00
aI00
aa(lp48
I00
aI00
aI00
aI00
aI00
aI00
aI00
aI00
aI00
aI01
aI01
aI01
aI01
aI01
aI00
aI00
aI00
aI00
aI00
aI00
aI00
aI00
aa(lp49
I00
aI00
aI00
aI00
aI00
aI00
aI00
aI00
aI00
aI01
aI01
aI01
aI01
aI01
aI00
aI00
aI00
aI00
aI00
aI00
aI00
aI00
aa(lp50
I00
aI00
aI00
aI00
aI00
aI00
aI00
aI00
aI00
aI00
aI00
aI00
aI00
aI00
aI00
aI00
aI00
aI00
aI00
aI00
aI00
aI00
aasS'height'
p51
I22
sbsS'agentPositions'
p52
(lp53
(I00
(I16
I1
tp54
tp55
a(I00
(I19
I20
tp56
tp57
a(I00
(I16
I20
tp58
tp59
a(I00
(I19
I1
tp60
tp61
asg51
I22
sg12
I36
sS'walls'
p62
(igame
Grid
p63
(dp64
g11
I30
sg12
I36
sg13
(lp65
(lp66
I01
aI01
aI01
aI01
aI01
aI01
aI01
aI01
aI01
aI01
aI01
aI01
aI01
aI01
aI01
aI01
aI01
aI01
aI01
aI01
aI01
aI01
aa(lp67
I01
aI00
aI00
aI00
aI00
aI00
aI00
aI01
aI00
aI00
aI00
aI00
aI00
aI01
aI01
aI00
aI00
aI00
aI00
aI00
aI00
aI01
aa(lp68
I01
aI00
aI01
aI01
aI01
aI01
aI00
aI01
aI00
aI00
aI00
aI00
aI00
aI01
aI01
aI00
aI01
aI01
aI01
aI01
aI00
aI01
aa(lp69
I01
aI00
aI01
aI00
aI00
aI01
aI00
aI01
aI00
aI00
aI00
aI00
aI00
aI01
aI00
aI00
aI00
aI00
aI00
aI01
aI00
aI01
aa(lp70
I01
aI00
aI01
aI00
aI00
aI01
aI00
aI01
aI00
aI00
aI00
aI00
aI00
aI01
aI00
aI00
aI00
aI00
aI00
aI01
aI00
aI01
aa(lp71
I01
aI00
aI01
aI00
aI00
aI01
aI00
aI00
aI00
aI00
aI00
aI00
aI00
aI01
aI00
aI00
aI00
aI00
aI00
aI01
aI00
aI01
aa(lp72
I01
aI00
aI01
aI00
aI00
aI01
aI00
aI01
aI00
aI00
aI00
aI00
aI00
aI01
aI00
aI00
aI00
aI00
aI00
aI01
aI00
aI01
aa(lp73
I01
aI00
aI01
aI00
aI00
aI01
aI00
aI01
aI01
aI01
aI01
aI01
aI00
aI01
aI00
aI00
aI00
aI00
aI00
aI01
aI00
aI01
aa(lp74
I01
aI00
aI01
aI00
aI00
aI00
aI00
aI00
aI00
aI00
aI00
aI00
aI00
aI00
aI00
aI00
aI00
aI00
aI00
aI01
aI00
aI01
aa(lp75
I01
aI00
aI01
aI00
aI00
aI01
aI00
aI01
aI01
aI01
aI01
aI01
aI00
aI01
aI00
aI00
aI00
aI00
aI00
aI01
aI00
aI01
aa(lp76
I01
aI00
aI01
aI00
aI00
aI01
aI00
aI01
aI00
aI00
aI00
aI01
aI00
aI01
aI00
aI00
aI00
aI00
aI00
aI01
aI00
aI01
aa(lp77
I01
aI00
aI01
aI01
aI01
aI01
aI00
aI01
aI00
aI00
aI00
aI01
aI00
aI01
aI01
aI00
aI01
aI01
aI01
aI01
aI00
aI01
aa(lp78
I01
aI00
aI01
aI00
aI00
aI01
aI00
aI00
aI00
aI00
aI00
aI00
aI00
aI00
aI00
aI00
aI01
aI00
aI00
aI01
aI00
aI01
aa(lp79
I01
aI00
aI01
aI00
aI00
aI01
aI00
aI01
aI00
aI00
aI00
aI01
aI00
aI01
aI01
aI00
aI01
aI00
aI00
aI01
aI00
aI01
aa(lp80
I01
aI00
aI01
aI00
aI00
aI00
aI00
aI01
aI00
aI00
aI00
aI01
aI00
aI01
aI01
aI00
aI00
aI00
aI00
aI01
aI00
aI01
aa(lp81
I01
aI00
aI01
aI00
aI00
aI01
aI00
aI01
aI01
aI01
aI01
aI01
aI00
aI01
aI01
aI00
aI01
aI00
aI00
aI01
aI00
aI01
aa(lp82
I01
aI00
aI01
aI00
aI00
aI01
aI00
aI00
aI00
aI00
aI00
aI00
aI00
aI01
aI01
aI00
aI01
aI00
aI00
aI01
aI00
aI01
aa(lp83
I01
aI01
aI01
aI01
aI01
aI01
aI00
aI01
aI01
aI01
aI00
aI00
aI01
aI01
aI01
aI00
aI01
aI01
aI01
aI01
aI01
aI01
aa(lp84
I01
aI01
aI01
aI01
aI01
aI01
aI00
aI01
aI01
aI01
aI00
aI00
aI01
aI01
aI01
aI00
aI01
aI01
aI01
aI01
aI01
aI01
aa(lp85
I01
aI00
aI01
aI00
aI00
aI01
aI00
aI01
aI01
aI00
aI00
aI00
aI00
aI00
aI00
aI00
aI01
aI00
aI00
aI01
aI00
aI01
aa(lp86
I01
aI00
aI01
aI00
aI00
aI01
aI00
aI01
aI01
aI00
aI01
aI01
aI01
aI01
aI01
aI00
aI01
aI00
aI00
aI01
aI00
aI01
aa(lp87
I01
aI00
aI01
aI00
aI00
aI00
aI00
aI01
aI01
aI00
aI01
aI00
aI00
aI00
aI01
aI00
aI00
aI00
aI00
aI01
aI00
aI01
aa(lp88
I01
aI00
aI01
aI00
aI00
aI01
aI00
aI01
aI01
aI00
aI01
aI00
aI00
aI00
aI01
aI00
aI01
aI00
aI00
aI01
aI00
aI01
aa(lp89
I01
aI00
aI01
aI00
aI00
aI01
aI00
aI00
aI00
aI00
aI00
aI00
aI00
aI00
aI00
aI00
aI01
aI00
aI00
aI01
aI00
aI01
aa(lp90
I01
aI00
aI01
aI01
aI01
aI01
aI00
aI01
aI01
aI00
aI01
aI00
aI00
aI00
aI01
aI00
aI01
aI01
aI01
aI01
aI00
aI01
aa(lp91
I01
aI00
aI01
aI00
aI00
aI00
aI00
aI00
aI01
aI00
aI01
aI00
aI00
aI00
aI01
aI00
aI01
aI00
aI00
aI01
aI00
aI01
aa(lp92
I01
aI00
aI01
aI00
aI00
aI00
aI00
aI00
aI01
aI00
aI01
aI01
aI01
aI01
aI01
aI00
aI01
aI00
aI00
aI01
aI00
aI01
aa(lp93
I01
aI00
aI01
aI00
aI00
aI00
aI00
aI00
aI00
aI00
aI00
aI00
aI00
aI00
aI00
aI00
aI00
aI00
aI00
aI01
aI00
aI01
aa(lp94
I01
aI00
aI01
aI00
aI00
aI00
aI00
aI00
aI01
aI00
aI01
aI01
aI01
aI01
aI01
aI00
aI01
aI00
aI00
aI01
aI00
aI01
aa(lp95
I01
aI00
aI01
aI00
aI00
aI00
aI00
aI00
aI01
aI00
aI00
aI00
aI00
aI00
aI01
aI00
aI01
aI00
aI00
aI01
aI00
aI01
aa(lp96
I01
aI00
aI01
aI00
aI00
aI00
aI00
aI00
aI01
aI00
aI00
aI00
aI00
aI00
aI00
aI00
aI01
aI00
aI00
aI01
aI00
aI01
aa(lp97
I01
aI00
aI01
aI00
aI00
aI00
aI00
aI00
aI01
aI00
aI00
aI00
aI00
aI00
aI01
aI00
aI01
aI00
aI00
aI01
aI00
aI01
aa(lp98
I01
aI00
aI01
aI00
aI00
aI00
aI00
aI00
aI01
aI00
aI00
aI00
aI00
aI00
aI01
aI00
aI01
aI00
aI00
aI01
aI00
aI01
aa(lp99
I01
aI00
aI01
aI01
aI01
aI01
aI00
aI01
aI01
aI00
aI00
aI00
aI00
aI00
aI01
aI00
aI01
aI01
aI01
aI01
aI00
aI01
aa(lp100
I01
aI00
aI00
aI00
aI00
aI00
aI00
aI01
aI01
aI00
aI00
aI00
aI00
aI00
aI01
aI00
aI00
aI00
aI00
aI00
aI00
aI01
aa(lp101
I01
aI01
aI01
aI01
aI01
aI01
aI01
aI01
aI01
aI01
aI01
aI01
aI01
aI01
aI01
aI01
aI01
aI01
aI01
aI01
aI01
aI01
aasg51
I22
sbsS'totalFood'
p102
I259
sS'layoutText'
p103
(lp104
S'%%%%%%%%%%%%%%%%%%%%%%%%%%%%%%%%%%%%'
p105
aS'%               3%%2               %'
p106
aS'% %%%%%%%%%%%%%%%%%%%%%%%%%%%%%%%% %'
p107
aS'% %........%.....%%.....%........% %'
p108
aS'% %........%.....%%.....%........% %'
p109
aS'% %........%%%.%%%%%%.%%%%%.%%%%%% %'
p110
aS'%  .........                       %'
p111
aS'%%%........% %%%%%% %%%.%%% %%.%%%%%'
p112
aS'%%%%%%%%.%%% %%%%%% %.....% %......%'
p113
aS'%.......         %% %.....% %......%'
p114
aS'%......% %%%.%%%    %.....% %......%'
p115
aS'%......% %.....%    %%%.%%% %......%'
p116
aS'%......% %.....% %%         .......%'
p117
aS'%......% %.....% %%%%%% %%%.%%%%%%%%'
p118
aS'%%%%% %% %%%.%%% %%%%%% %........%%%'
p119
aS'%                       .........  %'
p120
aS'% %%%%%%.%%%%%.%%%%%%.%%%........% %'
p121
aS'% %........%.....%%.....%........% %'
p122
aS'% %........%.....%%.....%........% %'
p123
aS'% %%%%%%%%%%%%%%%%%%%%%%%%%%%%%%%% %'
p124
aS'%               1%%4               %'
p125
aS'%%%%%%%%%%%%%%%%%%%%%%%%%%%%%%%%%%%%'
p126
asbsS'blueTeamName'
p127
S'Blue'
p128
sS'actions'
p129
(lp130
(I1
S'East'
p131
tp132
a(I2
S'West'
p133
tp134
a(I3
g131
tp135
a(I0
g133
tp136
a(I1
g131
tp137
a(I2
g133
tp138
a(I3
g131
tp139
a(I0
g133
tp140
a(I1
g131
tp141
a(I2
g133
tp142
a(I3
g131
tp143
a(I0
g133
tp144
a(I1
g131
tp145
a(I2
g133
tp146
a(I3
g131
tp147
a(I0
g133
tp148
a(I1
g131
tp149
a(I2
g133
tp150
a(I3
g131
tp151
a(I0
g133
tp152
a(I1
g131
tp153
a(I2
g133
tp154
a(I3
g131
tp155
a(I0
g133
tp156
a(I1
g131
tp157
a(I2
g133
tp158
a(I3
g131
tp159
a(I0
g133
tp160
a(I1
g131
tp161
a(I2
g133
tp162
a(I3
g131
tp163
a(I0
g133
tp164
a(I1
g131
tp165
a(I2
g133
tp166
a(I3
g131
tp167
a(I0
g133
tp168
a(I1
g131
tp169
a(I2
g133
tp170
a(I3
g131
tp171
a(I0
g133
tp172
a(I1
g131
tp173
a(I2
g133
tp174
a(I3
g131
tp175
a(I0
g133
tp176
a(I1
g131
tp177
a(I2
g133
tp178
a(I3
g131
tp179
a(I0
g133
tp180
a(I1
g131
tp181
a(I2
g133
tp182
a(I3
g131
tp183
a(I0
g133
tp184
a(I1
g131
tp185
a(I2
g133
tp186
a(I3
g131
tp187
a(I0
g133
tp188
a(I1
g131
tp189
a(I2
g133
tp190
a(I3
g131
tp191
a(I0
g133
tp192
a(I1
S'South'
p193
tp194
a(I2
g193
tp195
a(I3
S'North'
p196
tp197
a(I0
g196
tp198
a(I1
g193
tp199
a(I2
g193
tp200
a(I3
g196
tp201
a(I0
g196
tp202
a(I1
g193
tp203
a(I2
g193
tp204
a(I3
g196
tp205
a(I0
g196
tp206
a(I1
g193
tp207
a(I2
g193
tp208
a(I3
g196
tp209
a(I0
g196
tp210
a(I1
g193
tp211
a(I2
g193
tp212
a(I3
g196
tp213
a(I0
g196
tp214
a(I1
g133
tp215
a(I2
g131
tp216
a(I3
g133
tp217
a(I0
g131
tp218
a(I1
g133
tp219
a(I2
g131
tp220
a(I3
g133
tp221
a(I0
g131
tp222
a(I1
g133
tp223
a(I2
g131
tp224
a(I3
g133
tp225
a(I0
g131
tp226
a(I1
g133
tp227
a(I2
g131
tp228
a(I3
g133
tp229
a(I0
g131
tp230
a(I1
g133
tp231
a(I2
g131
tp232
a(I3
g133
tp233
a(I0
g131
tp234
a(I1
g133
tp235
a(I2
g193
tp236
a(I3
g133
tp237
a(I0
g131
tp238
a(I1
g133
tp239
a(I2
g131
tp240
a(I3
g196
tp241
a(I0
g131
tp242
a(I1
g133
tp243
a(I2
g131
tp244
a(I3
g133
tp245
a(I0
g131
tp246
a(I1
g133
tp247
a(I2
g193
tp248
a(I3
g196
tp249
a(I0
g131
tp250
a(I1
g133
tp251
a(I2
g193
tp252
a(I3
g196
tp253
a(I0
g131
tp254
a(I1
g133
tp255
a(I2
g131
tp256
a(I3
g133
tp257
a(I0
g131
tp258
a(I1
g133
tp259
a(I2
g131
tp260
a(I3
g133
tp261
a(I0
g131
tp262
a(I1
g133
tp263
a(I2
g131
tp264
a(I3
g133
tp265
a(I0
g131
tp266
a(I1
g133
tp267
a(I2
g131
tp268
a(I3
g133
tp269
a(I0
g131
tp270
a(I1
g133
tp271
a(I2
g131
tp272
a(I3
g133
tp273
a(I0
g131
tp274
a(I1
g133
tp275
a(I2
g131
tp276
a(I3
g133
tp277
a(I0
g196
tp278
a(I1
g133
tp279
a(I2
g131
tp280
a(I3
g133
tp281
a(I0
g196
tp282
a(I1
g133
tp283
a(I2
g131
tp284
a(I3
g133
tp285
a(I0
g196
tp286
a(I1
g133
tp287
a(I2
g193
tp288
a(I3
g196
tp289
a(I0
g196
tp290
a(I1
g133
tp291
a(I2
g131
tp292
a(I3
g196
tp293
a(I0
g196
tp294
a(I1
g196
tp295
a(I2
g193
tp296
a(I3
g196
tp297
a(I0
g131
tp298
a(I1
g196
tp299
a(I2
g133
tp300
a(I3
g196
tp301
a(I0
g193
tp302
a(I1
g196
tp303
a(I2
g196
tp304
a(I3
g196
tp305
a(I0
g133
tp306
a(I1
g131
tp307
a(I2
g196
tp308
a(I3
g193
tp309
a(I0
g196
tp310
a(I1
g131
tp311
a(I2
g133
tp312
a(I3
g193
tp313
a(I0
g131
tp314
a(I1
g193
tp315
a(I2
g133
tp316
a(I3
g193
tp317
a(I0
g131
tp318
a(I1
g133
tp319
a(I2
g133
tp320
a(I3
g133
tp321
a(I0
g133
tp322
a(I1
g133
tp323
a(I2
g133
tp324
a(I3
g193
tp325
a(I0
g133
tp326
a(I1
g133
tp327
a(I2
g196
tp328
a(I3
g131
tp329
a(I0
g133
tp330
a(I1
g133
tp331
a(I2
g196
tp332
a(I3
g193
tp333
a(I0
g133
tp334
a(I1
g196
tp335
a(I2
g196
tp336
a(I3
g196
tp337
a(I0
g133
tp338
a(I1
g131
tp339
a(I2
g131
tp340
a(I3
g196
tp341
a(I0
g133
tp342
a(I1
g131
tp343
a(I2
g131
tp344
a(I3
g196
tp345
a(I0
g133
tp346
a(I1
g131
tp347
a(I2
g196
tp348
a(I3
g196
tp349
a(I0
g133
tp350
a(I1
g131
tp351
a(I2
g196
tp352
a(I3
g196
tp353
a(I0
g133
tp354
a(I1
g193
tp355
a(I2
g131
tp356
a(I3
g193
tp357
a(I0
g133
tp358
a(I1
g133
tp359
a(I2
g133
tp360
a(I3
g193
tp361
a(I0
g133
tp362
a(I1
g131
tp363
a(I2
g193
tp364
a(I3
g193
tp365
a(I0
g133
tp366
a(I1
g131
tp367
a(I2
g193
tp368
a(I3
g193
tp369
a(I0
g133
tp370
a(I1
g131
tp371
a(I2
g131
tp372
a(I3
g193
tp373
a(I0
g133
tp374
a(I1
g131
tp375
a(I2
g131
tp376
a(I3
g196
tp377
a(I0
g133
tp378
a(I1
g131
tp379
a(I2
g131
tp380
a(I3
g196
tp381
a(I0
g196
tp382
a(I1
g131
tp383
a(I2
g131
tp384
a(I3
g196
tp385
a(I0
g196
tp386
a(I1
g131
tp387
a(I2
g133
tp388
a(I3
g196
tp389
a(I0
g196
tp390
a(I1
g133
tp391
a(I2
g133
tp392
a(I3
g196
tp393
a(I0
g196
tp394
a(I1
g133
tp395
a(I2
g133
tp396
a(I3
g193
tp397
a(I0
g196
tp398
a(I1
g133
tp399
a(I2
g131
tp400
a(I3
g193
tp401
a(I0
g131
tp402
a(I1
g133
tp403
a(I2
g131
tp404
a(I3
g193
tp405
a(I0
g131
tp406
a(I1
g133
tp407
a(I2
g131
tp408
a(I3
g196
tp409
a(I0
g131
tp410
a(I1
g131
tp411
a(I2
g133
tp412
a(I3
g193
tp413
a(I0
g131
tp414
a(I1
g131
tp415
a(I2
g131
tp416
a(I3
g196
tp417
a(I0
g131
tp418
a(I1
g131
tp419
a(I2
g133
tp420
a(I3
g193
tp421
a(I0
g131
tp422
a(I1
g131
tp423
a(I2
g131
tp424
a(I3
g196
tp425
a(I0
g131
tp426
a(I1
g131
tp427
a(I2
g133
tp428
a(I3
g193
tp429
a(I0
g131
tp430
a(I1
g131
tp431
a(I2
g131
tp432
a(I3
g196
tp433
a(I0
g131
tp434
a(I1
g131
tp435
a(I2
g133
tp436
a(I3
g193
tp437
a(I0
g131
tp438
a(I1
g131
tp439
a(I2
g131
tp440
a(I3
g196
tp441
a(I0
g131
tp442
a(I1
g131
tp443
a(I2
g133
tp444
a(I3
g193
tp445
a(I0
g131
tp446
a(I1
g131
tp447
a(I2
g131
tp448
a(I3
g196
tp449
a(I0
g131
tp450
a(I1
g131
tp451
a(I2
g133
tp452
a(I3
g193
tp453
a(I0
g131
tp454
a(I1
g131
tp455
a(I2
g131
tp456
a(I3
g196
tp457
a(I0
g131
tp458
a(I1
g131
tp459
a(I2
g133
tp460
a(I3
g193
tp461
a(I0
g131
tp462
a(I1
g193
tp463
a(I2
g131
tp464
a(I3
g196
tp465
a(I0
g131
tp466
a(I1
g193
tp467
a(I2
g133
tp468
a(I3
g196
tp469
a(I0
g131
tp470
a(I1
g196
tp471
a(I2
g133
tp472
a(I3
g196
tp473
a(I0
g131
tp474
a(I1
g196
tp475
a(I2
g133
tp476
a(I3
g196
tp477
a(I0
g131
tp478
a(I1
g133
tp479
a(I2
g133
tp480
a(I3
g131
tp481
a(I0
g193
tp482
a(I1
g133
tp483
a(I2
g131
tp484
a(I3
g131
tp485
a(I0
g193
tp486
a(I1
g133
tp487
a(I2
g131
tp488
a(I3
g131
tp489
a(I0
g133
tp490
a(I1
g133
tp491
a(I2
g131
tp492
a(I3
g131
tp493
a(I0
g133
tp494
a(I1
g133
tp495
a(I2
g131
tp496
a(I3
g133
tp497
a(I0
g193
tp498
a(I1
g131
tp499
a(I2
g133
tp500
a(I3
g133
tp501
a(I0
g131
tp502
a(I1
g133
tp503
a(I2
g133
tp504
a(I3
g196
tp505
a(I0
g131
tp506
a(I1
g133
tp507
a(I2
g131
tp508
a(I3
g196
tp509
a(I0
g131
tp510
a(I1
g133
tp511
a(I2
g131
tp512
a(I3
g193
tp513
a(I0
g196
tp514
a(I1
g131
tp515
a(I2
g133
tp516
a(I3
g193
tp517
a(I0
g131
tp518
a(I1
g133
tp519
a(I2
g133
tp520
a(I3
g133
tp521
a(I0
g193
tp522
a(I1
g133
tp523
a(I2
g133
tp524
a(I3
g133
tp525
a(I0
g133
tp526
a(I1
g133
tp527
a(I2
g133
tp528
a(I3
g133
tp529
a(I0
g196
tp530
a(I1
g133
tp531
a(I2
g133
tp532
a(I3
g131
tp533
a(I0
g133
tp534
a(I1
g133
tp535
a(I2
g131
tp536
a(I3
g131
tp537
a(I0
g196
tp538
a(I1
g133
tp539
a(I2
g131
tp540
a(I3
g131
tp541
a(I0
g196
tp542
a(I1
g133
tp543
a(I2
g131
tp544
a(I3
g196
tp545
a(I0
g133
tp546
a(I1
g133
tp547
a(I2
g131
tp548
a(I3
g196
tp549
a(I0
g133
tp550
a(I1
g133
tp551
a(I2
g131
tp552
a(I3
g193
tp553
a(I0
g133
tp554
a(I1
g131
tp555
a(I2
g133
tp556
a(I3
g193
tp557
a(I0
g133
tp558
a(I1
g131
tp559
a(I2
g133
tp560
a(I3
g133
tp561
a(I0
g131
tp562
a(I1
g131
tp563
a(I2
g133
tp564
a(I3
g133
tp565
a(I0
g131
tp566
a(I1
g133
tp567
a(I2
g133
tp568
a(I3
g193
tp569
a(I0
g131
tp570
a(I1
g133
tp571
a(I2
g131
tp572
a(I3
g193
tp573
a(I0
g131
tp574
a(I1
g133
tp575
a(I2
g131
tp576
a(I3
g193
tp577
a(I0
g131
tp578
a(I1
g131
tp579
a(I2
g131
tp580
a(I3
g193
tp581
a(I0
g131
tp582
a(I1
g131
tp583
a(I2
g131
tp584
a(I3
g196
tp585
a(I0
g131
tp586
a(I1
g131
tp587
a(I2
g133
tp588
a(I3
g196
tp589
a(I0
g131
tp590
a(I1
g133
tp591
a(I2
g133
tp592
a(I3
g196
tp593
a(I0
g131
tp594
a(I1
g133
tp595
a(I2
g133
tp596
a(I3
g196
tp597
a(I0
g131
tp598
a(I1
g133
tp599
a(I2
g133
tp600
a(I3
g131
tp601
a(I0
g131
tp602
a(I1
g131
tp603
a(I2
g131
tp604
a(I3
g131
tp605
a(I0
g131
tp606
a(I1
g131
tp607
a(I2
g131
tp608
a(I3
g131
tp609
a(I0
g131
tp610
a(I1
g131
tp611
a(I2
g131
tp612
a(I3
g131
tp613
a(I0
g131
tp614
a(I1
g131
tp615
a(I2
g131
tp616
a(I3
g133
tp617
a(I0
g131
tp618
a(I1
g131
tp619
a(I2
g133
tp620
a(I3
g133
tp621
a(I0
g196
tp622
a(I1
g133
tp623
a(I2
g133
tp624
a(I3
g196
tp625
a(I0
g133
tp626
a(I1
g133
tp627
a(I2
g131
tp628
a(I3
g196
tp629
a(I0
g133
tp630
a(I1
g133
tp631
a(I2
g131
tp632
a(I3
g193
tp633
a(I0
g133
tp634
a(I1
g131
tp635
a(I2
g133
tp636
a(I3
g193
tp637
a(I0
g133
tp638
a(I1
g133
tp639
a(I2
g133
tp640
a(I3
g131
tp641
a(I0
g133
tp642
a(I1
g133
tp643
a(I2
g131
tp644
a(I3
g131
tp645
a(I0
g133
tp646
a(I1
g133
tp647
a(I2
g131
tp648
a(I3
g133
tp649
a(I0
g133
tp650
a(I1
g131
tp651
a(I2
g133
tp652
a(I3
g133
tp653
a(I0
g193
tp654
a(I1
g131
tp655
a(I2
g133
tp656
a(I3
g133
tp657
a(I0
g193
tp658
a(I1
g131
tp659
a(I2
g133
tp660
a(I3
g133
tp661
a(I0
g131
tp662
a(I1
g133
tp663
a(I2
g133
tp664
a(I3
g133
tp665
a(I0
g131
tp666
a(I1
g133
tp667
a(I2
g133
tp668
a(I3
g131
tp669
a(I0
g131
tp670
a(I1
g133
tp671
a(I2
g131
tp672
a(I3
g193
tp673
a(I0
g131
tp674
a(I1
g131
tp675
a(I2
g131
tp676
a(I3
g193
tp677
a(I0
g131
tp678
a(I1
g131
tp679
a(I2
g131
tp680
a(I3
g193
tp681
a(I0
g131
tp682
a(I1
g131
tp683
a(I2
g131
tp684
a(I3
g193
tp685
a(I0
g131
tp686
a(I1
g131
tp687
a(I2
g131
tp688
a(I3
g196
tp689
a(I0
g193
tp690
a(I1
g131
tp691
a(I2
g133
tp692
a(I3
g196
tp693
a(I0
g133
tp694
a(I1
g133
tp695
a(I2
g133
tp696
a(I3
g196
tp697
a(I0
g133
tp698
a(I1
g133
tp699
a(I2
g133
tp700
a(I3
g196
tp701
a(I0
g133
tp702
a(I1
g133
tp703
a(I2
g133
tp704
a(I3
g131
tp705
a(I0
g133
tp706
a(I1
g133
tp707
a(I2
g131
tp708
a(I3
g131
tp709
a(I0
g133
tp710
a(I1
g133
tp711
a(I2
g131
tp712
a(I3
g131
tp713
a(I0
g133
tp714
a(I1
g131
tp715
a(I2
g131
tp716
a(I3
g131
tp717
a(I0
g133
tp718
a(I1
g131
tp719
a(I2
g131
tp720
a(I3
g133
tp721
a(I0
g193
tp722
a(I1
g131
tp723
a(I2
g133
tp724
a(I3
g133
tp725
a(I0
g131
tp726
a(I1
g133
tp727
a(I2
g133
tp728
a(I3
g133
tp729
a(I0
g131
tp730
a(I1
g133
tp731
a(I2
g133
tp732
a(I3
g133
tp733
a(I0
g131
tp734
a(I1
g133
tp735
a(I2
g133
tp736
a(I3
g193
tp737
a(I0
g131
tp738
a(I1
g131
tp739
a(I2
g131
tp740
a(I3
g193
tp741
a(I0
g131
tp742
a(I1
g131
tp743
a(I2
g131
tp744
a(I3
g193
tp745
a(I0
g131
tp746
a(I1
g131
tp747
a(I2
g131
tp748
a(I3
g193
tp749
a(I0
g131
tp750
a(I1
g131
tp751
a(I2
g131
tp752
a(I3
g196
tp753
a(I0
g133
tp754
a(I1
g131
tp755
a(I2
g133
tp756
a(I3
g196
tp757
a(I0
g133
tp758
a(I1
g133
tp759
a(I2
g133
tp760
a(I3
g196
tp761
a(I0
g133
tp762
a(I1
g133
tp763
a(I2
g133
tp764
a(I3
g196
tp765
a(I0
g196
tp766
a(I1
g133
tp767
a(I2
g133
tp768
a(I3
g131
tp769
a(I0
g196
tp770
a(I1
g133
tp771
a(I2
g131
tp772
a(I3
g131
tp773
a(I0
g133
tp774
a(I1
g133
tp775
a(I2
g131
tp776
a(I3
g131
tp777
a(I0
g133
tp778
a(I1
g131
tp779
a(I2
g131
tp780
a(I3
g131
tp781
a(I0
g196
tp782
a(I1
g131
tp783
a(I2
g131
tp784
a(I3
g133
tp785
a(I0
g133
tp786
a(I1
g131
tp787
a(I2
g133
tp788
a(I3
g133
tp789
a(I0
g133
tp790
a(I1
g133
tp791
a(I2
g133
tp792
a(I3
g196
tp793
a(I0
g133
tp794
a(I1
g133
tp795
a(I2
g131
tp796
a(I3
g196
tp797
a(I0
g133
tp798
a(I1
g133
tp799
a(I2
g131
tp800
a(I3
g193
tp801
a(I0
g133
tp802
a(I1
g131
tp803
a(I2
g133
tp804
a(I3
g193
tp805
a(I0
g133
tp806
a(I1
g131
tp807
a(I2
g133
tp808
a(I3
g133
tp809
a(I0
g133
tp810
a(I1
g131
tp811
a(I2
g133
tp812
a(I3
g133
tp813
a(I0
g133
tp814
a(I1
g133
tp815
a(I2
g133
tp816
a(I3
g193
tp817
a(I0
g133
tp818
a(I1
g133
tp819
a(I2
g131
tp820
a(I3
g193
tp821
a(I0
g133
tp822
a(I1
g133
tp823
a(I2
g131
tp824
a(I3
g193
tp825
a(I0
g131
tp826
a(I1
g131
tp827
a(I2
g131
tp828
a(I3
g193
tp829
a(I0
g131
tp830
a(I1
g131
tp831
a(I2
g131
tp832
a(I3
g196
tp833
a(I0
g131
tp834
a(I1
g131
tp835
a(I2
g133
tp836
a(I3
g196
tp837
a(I0
g131
tp838
a(I1
g133
tp839
a(I2
g133
tp840
a(I3
g196
tp841
a(I0
g131
tp842
a(I1
g133
tp843
a(I2
g133
tp844
a(I3
g196
tp845
a(I0
g131
tp846
a(I1
g133
tp847
a(I2
g133
tp848
a(I3
g133
tp849
a(I0
g196
tp850
a(I1
g131
tp851
a(I2
g133
tp852
a(I3
g131
tp853
a(I0
g196
tp854
a(I1
g131
tp855
a(I2
g131
tp856
a(I3
g193
tp857
a(I0
g196
tp858
a(I1
g131
tp859
a(I2
g131
tp860
a(I3
g193
tp861
a(I0
g196
tp862
a(I1
g131
tp863
a(I2
g131
tp864
a(I3
g193
tp865
a(I0
g196
tp866
a(I1
g131
tp867
a(I2
g131
tp868
a(I3
g193
tp869
a(I0
g133
tp870
a(I1
g131
tp871
a(I2
g131
tp872
a(I3
g196
tp873
a(I0
g196
tp874
a(I1
g131
tp875
a(I2
g133
tp876
a(I3
g196
tp877
a(I0
g131
tp878
a(I1
g131
tp879
a(I2
g133
tp880
a(I3
g196
tp881
a(I0
g196
tp882
a(I1
g131
tp883
a(I2
g133
tp884
a(I3
g196
tp885
a(I0
g196
tp886
a(I1
g131
tp887
a(I2
g133
tp888
a(I3
g131
tp889
a(I0
g193
tp890
a(I1
g131
tp891
a(I2
g131
tp892
a(I3
g131
tp893
a(I0
g133
tp894
a(I1
g131
tp895
a(I2
g131
tp896
a(I3
g131
tp897
a(I0
g133
tp898
a(I1
g131
tp899
a(I2
g131
tp900
a(I3
g131
tp901
a(I0
g193
tp902
a(I1
g131
tp903
a(I2
g131
tp904
a(I3
g193
tp905
a(I0
g193
tp906
a(I1
g131
tp907
a(I2
g131
tp908
a(I3
g193
tp909
a(I0
g131
tp910
a(I1
g193
tp911
a(I2
g131
tp912
a(I3
g133
tp913
a(I0
g131
tp914
a(I1
g193
tp915
a(I2
g131
tp916
a(I3
g193
tp917
a(I0
g131
tp918
a(I1
g193
tp919
a(I2
g196
tp920
a(I3
g193
tp921
a(I0
g196
tp922
a(I1
g193
tp923
a(I2
g196
tp924
a(I3
g131
tp925
a(I0
g196
tp926
a(I1
g193
tp927
a(I2
g133
tp928
a(I3
g131
tp929
a(I0
g131
tp930
a(I1
g133
tp931
a(I2
g133
tp932
a(I3
g131
tp933
a(I0
g133
tp934
a(I1
g133
tp935
a(I2
g196
tp936
a(I3
g196
tp937
a(I0
g133
tp938
a(I1
g133
tp939
a(I2
g131
tp940
a(I3
g196
tp941
a(I0
g196
tp942
a(I1
g133
tp943
a(I2
g131
tp944
a(I3
g133
tp945
a(I0
g196
tp946
a(I1
g133
tp947
a(I2
g131
tp948
a(I3
g133
tp949
a(I0
g133
tp950
a(I1
g133
tp951
a(I2
g193
tp952
a(I3
g196
tp953
a(I0
g133
tp954
a(I1
g133
tp955
a(I2
g131
tp956
a(I3
g196
tp957
a(I0
g133
tp958
a(I1
g133
tp959
a(I2
g196
tp960
a(I3
g133
tp961
a(I0
g133
tp962
a(I1
g133
tp963
a(I2
g193
tp964
a(I3
g133
tp965
a(I0
g133
tp966
a(I1
g133
tp967
a(I2
g196
tp968
a(I3
g133
tp969
a(I0
g133
tp970
a(I1
g133
tp971
a(I2
g133
tp972
a(I3
g131
tp973
a(I0
g133
tp974
a(I1
g133
tp975
a(I2
g131
tp976
a(I3
g196
tp977
a(I0
g131
tp978
a(I1
g133
tp979
a(I2
g193
tp980
a(I3
g196
tp981
a(I0
g131
tp982
a(I1
g133
tp983
a(I2
g196
tp984
a(I3
g131
tp985
a(I0
g133
tp986
a(I1
g131
tp987
a(I2
S'Stop'
p988
tp989
a(I3
g131
tp990
a(I0
g133
tp991
a(I1
g196
tp992
a(I2
g133
tp993
a(I3
g196
tp994
a(I0
g131
tp995
a(I1
g196
tp996
a(I2
g193
tp997
a(I3
g133
tp998
a(I0
g131
tp999
a(I1
g196
tp1000
a(I2
g131
tp1001
a(I3
g193
tp1002
a(I0
g131
tp1003
a(I1
g131
tp1004
a(I2
g196
tp1005
a(I3
g131
tp1006
a(I0
g131
tp1007
a(I1
g193
tp1008
a(I2
g133
tp1009
a(I3
g196
tp1010
a(I0
g133
tp1011
a(I1
g133
tp1012
a(I2
g193
tp1013
a(I3
g133
tp1014
a(I0
g193
tp1015
a(I1
g193
tp1016
a(I2
g131
tp1017
a(I3
g193
tp1018
a(I0
g193
tp1019
a(I1
g196
tp1020
a(I2
g196
tp1021
a(I3
g131
tp1022
a(I0
g196
tp1023
a(I1
g131
tp1024
a(I2
g133
tp1025
a(I3
g196
tp1026
a(I0
g196
tp1027
a(I1
g131
tp1028
a(I2
g133
tp1029
a(I3
g133
tp1030
a(I0
g131
tp1031
a(I1
g196
tp1032
a(I2
g193
tp1033
a(I3
g133
tp1034
a(I0
g133
tp1035
a(I1
g133
tp1036
a(I2
g193
tp1037
a(I3
g193
tp1038
a(I0
g193
tp1039
a(I1
g193
tp1040
a(I2
g193
tp1041
a(I3
g193
tp1042
a(I0
g193
tp1043
a(I1
g133
tp1044
a(I2
g133
tp1045
a(I3
g193
tp1046
a(I0
g193
tp1047
a(I1
g193
tp1048
a(I2
g133
tp1049
a(I3
g133
tp1050
a(I0
g193
tp1051
a(I1
g193
tp1052
a(I2
g133
tp1053
a(I3
g133
tp1054
a(I0
g193
tp1055
a(I1
g133
tp1056
a(I2
g133
tp1057
a(I3
g193
tp1058
a(I0
g193
tp1059
a(I1
g133
tp1060
a(I2
g133
tp1061
a(I3
g193
tp1062
a(I0
g131
tp1063
a(I1
g193
tp1064
a(I2
g133
tp1065
a(I3
g193
tp1066
a(I0
g131
tp1067
a(I1
g193
tp1068
a(I2
g131
tp1069
a(I3
g193
tp1070
a(I0
g131
tp1071
a(I1
g193
tp1072
a(I2
g131
tp1073
a(I3
g193
tp1074
a(I0
g131
tp1075
a(I1
g193
tp1076
a(I2
g131
tp1077
a(I3
g193
tp1078
a(I0
g196
tp1079
a(I1
g196
tp1080
a(I2
g133
tp1081
a(I3
g131
tp1082
a(I0
g196
tp1083
a(I1
g193
tp1084
a(I2
g131
tp1085
a(I3
g131
tp1086
a(I0
g131
tp1087
a(I1
g196
tp1088
a(I2
g133
tp1089
a(I3
g131
tp1090
a(I0
g131
tp1091
a(I1
g193
tp1092
a(I2
g131
tp1093
a(I3
g131
tp1094
a(I0
g196
tp1095
a(I1
g196
tp1096
a(I2
g133
tp1097
a(I3
g196
tp1098
a(I0
g196
tp1099
a(I1
g196
tp1100
a(I2
g133
tp1101
a(I3
g196
tp1102
a(I0
g133
tp1103
a(I1
g196
tp1104
a(I2
g133
tp1105
a(I3
g196
tp1106
a(I0
g131
tp1107
a(I1
g196
tp1108
a(I2
g133
tp1109
a(I3
g131
tp1110
a(I0
g988
tp1111
a(I1
g131
tp1112
a(I2
g131
tp1113
a(I3
g196
tp1114
a(I0
g193
tp1115
a(I1
g131
tp1116
a(I2
g131
tp1117
a(I3
g131
tp1118
a(I0
g133
tp1119
a(I1
g131
tp1120
a(I2
g131
tp1121
a(I3
g193
tp1122
a(I0
g196
tp1123
a(I1
g131
tp1124
a(I2
g131
tp1125
a(I3
g133
tp1126
a(I0
g133
tp1127
a(I1
g193
tp1128
a(I2
g131
tp1129
a(I3
g196
tp1130
a(I0
g133
tp1131
a(I1
g193
tp1132
a(I2
g131
tp1133
a(I3
g133
tp1134
a(I0
g193
tp1135
a(I1
g193
tp1136
a(I2
g133
tp1137
a(I3
g133
tp1138
a(I0
g193
tp1139
a(I1
g193
tp1140
a(I2
g131
tp1141
a(I3
g193
tp1142
a(I0
g133
tp1143
a(I1
g133
tp1144
a(I2
g131
tp1145
a(I3
g193
tp1146
a(I0
g196
tp1147
a(I1
g196
tp1148
a(I2
g131
tp1149
a(I3
g133
tp1150
a(I0
g196
tp1151
a(I1
g196
tp1152
a(I2
g133
tp1153
a(I3
g196
tp1154
a(I0
g988
tp1155
a(I1
g193
tp1156
a(I2
g131
tp1157
a(I3
g196
tp1158
a(I0
g133
tp1159
a(I1
g131
tp1160
a(I2
g133
tp1161
a(I3
g131
tp1162
a(I0
g133
tp1163
a(I1
g196
tp1164
a(I2
g133
tp1165
a(I3
g131
tp1166
a(I0
g133
tp1167
a(I1
g196
tp1168
a(I2
g133
tp1169
a(I3
g196
tp1170
a(I0
g133
tp1171
a(I1
g196
tp1172
a(I2
g193
tp1173
a(I3
g196
tp1174
a(I0
g133
tp1175
a(I1
g133
tp1176
a(I2
g193
tp1177
a(I3
g133
tp1178
a(I0
g133
tp1179
a(I1
g133
tp1180
a(I2
g193
tp1181
a(I3
g133
tp1182
a(I0
g133
tp1183
a(I1
g133
tp1184
a(I2
g193
tp1185
a(I3
g133
tp1186
a(I0
g133
tp1187
a(I1
g133
tp1188
a(I2
g193
tp1189
a(I3
g133
tp1190
a(I0
g133
tp1191
a(I1
g193
tp1192
a(I2
g193
tp1193
a(I3
g193
tp1194
a(I0
g133
tp1195
a(I1
g193
tp1196
a(I2
g131
tp1197
a(I3
g193
tp1198
a(I0
g133
tp1199
a(I1
g193
tp1200
a(I2
g131
tp1201
a(I3
g193
tp1202
a(I0
g133
tp1203
a(I1
g193
tp1204
a(I2
g131
tp1205
a(I3
g193
tp1206
a(I0
g133
tp1207
a(I1
g193
tp1208
a(I2
g131
tp1209
a(I3
g193
tp1210
a(I0
g133
tp1211
a(I1
g193
tp1212
a(I2
g131
tp1213
a(I3
g193
tp1214
a(I0
g133
tp1215
a(I1
g131
tp1216
a(I2
g131
tp1217
a(I3
g131
tp1218
a(I0
g196
tp1219
a(I1
g131
tp1220
a(I2
g131
tp1221
a(I3
g131
tp1222
a(I0
g196
tp1223
a(I1
g131
tp1224
a(I2
g131
tp1225
a(I3
g131
tp1226
a(I0
g196
tp1227
a(I1
g131
tp1228
a(I2
g131
tp1229
a(I3
g131
tp1230
a(I0
g196
tp1231
a(I1
g131
tp1232
a(I2
g131
tp1233
a(I3
g131
tp1234
a(I0
g196
tp1235
a(I1
g131
tp1236
a(I2
g131
tp1237
a(I3
g131
tp1238
a(I0
g131
tp1239
a(I1
g131
tp1240
a(I2
g131
tp1241
a(I3
g131
tp1242
a(I0
g131
tp1243
a(I1
g131
tp1244
a(I2
g131
tp1245
a(I3
g131
tp1246
a(I0
g131
tp1247
a(I1
g131
tp1248
a(I2
g131
tp1249
a(I3
g131
tp1250
a(I0
g131
tp1251
a(I1
g131
tp1252
a(I2
g131
tp1253
a(I3
g131
tp1254
a(I0
g131
tp1255
a(I1
g131
tp1256
a(I2
g196
tp1257
a(I3
g196
tp1258
a(I0
g131
tp1259
a(I1
g131
tp1260
a(I2
g196
tp1261
a(I3
g131
tp1262
a(I0
g131
tp1263
a(I1
g196
tp1264
a(I2
g196
tp1265
a(I3
g196
tp1266
a(I0
g131
tp1267
a(I1
g196
tp1268
a(I2
g196
tp1269
a(I3
g196
tp1270
a(I0
g131
tp1271
a(I1
g196
tp1272
a(I2
g133
tp1273
a(I3
g196
tp1274
a(I0
g131
tp1275
a(I1
g131
tp1276
a(I2
g133
tp1277
a(I3
g131
tp1278
a(I0
g131
tp1279
a(I1
g196
tp1280
a(I2
g133
tp1281
a(I3
g193
tp1282
a(I0
g131
tp1283
a(I1
g133
tp1284
a(I2
g133
tp1285
a(I3
g133
tp1286
a(I0
g131
tp1287
a(I1
g133
tp1288
a(I2
g133
tp1289
a(I3
g133
tp1290
a(I0
g131
tp1291
a(I1
g196
tp1292
a(I2
g133
tp1293
a(I3
g193
tp1294
a(I0
g131
tp1295
a(I1
g196
tp1296
a(I2
g133
tp1297
a(I3
g193
tp1298
a(I0
g131
tp1299
a(I1
g133
tp1300
a(I2
g133
tp1301
a(I3
g193
tp1302
a(I0
g131
tp1303
a(I1
g133
tp1304
a(I2
g133
tp1305
a(I3
g133
tp1306
a(I0
g131
tp1307
a(I1
g133
tp1308
a(I2
g133
tp1309
a(I3
g133
tp1310
a(I0
g131
tp1311
a(I1
g133
tp1312
a(I2
g133
tp1313
a(I3
g133
tp1314
a(I0
g131
tp1315
a(I1
g133
tp1316
a(I2
g133
tp1317
a(I3
g133
tp1318
a(I0
g131
tp1319
a(I1
g133
tp1320
a(I2
g133
tp1321
a(I3
g133
tp1322
a(I0
g133
tp1323
a(I1
g133
tp1324
a(I2
g133
tp1325
a(I3
g133
tp1326
a(I0
g193
tp1327
a(I1
g133
tp1328
a(I2
g133
tp1329
a(I3
g193
tp1330
a(I0
g193
tp1331
a(I1
g133
tp1332
a(I2
g133
tp1333
a(I3
g193
tp1334
a(I0
g193
tp1335
asS'length'
p1336
I1200
sS'agents'
p1337
(lp1338
(igame
Agent
p1339
(dp1340
S'index'
p1341
I0
sba(igame
Agent
p1342
(dp1343
g1341
I0
sba(igame
Agent
p1344
(dp1345
g1341
I0
sba(igame
Agent
p1346
(dp1347
g1341
I0
sbasS'redTeamName'
p1348
S'Red'
p1349
s.